
sum1ton.o:     file format elf64-littleriscv


Disassembly of section .text:

00000000000100b0 <register_fini>:
   100b0:	ffff0797          	auipc	a5,0xffff0
   100b4:	f5078793          	addi	a5,a5,-176 # 0 <register_fini-0x100b0>
   100b8:	00078863          	beqz	a5,100c8 <register_fini+0x18>
   100bc:	00000517          	auipc	a0,0x0
   100c0:	14c50513          	addi	a0,a0,332 # 10208 <__libc_fini_array>
   100c4:	0fc0006f          	j	101c0 <atexit>
   100c8:	00008067          	ret

00000000000100cc <_start>:
   100cc:	00013197          	auipc	gp,0x13
   100d0:	93c18193          	addi	gp,gp,-1732 # 22a08 <__global_pointer$>
   100d4:	77018513          	addi	a0,gp,1904 # 23178 <_edata>
   100d8:	00013617          	auipc	a2,0x13
   100dc:	13060613          	addi	a2,a2,304 # 23208 <__BSS_END__>
   100e0:	40a60633          	sub	a2,a2,a0
   100e4:	00000593          	li	a1,0
   100e8:	210000ef          	jal	ra,102f8 <memset>
   100ec:	00000517          	auipc	a0,0x0
   100f0:	11c50513          	addi	a0,a0,284 # 10208 <__libc_fini_array>
   100f4:	0cc000ef          	jal	ra,101c0 <atexit>
   100f8:	16c000ef          	jal	ra,10264 <__libc_init_array>
   100fc:	00012503          	lw	a0,0(sp)
   10100:	00810593          	addi	a1,sp,8
   10104:	00000613          	li	a2,0
   10108:	07c000ef          	jal	ra,10184 <main>
   1010c:	0c80006f          	j	101d4 <exit>

0000000000010110 <__do_global_dtors_aux>:
   10110:	7981c783          	lbu	a5,1944(gp) # 231a0 <completed.5468>
   10114:	04079463          	bnez	a5,1015c <__do_global_dtors_aux+0x4c>
   10118:	ffff0797          	auipc	a5,0xffff0
   1011c:	ee878793          	addi	a5,a5,-280 # 0 <register_fini-0x100b0>
   10120:	02078863          	beqz	a5,10150 <__do_global_dtors_aux+0x40>
   10124:	ff010113          	addi	sp,sp,-16
   10128:	00012517          	auipc	a0,0x12
   1012c:	ed850513          	addi	a0,a0,-296 # 22000 <__FRAME_END__>
   10130:	00113423          	sd	ra,8(sp)
   10134:	00000097          	auipc	ra,0x0
   10138:	000000e7          	jalr	zero # 0 <register_fini-0x100b0>
   1013c:	00813083          	ld	ra,8(sp)
   10140:	00100793          	li	a5,1
   10144:	78f18c23          	sb	a5,1944(gp) # 231a0 <completed.5468>
   10148:	01010113          	addi	sp,sp,16
   1014c:	00008067          	ret
   10150:	00100793          	li	a5,1
   10154:	78f18c23          	sb	a5,1944(gp) # 231a0 <completed.5468>
   10158:	00008067          	ret
   1015c:	00008067          	ret

0000000000010160 <frame_dummy>:
   10160:	ffff0797          	auipc	a5,0xffff0
   10164:	ea078793          	addi	a5,a5,-352 # 0 <register_fini-0x100b0>
   10168:	00078c63          	beqz	a5,10180 <frame_dummy+0x20>
   1016c:	7a018593          	addi	a1,gp,1952 # 231a8 <object.5473>
   10170:	00012517          	auipc	a0,0x12
   10174:	e9050513          	addi	a0,a0,-368 # 22000 <__FRAME_END__>
   10178:	00000317          	auipc	t1,0x0
   1017c:	00000067          	jr	zero # 0 <register_fini-0x100b0>
   10180:	00008067          	ret

0000000000010184 <main>:
   10184:	ff010113          	addi	sp,sp,-16
   10188:	00113423          	sd	ra,8(sp)
   1018c:	06400793          	li	a5,100
   10190:	fff7879b          	addiw	a5,a5,-1
   10194:	fe079ee3          	bnez	a5,10190 <main+0xc>
   10198:	00001637          	lui	a2,0x1
   1019c:	3ba60613          	addi	a2,a2,954 # 13ba <register_fini-0xecf6>
   101a0:	06400593          	li	a1,100
   101a4:	00021537          	lui	a0,0x21
   101a8:	19050513          	addi	a0,a0,400 # 21190 <__clzdi2+0x48>
   101ac:	26c000ef          	jal	ra,10418 <printf>
   101b0:	00000513          	li	a0,0
   101b4:	00813083          	ld	ra,8(sp)
   101b8:	01010113          	addi	sp,sp,16
   101bc:	00008067          	ret

00000000000101c0 <atexit>:
   101c0:	00050593          	mv	a1,a0
   101c4:	00000693          	li	a3,0
   101c8:	00000613          	li	a2,0
   101cc:	00000513          	li	a0,0
   101d0:	4390206f          	j	12e08 <__register_exitproc>

00000000000101d4 <exit>:
   101d4:	ff010113          	addi	sp,sp,-16
   101d8:	00000593          	li	a1,0
   101dc:	00813023          	sd	s0,0(sp)
   101e0:	00113423          	sd	ra,8(sp)
   101e4:	00050413          	mv	s0,a0
   101e8:	4cd020ef          	jal	ra,12eb4 <__call_exitprocs>
   101ec:	74818793          	addi	a5,gp,1864 # 23150 <_global_impure_ptr>
   101f0:	0007b503          	ld	a0,0(a5)
   101f4:	05853783          	ld	a5,88(a0)
   101f8:	00078463          	beqz	a5,10200 <exit+0x2c>
   101fc:	000780e7          	jalr	a5
   10200:	00040513          	mv	a0,s0
   10204:	7410e0ef          	jal	ra,1f144 <_exit>

0000000000010208 <__libc_fini_array>:
   10208:	fe010113          	addi	sp,sp,-32
   1020c:	00813823          	sd	s0,16(sp)
   10210:	00012797          	auipc	a5,0x12
   10214:	e1078793          	addi	a5,a5,-496 # 22020 <__fini_array_end>
   10218:	00012417          	auipc	s0,0x12
   1021c:	e0040413          	addi	s0,s0,-512 # 22018 <__init_array_end>
   10220:	408787b3          	sub	a5,a5,s0
   10224:	00913423          	sd	s1,8(sp)
   10228:	00113c23          	sd	ra,24(sp)
   1022c:	4037d493          	srai	s1,a5,0x3
   10230:	02048063          	beqz	s1,10250 <__libc_fini_array+0x48>
   10234:	ff878793          	addi	a5,a5,-8
   10238:	00878433          	add	s0,a5,s0
   1023c:	00043783          	ld	a5,0(s0)
   10240:	fff48493          	addi	s1,s1,-1
   10244:	ff840413          	addi	s0,s0,-8
   10248:	000780e7          	jalr	a5
   1024c:	fe0498e3          	bnez	s1,1023c <__libc_fini_array+0x34>
   10250:	01813083          	ld	ra,24(sp)
   10254:	01013403          	ld	s0,16(sp)
   10258:	00813483          	ld	s1,8(sp)
   1025c:	02010113          	addi	sp,sp,32
   10260:	00008067          	ret

0000000000010264 <__libc_init_array>:
   10264:	fe010113          	addi	sp,sp,-32
   10268:	00813823          	sd	s0,16(sp)
   1026c:	01213023          	sd	s2,0(sp)
   10270:	00012417          	auipc	s0,0x12
   10274:	d9440413          	addi	s0,s0,-620 # 22004 <__preinit_array_end>
   10278:	00012917          	auipc	s2,0x12
   1027c:	d8c90913          	addi	s2,s2,-628 # 22004 <__preinit_array_end>
   10280:	40890933          	sub	s2,s2,s0
   10284:	00113c23          	sd	ra,24(sp)
   10288:	00913423          	sd	s1,8(sp)
   1028c:	40395913          	srai	s2,s2,0x3
   10290:	00090e63          	beqz	s2,102ac <__libc_init_array+0x48>
   10294:	00000493          	li	s1,0
   10298:	00043783          	ld	a5,0(s0)
   1029c:	00148493          	addi	s1,s1,1
   102a0:	00840413          	addi	s0,s0,8
   102a4:	000780e7          	jalr	a5
   102a8:	fe9918e3          	bne	s2,s1,10298 <__libc_init_array+0x34>
   102ac:	00012417          	auipc	s0,0x12
   102b0:	d5c40413          	addi	s0,s0,-676 # 22008 <__init_array_start>
   102b4:	00012917          	auipc	s2,0x12
   102b8:	d6490913          	addi	s2,s2,-668 # 22018 <__init_array_end>
   102bc:	40890933          	sub	s2,s2,s0
   102c0:	40395913          	srai	s2,s2,0x3
   102c4:	00090e63          	beqz	s2,102e0 <__libc_init_array+0x7c>
   102c8:	00000493          	li	s1,0
   102cc:	00043783          	ld	a5,0(s0)
   102d0:	00148493          	addi	s1,s1,1
   102d4:	00840413          	addi	s0,s0,8
   102d8:	000780e7          	jalr	a5
   102dc:	fe9918e3          	bne	s2,s1,102cc <__libc_init_array+0x68>
   102e0:	01813083          	ld	ra,24(sp)
   102e4:	01013403          	ld	s0,16(sp)
   102e8:	00813483          	ld	s1,8(sp)
   102ec:	00013903          	ld	s2,0(sp)
   102f0:	02010113          	addi	sp,sp,32
   102f4:	00008067          	ret

00000000000102f8 <memset>:
   102f8:	00f00313          	li	t1,15
   102fc:	00050713          	mv	a4,a0
   10300:	02c37a63          	bgeu	t1,a2,10334 <memset+0x3c>
   10304:	00f77793          	andi	a5,a4,15
   10308:	0a079063          	bnez	a5,103a8 <memset+0xb0>
   1030c:	06059e63          	bnez	a1,10388 <memset+0x90>
   10310:	ff067693          	andi	a3,a2,-16
   10314:	00f67613          	andi	a2,a2,15
   10318:	00e686b3          	add	a3,a3,a4
   1031c:	00b73023          	sd	a1,0(a4)
   10320:	00b73423          	sd	a1,8(a4)
   10324:	01070713          	addi	a4,a4,16
   10328:	fed76ae3          	bltu	a4,a3,1031c <memset+0x24>
   1032c:	00061463          	bnez	a2,10334 <memset+0x3c>
   10330:	00008067          	ret
   10334:	40c306b3          	sub	a3,t1,a2
   10338:	00269693          	slli	a3,a3,0x2
   1033c:	00000297          	auipc	t0,0x0
   10340:	005686b3          	add	a3,a3,t0
   10344:	00c68067          	jr	12(a3)
   10348:	00b70723          	sb	a1,14(a4)
   1034c:	00b706a3          	sb	a1,13(a4)
   10350:	00b70623          	sb	a1,12(a4)
   10354:	00b705a3          	sb	a1,11(a4)
   10358:	00b70523          	sb	a1,10(a4)
   1035c:	00b704a3          	sb	a1,9(a4)
   10360:	00b70423          	sb	a1,8(a4)
   10364:	00b703a3          	sb	a1,7(a4)
   10368:	00b70323          	sb	a1,6(a4)
   1036c:	00b702a3          	sb	a1,5(a4)
   10370:	00b70223          	sb	a1,4(a4)
   10374:	00b701a3          	sb	a1,3(a4)
   10378:	00b70123          	sb	a1,2(a4)
   1037c:	00b700a3          	sb	a1,1(a4)
   10380:	00b70023          	sb	a1,0(a4)
   10384:	00008067          	ret
   10388:	0ff5f593          	andi	a1,a1,255
   1038c:	00859693          	slli	a3,a1,0x8
   10390:	00d5e5b3          	or	a1,a1,a3
   10394:	01059693          	slli	a3,a1,0x10
   10398:	00d5e5b3          	or	a1,a1,a3
   1039c:	02059693          	slli	a3,a1,0x20
   103a0:	00d5e5b3          	or	a1,a1,a3
   103a4:	f6dff06f          	j	10310 <memset+0x18>
   103a8:	00279693          	slli	a3,a5,0x2
   103ac:	00000297          	auipc	t0,0x0
   103b0:	005686b3          	add	a3,a3,t0
   103b4:	00008293          	mv	t0,ra
   103b8:	f98680e7          	jalr	-104(a3)
   103bc:	00028093          	mv	ra,t0
   103c0:	ff078793          	addi	a5,a5,-16
   103c4:	40f70733          	sub	a4,a4,a5
   103c8:	00f60633          	add	a2,a2,a5
   103cc:	f6c374e3          	bgeu	t1,a2,10334 <memset+0x3c>
   103d0:	f3dff06f          	j	1030c <memset+0x14>

00000000000103d4 <_printf_r>:
   103d4:	fb010113          	addi	sp,sp,-80
   103d8:	02c13023          	sd	a2,32(sp)
   103dc:	02d13423          	sd	a3,40(sp)
   103e0:	02f13c23          	sd	a5,56(sp)
   103e4:	02e13823          	sd	a4,48(sp)
   103e8:	05013023          	sd	a6,64(sp)
   103ec:	05113423          	sd	a7,72(sp)
   103f0:	00058613          	mv	a2,a1
   103f4:	01053583          	ld	a1,16(a0)
   103f8:	02010793          	addi	a5,sp,32
   103fc:	00078693          	mv	a3,a5
   10400:	00113c23          	sd	ra,24(sp)
   10404:	00f13423          	sd	a5,8(sp)
   10408:	064000ef          	jal	ra,1046c <_vfprintf_r>
   1040c:	01813083          	ld	ra,24(sp)
   10410:	05010113          	addi	sp,sp,80
   10414:	00008067          	ret

0000000000010418 <printf>:
   10418:	75818313          	addi	t1,gp,1880 # 23160 <_impure_ptr>
   1041c:	00033303          	ld	t1,0(t1) # 10178 <frame_dummy+0x18>
   10420:	fa010113          	addi	sp,sp,-96
   10424:	02c13823          	sd	a2,48(sp)
   10428:	02d13c23          	sd	a3,56(sp)
   1042c:	04f13423          	sd	a5,72(sp)
   10430:	02b13423          	sd	a1,40(sp)
   10434:	04e13023          	sd	a4,64(sp)
   10438:	05013823          	sd	a6,80(sp)
   1043c:	05113c23          	sd	a7,88(sp)
   10440:	01033583          	ld	a1,16(t1)
   10444:	02810793          	addi	a5,sp,40
   10448:	00050613          	mv	a2,a0
   1044c:	00078693          	mv	a3,a5
   10450:	00030513          	mv	a0,t1
   10454:	00113c23          	sd	ra,24(sp)
   10458:	00f13423          	sd	a5,8(sp)
   1045c:	010000ef          	jal	ra,1046c <_vfprintf_r>
   10460:	01813083          	ld	ra,24(sp)
   10464:	06010113          	addi	sp,sp,96
   10468:	00008067          	ret

000000000001046c <_vfprintf_r>:
   1046c:	d8010113          	addi	sp,sp,-640
   10470:	26113c23          	sd	ra,632(sp)
   10474:	26813823          	sd	s0,624(sp)
   10478:	25613023          	sd	s6,576(sp)
   1047c:	00b13023          	sd	a1,0(sp)
   10480:	00060b13          	mv	s6,a2
   10484:	00d13823          	sd	a3,16(sp)
   10488:	26913423          	sd	s1,616(sp)
   1048c:	27213023          	sd	s2,608(sp)
   10490:	25313c23          	sd	s3,600(sp)
   10494:	25413823          	sd	s4,592(sp)
   10498:	25513423          	sd	s5,584(sp)
   1049c:	23713c23          	sd	s7,568(sp)
   104a0:	23813823          	sd	s8,560(sp)
   104a4:	23913423          	sd	s9,552(sp)
   104a8:	23a13023          	sd	s10,544(sp)
   104ac:	21b13c23          	sd	s11,536(sp)
   104b0:	00050413          	mv	s0,a0
   104b4:	02a13823          	sd	a0,48(sp)
   104b8:	364060ef          	jal	ra,1681c <_localeconv_r>
   104bc:	00053783          	ld	a5,0(a0)
   104c0:	00078513          	mv	a0,a5
   104c4:	04f13c23          	sd	a5,88(sp)
   104c8:	68c080ef          	jal	ra,18b54 <strlen>
   104cc:	04a13423          	sd	a0,72(sp)
   104d0:	10013023          	sd	zero,256(sp)
   104d4:	10013423          	sd	zero,264(sp)
   104d8:	00040663          	beqz	s0,104e4 <_vfprintf_r+0x78>
   104dc:	05042783          	lw	a5,80(s0)
   104e0:	54078ee3          	beqz	a5,1123c <_vfprintf_r+0xdd0>
   104e4:	00013703          	ld	a4,0(sp)
   104e8:	01071683          	lh	a3,16(a4)
   104ec:	03069793          	slli	a5,a3,0x30
   104f0:	0307d793          	srli	a5,a5,0x30
   104f4:	03279613          	slli	a2,a5,0x32
   104f8:	02064663          	bltz	a2,10524 <_vfprintf_r+0xb8>
   104fc:	0ac72603          	lw	a2,172(a4)
   10500:	000027b7          	lui	a5,0x2
   10504:	00f6e7b3          	or	a5,a3,a5
   10508:	ffffe6b7          	lui	a3,0xffffe
   1050c:	fff68693          	addi	a3,a3,-1 # ffffffffffffdfff <__BSS_END__+0xfffffffffffdadf7>
   10510:	00d676b3          	and	a3,a2,a3
   10514:	00f71823          	sh	a5,16(a4)
   10518:	03079793          	slli	a5,a5,0x30
   1051c:	0ad72623          	sw	a3,172(a4)
   10520:	0307d793          	srli	a5,a5,0x30
   10524:	0087f693          	andi	a3,a5,8
   10528:	14068463          	beqz	a3,10670 <_vfprintf_r+0x204>
   1052c:	00013703          	ld	a4,0(sp)
   10530:	01873683          	ld	a3,24(a4)
   10534:	12068e63          	beqz	a3,10670 <_vfprintf_r+0x204>
   10538:	01a7f793          	andi	a5,a5,26
   1053c:	00a00693          	li	a3,10
   10540:	14d78c63          	beq	a5,a3,10698 <_vfprintf_r+0x22c>
   10544:	19010793          	addi	a5,sp,400
   10548:	000b0d93          	mv	s11,s6
   1054c:	10f13823          	sd	a5,272(sp)
   10550:	00078313          	mv	t1,a5
   10554:	000dc783          	lbu	a5,0(s11)
   10558:	12013023          	sd	zero,288(sp)
   1055c:	10012c23          	sw	zero,280(sp)
   10560:	02013423          	sd	zero,40(sp)
   10564:	04013823          	sd	zero,80(sp)
   10568:	06013423          	sd	zero,104(sp)
   1056c:	06013c23          	sd	zero,120(sp)
   10570:	08013423          	sd	zero,136(sp)
   10574:	06013823          	sd	zero,112(sp)
   10578:	00013423          	sd	zero,8(sp)
   1057c:	01000d13          	li	s10,16
   10580:	00011c17          	auipc	s8,0x11
   10584:	db8c0c13          	addi	s8,s8,-584 # 21338 <zeroes.4539>
   10588:	03013a83          	ld	s5,48(sp)
   1058c:	1e078ce3          	beqz	a5,10f84 <_vfprintf_r+0xb18>
   10590:	02500693          	li	a3,37
   10594:	00d79463          	bne	a5,a3,1059c <_vfprintf_r+0x130>
   10598:	6e80106f          	j	11c80 <_vfprintf_r+0x1814>
   1059c:	000d8413          	mv	s0,s11
   105a0:	00c0006f          	j	105ac <_vfprintf_r+0x140>
   105a4:	10d78e63          	beq	a5,a3,106c0 <_vfprintf_r+0x254>
   105a8:	00048413          	mv	s0,s1
   105ac:	00144783          	lbu	a5,1(s0)
   105b0:	00140493          	addi	s1,s0,1
   105b4:	fe0798e3          	bnez	a5,105a4 <_vfprintf_r+0x138>
   105b8:	41b4893b          	subw	s2,s1,s11
   105bc:	1c0904e3          	beqz	s2,10f84 <_vfprintf_r+0xb18>
   105c0:	12013683          	ld	a3,288(sp)
   105c4:	11812783          	lw	a5,280(sp)
   105c8:	01b33023          	sd	s11,0(t1)
   105cc:	012686b3          	add	a3,a3,s2
   105d0:	0017879b          	addiw	a5,a5,1
   105d4:	01233423          	sd	s2,8(t1)
   105d8:	12d13023          	sd	a3,288(sp)
   105dc:	10f12c23          	sw	a5,280(sp)
   105e0:	0007869b          	sext.w	a3,a5
   105e4:	00700793          	li	a5,7
   105e8:	01030313          	addi	t1,t1,16
   105ec:	0ed7c063          	blt	a5,a3,106cc <_vfprintf_r+0x260>
   105f0:	00813703          	ld	a4,8(sp)
   105f4:	00144783          	lbu	a5,1(s0)
   105f8:	00e9073b          	addw	a4,s2,a4
   105fc:	00e13423          	sd	a4,8(sp)
   10600:	180782e3          	beqz	a5,10f84 <_vfprintf_r+0xb18>
   10604:	00148913          	addi	s2,s1,1
   10608:	0014c403          	lbu	s0,1(s1)
   1060c:	0c010fa3          	sb	zero,223(sp)
   10610:	fff00b93          	li	s7,-1
   10614:	00000993          	li	s3,0
   10618:	00000493          	li	s1,0
   1061c:	00900a13          	li	s4,9
   10620:	02a00b13          	li	s6,42
   10624:	00030c93          	mv	s9,t1
   10628:	00190913          	addi	s2,s2,1
   1062c:	0004041b          	sext.w	s0,s0
   10630:	05a00693          	li	a3,90
   10634:	fe04079b          	addiw	a5,s0,-32
   10638:	0007871b          	sext.w	a4,a5
   1063c:	20e6ea63          	bltu	a3,a4,10850 <_vfprintf_r+0x3e4>
   10640:	02079793          	slli	a5,a5,0x20
   10644:	00011717          	auipc	a4,0x11
   10648:	b7470713          	addi	a4,a4,-1164 # 211b8 <__clzdi2+0x70>
   1064c:	01e7d793          	srli	a5,a5,0x1e
   10650:	00e787b3          	add	a5,a5,a4
   10654:	0007a783          	lw	a5,0(a5) # 2000 <register_fini-0xe0b0>
   10658:	00e787b3          	add	a5,a5,a4
   1065c:	00078067          	jr	a5
   10660:	0104e493          	ori	s1,s1,16
   10664:	0004849b          	sext.w	s1,s1
   10668:	00094403          	lbu	s0,0(s2)
   1066c:	fbdff06f          	j	10628 <_vfprintf_r+0x1bc>
   10670:	00013583          	ld	a1,0(sp)
   10674:	03013503          	ld	a0,48(sp)
   10678:	628020ef          	jal	ra,12ca0 <__swsetup_r>
   1067c:	00050463          	beqz	a0,10684 <_vfprintf_r+0x218>
   10680:	1b40206f          	j	12834 <_vfprintf_r+0x23c8>
   10684:	00013783          	ld	a5,0(sp)
   10688:	00a00693          	li	a3,10
   1068c:	0107d783          	lhu	a5,16(a5)
   10690:	01a7f793          	andi	a5,a5,26
   10694:	ead798e3          	bne	a5,a3,10544 <_vfprintf_r+0xd8>
   10698:	00013783          	ld	a5,0(sp)
   1069c:	01279783          	lh	a5,18(a5)
   106a0:	ea07c2e3          	bltz	a5,10544 <_vfprintf_r+0xd8>
   106a4:	01013683          	ld	a3,16(sp)
   106a8:	00013583          	ld	a1,0(sp)
   106ac:	03013503          	ld	a0,48(sp)
   106b0:	000b0613          	mv	a2,s6
   106b4:	52c020ef          	jal	ra,12be0 <__sbprintf>
   106b8:	00a13423          	sd	a0,8(sp)
   106bc:	0680006f          	j	10724 <_vfprintf_r+0x2b8>
   106c0:	41b4893b          	subw	s2,s1,s11
   106c4:	f40900e3          	beqz	s2,10604 <_vfprintf_r+0x198>
   106c8:	ef9ff06f          	j	105c0 <_vfprintf_r+0x154>
   106cc:	00013583          	ld	a1,0(sp)
   106d0:	11010613          	addi	a2,sp,272
   106d4:	000a8513          	mv	a0,s5
   106d8:	62d0a0ef          	jal	ra,1b504 <__sprint_r>
   106dc:	02051a63          	bnez	a0,10710 <_vfprintf_r+0x2a4>
   106e0:	19010313          	addi	t1,sp,400
   106e4:	f0dff06f          	j	105f0 <_vfprintf_r+0x184>
   106e8:	00013583          	ld	a1,0(sp)
   106ec:	11010613          	addi	a2,sp,272
   106f0:	000a8513          	mv	a0,s5
   106f4:	6110a0ef          	jal	ra,1b504 <__sprint_r>
   106f8:	060502e3          	beqz	a0,10f5c <_vfprintf_r+0xaf0>
   106fc:	01813783          	ld	a5,24(sp)
   10700:	00078863          	beqz	a5,10710 <_vfprintf_r+0x2a4>
   10704:	03013503          	ld	a0,48(sp)
   10708:	00078593          	mv	a1,a5
   1070c:	050030ef          	jal	ra,1375c <_free_r>
   10710:	00013783          	ld	a5,0(sp)
   10714:	0107d783          	lhu	a5,16(a5)
   10718:	0407f793          	andi	a5,a5,64
   1071c:	00078463          	beqz	a5,10724 <_vfprintf_r+0x2b8>
   10720:	1140206f          	j	12834 <_vfprintf_r+0x23c8>
   10724:	27813083          	ld	ra,632(sp)
   10728:	27013403          	ld	s0,624(sp)
   1072c:	00813503          	ld	a0,8(sp)
   10730:	26813483          	ld	s1,616(sp)
   10734:	26013903          	ld	s2,608(sp)
   10738:	25813983          	ld	s3,600(sp)
   1073c:	25013a03          	ld	s4,592(sp)
   10740:	24813a83          	ld	s5,584(sp)
   10744:	24013b03          	ld	s6,576(sp)
   10748:	23813b83          	ld	s7,568(sp)
   1074c:	23013c03          	ld	s8,560(sp)
   10750:	22813c83          	ld	s9,552(sp)
   10754:	22013d03          	ld	s10,544(sp)
   10758:	21813d83          	ld	s11,536(sp)
   1075c:	28010113          	addi	sp,sp,640
   10760:	00008067          	ret
   10764:	01013683          	ld	a3,16(sp)
   10768:	00011797          	auipc	a5,0x11
   1076c:	c3878793          	addi	a5,a5,-968 # 213a0 <zeroes.4539+0x68>
   10770:	04f13823          	sd	a5,80(sp)
   10774:	0204f793          	andi	a5,s1,32
   10778:	000c8313          	mv	t1,s9
   1077c:	00868713          	addi	a4,a3,8
   10780:	10078863          	beqz	a5,10890 <_vfprintf_r+0x424>
   10784:	0006bb03          	ld	s6,0(a3)
   10788:	0014f793          	andi	a5,s1,1
   1078c:	00078e63          	beqz	a5,107a8 <_vfprintf_r+0x33c>
   10790:	000b0c63          	beqz	s6,107a8 <_vfprintf_r+0x33c>
   10794:	0024e493          	ori	s1,s1,2
   10798:	03000793          	li	a5,48
   1079c:	0ef10023          	sb	a5,224(sp)
   107a0:	0e8100a3          	sb	s0,225(sp)
   107a4:	0004849b          	sext.w	s1,s1
   107a8:	bff4f813          	andi	a6,s1,-1025
   107ac:	00080a1b          	sext.w	s4,a6
   107b0:	00e13823          	sd	a4,16(sp)
   107b4:	00200793          	li	a5,2
   107b8:	0c010fa3          	sb	zero,223(sp)
   107bc:	fff00713          	li	a4,-1
   107c0:	5eeb8e63          	beq	s7,a4,10dbc <_vfprintf_r+0x950>
   107c4:	f7fa7493          	andi	s1,s4,-129
   107c8:	0004849b          	sext.w	s1,s1
   107cc:	6c0b16e3          	bnez	s6,11698 <_vfprintf_r+0x122c>
   107d0:	000b8463          	beqz	s7,107d8 <_vfprintf_r+0x36c>
   107d4:	0bc0106f          	j	11890 <_vfprintf_r+0x1424>
   107d8:	52079663          	bnez	a5,10d04 <_vfprintf_r+0x898>
   107dc:	001a7c93          	andi	s9,s4,1
   107e0:	18c10d93          	addi	s11,sp,396
   107e4:	000c8463          	beqz	s9,107ec <_vfprintf_r+0x380>
   107e8:	2f40106f          	j	11adc <_vfprintf_r+0x1670>
   107ec:	000c8a1b          	sext.w	s4,s9
   107f0:	017cd463          	bge	s9,s7,107f8 <_vfprintf_r+0x38c>
   107f4:	000b8a1b          	sext.w	s4,s7
   107f8:	0df14783          	lbu	a5,223(sp)
   107fc:	00013c23          	sd	zero,24(sp)
   10800:	04013023          	sd	zero,64(sp)
   10804:	02013c23          	sd	zero,56(sp)
   10808:	02013023          	sd	zero,32(sp)
   1080c:	64078663          	beqz	a5,10e58 <_vfprintf_r+0x9ec>
   10810:	001a0a1b          	addiw	s4,s4,1
   10814:	6440006f          	j	10e58 <_vfprintf_r+0x9ec>
   10818:	00000993          	li	s3,0
   1081c:	00190913          	addi	s2,s2,1
   10820:	fff94703          	lbu	a4,-1(s2)
   10824:	0029979b          	slliw	a5,s3,0x2
   10828:	013787bb          	addw	a5,a5,s3
   1082c:	fd04041b          	addiw	s0,s0,-48
   10830:	0017979b          	slliw	a5,a5,0x1
   10834:	fd07061b          	addiw	a2,a4,-48
   10838:	00f409bb          	addw	s3,s0,a5
   1083c:	0007041b          	sext.w	s0,a4
   10840:	fcca7ee3          	bgeu	s4,a2,1081c <_vfprintf_r+0x3b0>
   10844:	fe04079b          	addiw	a5,s0,-32
   10848:	0007871b          	sext.w	a4,a5
   1084c:	dee6fae3          	bgeu	a3,a4,10640 <_vfprintf_r+0x1d4>
   10850:	000c8313          	mv	t1,s9
   10854:	72040863          	beqz	s0,10f84 <_vfprintf_r+0xb18>
   10858:	12810423          	sb	s0,296(sp)
   1085c:	0c010fa3          	sb	zero,223(sp)
   10860:	00100a13          	li	s4,1
   10864:	00100c93          	li	s9,1
   10868:	12810d93          	addi	s11,sp,296
   1086c:	5d80006f          	j	10e44 <_vfprintf_r+0x9d8>
   10870:	01013683          	ld	a3,16(sp)
   10874:	00011797          	auipc	a5,0x11
   10878:	b4478793          	addi	a5,a5,-1212 # 213b8 <zeroes.4539+0x80>
   1087c:	04f13823          	sd	a5,80(sp)
   10880:	0204f793          	andi	a5,s1,32
   10884:	000c8313          	mv	t1,s9
   10888:	00868713          	addi	a4,a3,8
   1088c:	ee079ce3          	bnez	a5,10784 <_vfprintf_r+0x318>
   10890:	0104f793          	andi	a5,s1,16
   10894:	00078463          	beqz	a5,1089c <_vfprintf_r+0x430>
   10898:	26c0106f          	j	11b04 <_vfprintf_r+0x1698>
   1089c:	01013683          	ld	a3,16(sp)
   108a0:	0404f793          	andi	a5,s1,64
   108a4:	0006ab03          	lw	s6,0(a3)
   108a8:	00079463          	bnez	a5,108b0 <_vfprintf_r+0x444>
   108ac:	66c0106f          	j	11f18 <_vfprintf_r+0x1aac>
   108b0:	030b1b13          	slli	s6,s6,0x30
   108b4:	030b5b13          	srli	s6,s6,0x30
   108b8:	ed1ff06f          	j	10788 <_vfprintf_r+0x31c>
   108bc:	00094403          	lbu	s0,0(s2)
   108c0:	0044e493          	ori	s1,s1,4
   108c4:	0004849b          	sext.w	s1,s1
   108c8:	d61ff06f          	j	10628 <_vfprintf_r+0x1bc>
   108cc:	00094403          	lbu	s0,0(s2)
   108d0:	06800793          	li	a5,104
   108d4:	00f41463          	bne	s0,a5,108dc <_vfprintf_r+0x470>
   108d8:	2e40106f          	j	11bbc <_vfprintf_r+0x1750>
   108dc:	0404e493          	ori	s1,s1,64
   108e0:	0004849b          	sext.w	s1,s1
   108e4:	d45ff06f          	j	10628 <_vfprintf_r+0x1bc>
   108e8:	0084f793          	andi	a5,s1,8
   108ec:	000c8313          	mv	t1,s9
   108f0:	00079463          	bnez	a5,108f8 <_vfprintf_r+0x48c>
   108f4:	22c0106f          	j	11b20 <_vfprintf_r+0x16b4>
   108f8:	01013783          	ld	a5,16(sp)
   108fc:	00f78793          	addi	a5,a5,15
   10900:	ff07f793          	andi	a5,a5,-16
   10904:	0007b683          	ld	a3,0(a5)
   10908:	0087b703          	ld	a4,8(a5)
   1090c:	01078793          	addi	a5,a5,16
   10910:	00f13823          	sd	a5,16(sp)
   10914:	10d13023          	sd	a3,256(sp)
   10918:	10e13423          	sd	a4,264(sp)
   1091c:	10010513          	addi	a0,sp,256
   10920:	00613c23          	sd	t1,24(sp)
   10924:	69d050ef          	jal	ra,167c0 <_ldcheck>
   10928:	0ea12423          	sw	a0,232(sp)
   1092c:	00200793          	li	a5,2
   10930:	01813303          	ld	t1,24(sp)
   10934:	00f51463          	bne	a0,a5,1093c <_vfprintf_r+0x4d0>
   10938:	4e40106f          	j	11e1c <_vfprintf_r+0x19b0>
   1093c:	00100793          	li	a5,1
   10940:	00f51463          	bne	a0,a5,10948 <_vfprintf_r+0x4dc>
   10944:	5e40106f          	j	11f28 <_vfprintf_r+0x1abc>
   10948:	06100793          	li	a5,97
   1094c:	00f41463          	bne	s0,a5,10954 <_vfprintf_r+0x4e8>
   10950:	7fd0106f          	j	1294c <_vfprintf_r+0x24e0>
   10954:	04100793          	li	a5,65
   10958:	00f41463          	bne	s0,a5,10960 <_vfprintf_r+0x4f4>
   1095c:	12d0106f          	j	12288 <_vfprintf_r+0x1e1c>
   10960:	fdf47713          	andi	a4,s0,-33
   10964:	fff00793          	li	a5,-1
   10968:	02e13c23          	sd	a4,56(sp)
   1096c:	00fb9463          	bne	s7,a5,10974 <_vfprintf_r+0x508>
   10970:	7fd0106f          	j	1296c <_vfprintf_r+0x2500>
   10974:	04700793          	li	a5,71
   10978:	00f71463          	bne	a4,a5,10980 <_vfprintf_r+0x514>
   1097c:	7e10106f          	j	1295c <_vfprintf_r+0x24f0>
   10980:	10813c83          	ld	s9,264(sp)
   10984:	1004e793          	ori	a5,s1,256
   10988:	04913023          	sd	s1,64(sp)
   1098c:	0007879b          	sext.w	a5,a5
   10990:	10013e83          	ld	t4,256(sp)
   10994:	000cd463          	bgez	s9,1099c <_vfprintf_r+0x530>
   10998:	4c10106f          	j	12658 <_vfprintf_r+0x21ec>
   1099c:	06013023          	sd	zero,96(sp)
   109a0:	00078493          	mv	s1,a5
   109a4:	00013c23          	sd	zero,24(sp)
   109a8:	03813703          	ld	a4,56(sp)
   109ac:	04600793          	li	a5,70
   109b0:	00f71463          	bne	a4,a5,109b8 <_vfprintf_r+0x54c>
   109b4:	4050106f          	j	125b8 <_vfprintf_r+0x214c>
   109b8:	04500793          	li	a5,69
   109bc:	02613423          	sd	t1,40(sp)
   109c0:	00f71463          	bne	a4,a5,109c8 <_vfprintf_r+0x55c>
   109c4:	7250106f          	j	128e8 <_vfprintf_r+0x247c>
   109c8:	0e810793          	addi	a5,sp,232
   109cc:	000b8713          	mv	a4,s7
   109d0:	000e8593          	mv	a1,t4
   109d4:	0f810893          	addi	a7,sp,248
   109d8:	0ec10813          	addi	a6,sp,236
   109dc:	00200693          	li	a3,2
   109e0:	000c8613          	mv	a2,s9
   109e4:	000a8513          	mv	a0,s5
   109e8:	03d13023          	sd	t4,32(sp)
   109ec:	2b5040ef          	jal	ra,154a0 <_ldtoa_r>
   109f0:	03813703          	ld	a4,56(sp)
   109f4:	04700793          	li	a5,71
   109f8:	00050d93          	mv	s11,a0
   109fc:	02013e83          	ld	t4,32(sp)
   10a00:	02813303          	ld	t1,40(sp)
   10a04:	00f70463          	beq	a4,a5,10a0c <_vfprintf_r+0x5a0>
   10a08:	1a80206f          	j	12bb0 <_vfprintf_r+0x2744>
   10a0c:	04013783          	ld	a5,64(sp)
   10a10:	01750a33          	add	s4,a0,s7
   10a14:	0017f793          	andi	a5,a5,1
   10a18:	00078463          	beqz	a5,10a20 <_vfprintf_r+0x5b4>
   10a1c:	3ed0106f          	j	12608 <_vfprintf_r+0x219c>
   10a20:	0f813783          	ld	a5,248(sp)
   10a24:	41b787bb          	subw	a5,a5,s11
   10a28:	02f13423          	sd	a5,40(sp)
   10a2c:	0e812703          	lw	a4,232(sp)
   10a30:	04700793          	li	a5,71
   10a34:	02e13023          	sd	a4,32(sp)
   10a38:	03813703          	ld	a4,56(sp)
   10a3c:	00f71463          	bne	a4,a5,10a44 <_vfprintf_r+0x5d8>
   10a40:	2ed0106f          	j	1252c <_vfprintf_r+0x20c0>
   10a44:	03813703          	ld	a4,56(sp)
   10a48:	04600793          	li	a5,70
   10a4c:	00f71463          	bne	a4,a5,10a54 <_vfprintf_r+0x5e8>
   10a50:	5550106f          	j	127a4 <_vfprintf_r+0x2338>
   10a54:	02013783          	ld	a5,32(sp)
   10a58:	03813703          	ld	a4,56(sp)
   10a5c:	04100613          	li	a2,65
   10a60:	fff78a1b          	addiw	s4,a5,-1
   10a64:	0f412423          	sw	s4,232(sp)
   10a68:	0ff47793          	andi	a5,s0,255
   10a6c:	00000693          	li	a3,0
   10a70:	00c71863          	bne	a4,a2,10a80 <_vfprintf_r+0x614>
   10a74:	00f7879b          	addiw	a5,a5,15
   10a78:	0ff7f793          	andi	a5,a5,255
   10a7c:	00100693          	li	a3,1
   10a80:	0ef10823          	sb	a5,240(sp)
   10a84:	02b00793          	li	a5,43
   10a88:	000a5a63          	bgez	s4,10a9c <_vfprintf_r+0x630>
   10a8c:	02013783          	ld	a5,32(sp)
   10a90:	00100a13          	li	s4,1
   10a94:	40fa0a3b          	subw	s4,s4,a5
   10a98:	02d00793          	li	a5,45
   10a9c:	0ef108a3          	sb	a5,241(sp)
   10aa0:	00900793          	li	a5,9
   10aa4:	0147c463          	blt	a5,s4,10aac <_vfprintf_r+0x640>
   10aa8:	0280206f          	j	12ad0 <_vfprintf_r+0x2664>
   10aac:	0ff10b13          	addi	s6,sp,255
   10ab0:	000b0c93          	mv	s9,s6
   10ab4:	06300493          	li	s1,99
   10ab8:	00030b93          	mv	s7,t1
   10abc:	00c0006f          	j	10ac8 <_vfprintf_r+0x65c>
   10ac0:	00060c93          	mv	s9,a2
   10ac4:	00050a13          	mv	s4,a0
   10ac8:	00a00593          	li	a1,10
   10acc:	000a0513          	mv	a0,s4
   10ad0:	63c100ef          	jal	ra,2110c <__moddi3>
   10ad4:	0305051b          	addiw	a0,a0,48
   10ad8:	feac8fa3          	sb	a0,-1(s9)
   10adc:	00a00593          	li	a1,10
   10ae0:	000a0513          	mv	a0,s4
   10ae4:	5a4100ef          	jal	ra,21088 <__divdi3>
   10ae8:	fffc8613          	addi	a2,s9,-1
   10aec:	0005051b          	sext.w	a0,a0
   10af0:	fd44c8e3          	blt	s1,s4,10ac0 <_vfprintf_r+0x654>
   10af4:	0305079b          	addiw	a5,a0,48
   10af8:	0ff7f793          	andi	a5,a5,255
   10afc:	ffec8693          	addi	a3,s9,-2
   10b00:	fef60fa3          	sb	a5,-1(a2)
   10b04:	000b8313          	mv	t1,s7
   10b08:	0166e463          	bltu	a3,s6,10b10 <_vfprintf_r+0x6a4>
   10b0c:	0b00206f          	j	12bbc <_vfprintf_r+0x2750>
   10b10:	0f210613          	addi	a2,sp,242
   10b14:	0080006f          	j	10b1c <_vfprintf_r+0x6b0>
   10b18:	0006c783          	lbu	a5,0(a3)
   10b1c:	00160613          	addi	a2,a2,1
   10b20:	00168693          	addi	a3,a3,1
   10b24:	fef60fa3          	sb	a5,-1(a2)
   10b28:	ff6698e3          	bne	a3,s6,10b18 <_vfprintf_r+0x6ac>
   10b2c:	10110793          	addi	a5,sp,257
   10b30:	419787b3          	sub	a5,a5,s9
   10b34:	0f210713          	addi	a4,sp,242
   10b38:	00f707b3          	add	a5,a4,a5
   10b3c:	0f010693          	addi	a3,sp,240
   10b40:	40d787bb          	subw	a5,a5,a3
   10b44:	06f13423          	sd	a5,104(sp)
   10b48:	06813783          	ld	a5,104(sp)
   10b4c:	02813703          	ld	a4,40(sp)
   10b50:	00100693          	li	a3,1
   10b54:	00f70cbb          	addw	s9,a4,a5
   10b58:	000c8793          	mv	a5,s9
   10b5c:	00e6c463          	blt	a3,a4,10b64 <_vfprintf_r+0x6f8>
   10b60:	7c10106f          	j	12b20 <_vfprintf_r+0x26b4>
   10b64:	04813703          	ld	a4,72(sp)
   10b68:	00e78cbb          	addw	s9,a5,a4
   10b6c:	04013783          	ld	a5,64(sp)
   10b70:	fffcca13          	not	s4,s9
   10b74:	43fa5a13          	srai	s4,s4,0x3f
   10b78:	bff7f493          	andi	s1,a5,-1025
   10b7c:	0004849b          	sext.w	s1,s1
   10b80:	014cfa33          	and	s4,s9,s4
   10b84:	1004e493          	ori	s1,s1,256
   10b88:	000a0a1b          	sext.w	s4,s4
   10b8c:	04013023          	sd	zero,64(sp)
   10b90:	02013c23          	sd	zero,56(sp)
   10b94:	02013023          	sd	zero,32(sp)
   10b98:	06013783          	ld	a5,96(sp)
   10b9c:	00079463          	bnez	a5,10ba4 <_vfprintf_r+0x738>
   10ba0:	2050106f          	j	125a4 <_vfprintf_r+0x2138>
   10ba4:	02d00793          	li	a5,45
   10ba8:	0cf10fa3          	sb	a5,223(sp)
   10bac:	00000b93          	li	s7,0
   10bb0:	001a0a1b          	addiw	s4,s4,1
   10bb4:	2a40006f          	j	10e58 <_vfprintf_r+0x9ec>
   10bb8:	01013783          	ld	a5,16(sp)
   10bbc:	0104e813          	ori	a6,s1,16
   10bc0:	000c8313          	mv	t1,s9
   10bc4:	00080a1b          	sext.w	s4,a6
   10bc8:	00878713          	addi	a4,a5,8
   10bcc:	01013783          	ld	a5,16(sp)
   10bd0:	0007bb03          	ld	s6,0(a5)
   10bd4:	00100793          	li	a5,1
   10bd8:	00e13823          	sd	a4,16(sp)
   10bdc:	bddff06f          	j	107b8 <_vfprintf_r+0x34c>
   10be0:	01013783          	ld	a5,16(sp)
   10be4:	0c010fa3          	sb	zero,223(sp)
   10be8:	000c8313          	mv	t1,s9
   10bec:	0007bd83          	ld	s11,0(a5)
   10bf0:	00878b13          	addi	s6,a5,8
   10bf4:	000d9463          	bnez	s11,10bfc <_vfprintf_r+0x790>
   10bf8:	7fd0006f          	j	11bf4 <_vfprintf_r+0x1788>
   10bfc:	fff00793          	li	a5,-1
   10c00:	00fb9463          	bne	s7,a5,10c08 <_vfprintf_r+0x79c>
   10c04:	2780106f          	j	11e7c <_vfprintf_r+0x1a10>
   10c08:	000b8613          	mv	a2,s7
   10c0c:	00000593          	li	a1,0
   10c10:	000d8513          	mv	a0,s11
   10c14:	01913823          	sd	s9,16(sp)
   10c18:	768060ef          	jal	ra,17380 <memchr>
   10c1c:	00a13c23          	sd	a0,24(sp)
   10c20:	01013303          	ld	t1,16(sp)
   10c24:	00051463          	bnez	a0,10c2c <_vfprintf_r+0x7c0>
   10c28:	2e90106f          	j	12710 <_vfprintf_r+0x22a4>
   10c2c:	01813783          	ld	a5,24(sp)
   10c30:	01613823          	sd	s6,16(sp)
   10c34:	00013c23          	sd	zero,24(sp)
   10c38:	41b78cbb          	subw	s9,a5,s11
   10c3c:	fffcca13          	not	s4,s9
   10c40:	0df14783          	lbu	a5,223(sp)
   10c44:	43fa5a13          	srai	s4,s4,0x3f
   10c48:	014cfa33          	and	s4,s9,s4
   10c4c:	04013023          	sd	zero,64(sp)
   10c50:	02013c23          	sd	zero,56(sp)
   10c54:	02013023          	sd	zero,32(sp)
   10c58:	000a0a1b          	sext.w	s4,s4
   10c5c:	00000b93          	li	s7,0
   10c60:	ba0798e3          	bnez	a5,10810 <_vfprintf_r+0x3a4>
   10c64:	1f40006f          	j	10e58 <_vfprintf_r+0x9ec>
   10c68:	01013703          	ld	a4,16(sp)
   10c6c:	0104e813          	ori	a6,s1,16
   10c70:	000c8313          	mv	t1,s9
   10c74:	0008049b          	sext.w	s1,a6
   10c78:	00870713          	addi	a4,a4,8
   10c7c:	01013783          	ld	a5,16(sp)
   10c80:	0007bb03          	ld	s6,0(a5)
   10c84:	00e13823          	sd	a4,16(sp)
   10c88:	bff4f813          	andi	a6,s1,-1025
   10c8c:	00080a1b          	sext.w	s4,a6
   10c90:	00000793          	li	a5,0
   10c94:	b25ff06f          	j	107b8 <_vfprintf_r+0x34c>
   10c98:	0084e493          	ori	s1,s1,8
   10c9c:	0004849b          	sext.w	s1,s1
   10ca0:	00094403          	lbu	s0,0(s2)
   10ca4:	985ff06f          	j	10628 <_vfprintf_r+0x1bc>
   10ca8:	01013703          	ld	a4,16(sp)
   10cac:	0204f793          	andi	a5,s1,32
   10cb0:	000c8313          	mv	t1,s9
   10cb4:	00870713          	addi	a4,a4,8
   10cb8:	660790e3          	bnez	a5,11b18 <_vfprintf_r+0x16ac>
   10cbc:	0104f793          	andi	a5,s1,16
   10cc0:	64079ce3          	bnez	a5,11b18 <_vfprintf_r+0x16ac>
   10cc4:	0404f793          	andi	a5,s1,64
   10cc8:	00079463          	bnez	a5,10cd0 <_vfprintf_r+0x864>
   10ccc:	22c0106f          	j	11ef8 <_vfprintf_r+0x1a8c>
   10cd0:	01013783          	ld	a5,16(sp)
   10cd4:	00048a13          	mv	s4,s1
   10cd8:	00e13823          	sd	a4,16(sp)
   10cdc:	00079b03          	lh	s6,0(a5)
   10ce0:	000b0793          	mv	a5,s6
   10ce4:	0c07c063          	bltz	a5,10da4 <_vfprintf_r+0x938>
   10ce8:	fff00793          	li	a5,-1
   10cec:	56fb8063          	beq	s7,a5,1124c <_vfprintf_r+0xde0>
   10cf0:	f7fa7813          	andi	a6,s4,-129
   10cf4:	0008049b          	sext.w	s1,a6
   10cf8:	540b1863          	bnez	s6,11248 <_vfprintf_r+0xddc>
   10cfc:	000b8463          	beqz	s7,10d04 <_vfprintf_r+0x898>
   10d00:	7f80106f          	j	124f8 <_vfprintf_r+0x208c>
   10d04:	00000b93          	li	s7,0
   10d08:	00000c93          	li	s9,0
   10d0c:	18c10d93          	addi	s11,sp,396
   10d10:	addff06f          	j	107ec <_vfprintf_r+0x380>
   10d14:	02b00793          	li	a5,43
   10d18:	0cf10fa3          	sb	a5,223(sp)
   10d1c:	00094403          	lbu	s0,0(s2)
   10d20:	909ff06f          	j	10628 <_vfprintf_r+0x1bc>
   10d24:	0804e493          	ori	s1,s1,128
   10d28:	0004849b          	sext.w	s1,s1
   10d2c:	00094403          	lbu	s0,0(s2)
   10d30:	8f9ff06f          	j	10628 <_vfprintf_r+0x1bc>
   10d34:	00094403          	lbu	s0,0(s2)
   10d38:	00190793          	addi	a5,s2,1
   10d3c:	01641463          	bne	s0,s6,10d44 <_vfprintf_r+0x8d8>
   10d40:	6390106f          	j	12b78 <_vfprintf_r+0x270c>
   10d44:	fd04071b          	addiw	a4,s0,-48
   10d48:	00078913          	mv	s2,a5
   10d4c:	00000b93          	li	s7,0
   10d50:	8eea62e3          	bltu	s4,a4,10634 <_vfprintf_r+0x1c8>
   10d54:	00190913          	addi	s2,s2,1
   10d58:	002b979b          	slliw	a5,s7,0x2
   10d5c:	fff94603          	lbu	a2,-1(s2)
   10d60:	017787bb          	addw	a5,a5,s7
   10d64:	0017979b          	slliw	a5,a5,0x1
   10d68:	00e78bbb          	addw	s7,a5,a4
   10d6c:	fd06071b          	addiw	a4,a2,-48
   10d70:	feea72e3          	bgeu	s4,a4,10d54 <_vfprintf_r+0x8e8>
   10d74:	00060413          	mv	s0,a2
   10d78:	8bdff06f          	j	10634 <_vfprintf_r+0x1c8>
   10d7c:	01013783          	ld	a5,16(sp)
   10d80:	0104e813          	ori	a6,s1,16
   10d84:	000c8313          	mv	t1,s9
   10d88:	00080a1b          	sext.w	s4,a6
   10d8c:	00878713          	addi	a4,a5,8
   10d90:	01013783          	ld	a5,16(sp)
   10d94:	0007b783          	ld	a5,0(a5)
   10d98:	00e13823          	sd	a4,16(sp)
   10d9c:	00078b13          	mv	s6,a5
   10da0:	f407d4e3          	bgez	a5,10ce8 <_vfprintf_r+0x87c>
   10da4:	02d00793          	li	a5,45
   10da8:	0cf10fa3          	sb	a5,223(sp)
   10dac:	fff00713          	li	a4,-1
   10db0:	41600b33          	neg	s6,s6
   10db4:	00100793          	li	a5,1
   10db8:	a0eb96e3          	bne	s7,a4,107c4 <_vfprintf_r+0x358>
   10dbc:	00100713          	li	a4,1
   10dc0:	48e78663          	beq	a5,a4,1124c <_vfprintf_r+0xde0>
   10dc4:	00200713          	li	a4,2
   10dc8:	2ce78ee3          	beq	a5,a4,118a4 <_vfprintf_r+0x1438>
   10dcc:	18c10c93          	addi	s9,sp,396
   10dd0:	000c8693          	mv	a3,s9
   10dd4:	0080006f          	j	10ddc <_vfprintf_r+0x970>
   10dd8:	000d8693          	mv	a3,s11
   10ddc:	007b7793          	andi	a5,s6,7
   10de0:	03078793          	addi	a5,a5,48
   10de4:	fef68fa3          	sb	a5,-1(a3)
   10de8:	003b5b13          	srli	s6,s6,0x3
   10dec:	fff68d93          	addi	s11,a3,-1
   10df0:	fe0b14e3          	bnez	s6,10dd8 <_vfprintf_r+0x96c>
   10df4:	001a7613          	andi	a2,s4,1
   10df8:	4a060463          	beqz	a2,112a0 <_vfprintf_r+0xe34>
   10dfc:	03000613          	li	a2,48
   10e00:	4ac78063          	beq	a5,a2,112a0 <_vfprintf_r+0xe34>
   10e04:	ffe68693          	addi	a3,a3,-2
   10e08:	fecd8fa3          	sb	a2,-1(s11)
   10e0c:	40dc8cbb          	subw	s9,s9,a3
   10e10:	000a0493          	mv	s1,s4
   10e14:	00068d93          	mv	s11,a3
   10e18:	9d5ff06f          	j	107ec <_vfprintf_r+0x380>
   10e1c:	01013703          	ld	a4,16(sp)
   10e20:	000c8313          	mv	t1,s9
   10e24:	0c010fa3          	sb	zero,223(sp)
   10e28:	00072783          	lw	a5,0(a4)
   10e2c:	00870713          	addi	a4,a4,8
   10e30:	00e13823          	sd	a4,16(sp)
   10e34:	12f10423          	sb	a5,296(sp)
   10e38:	00100a13          	li	s4,1
   10e3c:	00100c93          	li	s9,1
   10e40:	12810d93          	addi	s11,sp,296
   10e44:	00013c23          	sd	zero,24(sp)
   10e48:	00000b93          	li	s7,0
   10e4c:	04013023          	sd	zero,64(sp)
   10e50:	02013c23          	sd	zero,56(sp)
   10e54:	02013023          	sd	zero,32(sp)
   10e58:	0024fe93          	andi	t4,s1,2
   10e5c:	000e8e9b          	sext.w	t4,t4
   10e60:	000e8463          	beqz	t4,10e68 <_vfprintf_r+0x9fc>
   10e64:	002a0a1b          	addiw	s4,s4,2
   10e68:	0844ff13          	andi	t5,s1,132
   10e6c:	12013783          	ld	a5,288(sp)
   10e70:	000f1663          	bnez	t5,10e7c <_vfprintf_r+0xa10>
   10e74:	4149883b          	subw	a6,s3,s4
   10e78:	030044e3          	bgtz	a6,116a0 <_vfprintf_r+0x1234>
   10e7c:	0df14683          	lbu	a3,223(sp)
   10e80:	02068c63          	beqz	a3,10eb8 <_vfprintf_r+0xa4c>
   10e84:	11812683          	lw	a3,280(sp)
   10e88:	0df10613          	addi	a2,sp,223
   10e8c:	00c33023          	sd	a2,0(t1)
   10e90:	0016869b          	addiw	a3,a3,1
   10e94:	00100613          	li	a2,1
   10e98:	00178793          	addi	a5,a5,1
   10e9c:	00c33423          	sd	a2,8(t1)
   10ea0:	10d12c23          	sw	a3,280(sp)
   10ea4:	0006861b          	sext.w	a2,a3
   10ea8:	12f13023          	sd	a5,288(sp)
   10eac:	00700693          	li	a3,7
   10eb0:	01030313          	addi	t1,t1,16
   10eb4:	0ec6c663          	blt	a3,a2,10fa0 <_vfprintf_r+0xb34>
   10eb8:	020e8c63          	beqz	t4,10ef0 <_vfprintf_r+0xa84>
   10ebc:	11812683          	lw	a3,280(sp)
   10ec0:	0e010613          	addi	a2,sp,224
   10ec4:	00c33023          	sd	a2,0(t1)
   10ec8:	0016869b          	addiw	a3,a3,1
   10ecc:	00200613          	li	a2,2
   10ed0:	00278793          	addi	a5,a5,2
   10ed4:	00c33423          	sd	a2,8(t1)
   10ed8:	10d12c23          	sw	a3,280(sp)
   10edc:	0006861b          	sext.w	a2,a3
   10ee0:	12f13023          	sd	a5,288(sp)
   10ee4:	00700693          	li	a3,7
   10ee8:	01030313          	addi	t1,t1,16
   10eec:	0cc6c4e3          	blt	a3,a2,117b4 <_vfprintf_r+0x1348>
   10ef0:	08000693          	li	a3,128
   10ef4:	4edf0063          	beq	t5,a3,113d4 <_vfprintf_r+0xf68>
   10ef8:	419b8bbb          	subw	s7,s7,s9
   10efc:	5b704e63          	bgtz	s7,114b8 <_vfprintf_r+0x104c>
   10f00:	1004f693          	andi	a3,s1,256
   10f04:	3a069463          	bnez	a3,112ac <_vfprintf_r+0xe40>
   10f08:	11812703          	lw	a4,280(sp)
   10f0c:	019787b3          	add	a5,a5,s9
   10f10:	01b33023          	sd	s11,0(t1)
   10f14:	0017069b          	addiw	a3,a4,1
   10f18:	01933423          	sd	s9,8(t1)
   10f1c:	12f13023          	sd	a5,288(sp)
   10f20:	10d12c23          	sw	a3,280(sp)
   10f24:	00700713          	li	a4,7
   10f28:	12d74463          	blt	a4,a3,11050 <_vfprintf_r+0xbe4>
   10f2c:	01030313          	addi	t1,t1,16
   10f30:	0044f493          	andi	s1,s1,4
   10f34:	00048663          	beqz	s1,10f40 <_vfprintf_r+0xad4>
   10f38:	4149843b          	subw	s0,s3,s4
   10f3c:	0a8042e3          	bgtz	s0,117e0 <_vfprintf_r+0x1374>
   10f40:	00098713          	mv	a4,s3
   10f44:	0149d463          	bge	s3,s4,10f4c <_vfprintf_r+0xae0>
   10f48:	000a0713          	mv	a4,s4
   10f4c:	00813683          	ld	a3,8(sp)
   10f50:	00d7073b          	addw	a4,a4,a3
   10f54:	00e13423          	sd	a4,8(sp)
   10f58:	f8079863          	bnez	a5,106e8 <_vfprintf_r+0x27c>
   10f5c:	01813783          	ld	a5,24(sp)
   10f60:	10012c23          	sw	zero,280(sp)
   10f64:	00078863          	beqz	a5,10f74 <_vfprintf_r+0xb08>
   10f68:	01813583          	ld	a1,24(sp)
   10f6c:	000a8513          	mv	a0,s5
   10f70:	7ec020ef          	jal	ra,1375c <_free_r>
   10f74:	19010313          	addi	t1,sp,400
   10f78:	00090d93          	mv	s11,s2
   10f7c:	000dc783          	lbu	a5,0(s11)
   10f80:	e0079863          	bnez	a5,10590 <_vfprintf_r+0x124>
   10f84:	12013783          	ld	a5,288(sp)
   10f88:	f8078463          	beqz	a5,10710 <_vfprintf_r+0x2a4>
   10f8c:	00013583          	ld	a1,0(sp)
   10f90:	03013503          	ld	a0,48(sp)
   10f94:	11010613          	addi	a2,sp,272
   10f98:	56c0a0ef          	jal	ra,1b504 <__sprint_r>
   10f9c:	f74ff06f          	j	10710 <_vfprintf_r+0x2a4>
   10fa0:	00013583          	ld	a1,0(sp)
   10fa4:	11010613          	addi	a2,sp,272
   10fa8:	000a8513          	mv	a0,s5
   10fac:	09e13023          	sd	t5,128(sp)
   10fb0:	07d13023          	sd	t4,96(sp)
   10fb4:	5500a0ef          	jal	ra,1b504 <__sprint_r>
   10fb8:	f4051263          	bnez	a0,106fc <_vfprintf_r+0x290>
   10fbc:	12013783          	ld	a5,288(sp)
   10fc0:	19010313          	addi	t1,sp,400
   10fc4:	08013f03          	ld	t5,128(sp)
   10fc8:	06013e83          	ld	t4,96(sp)
   10fcc:	eedff06f          	j	10eb8 <_vfprintf_r+0xa4c>
   10fd0:	11812603          	lw	a2,280(sp)
   10fd4:	04813703          	ld	a4,72(sp)
   10fd8:	05813683          	ld	a3,88(sp)
   10fdc:	01030313          	addi	t1,t1,16
   10fe0:	00f707b3          	add	a5,a4,a5
   10fe4:	fed33823          	sd	a3,-16(t1)
   10fe8:	0016069b          	addiw	a3,a2,1
   10fec:	fee33c23          	sd	a4,-8(t1)
   10ff0:	12f13023          	sd	a5,288(sp)
   10ff4:	10d12c23          	sw	a3,280(sp)
   10ff8:	00700613          	li	a2,7
   10ffc:	02d65463          	bge	a2,a3,11024 <_vfprintf_r+0xbb8>
   11000:	00013583          	ld	a1,0(sp)
   11004:	11010613          	addi	a2,sp,272
   11008:	000a8513          	mv	a0,s5
   1100c:	4f80a0ef          	jal	ra,1b504 <__sprint_r>
   11010:	ee051663          	bnez	a0,106fc <_vfprintf_r+0x290>
   11014:	0e812583          	lw	a1,232(sp)
   11018:	12013783          	ld	a5,288(sp)
   1101c:	11812683          	lw	a3,280(sp)
   11020:	19010313          	addi	t1,sp,400
   11024:	0005d463          	bgez	a1,1102c <_vfprintf_r+0xbc0>
   11028:	7a40106f          	j	127cc <_vfprintf_r+0x2360>
   1102c:	02813703          	ld	a4,40(sp)
   11030:	0016861b          	addiw	a2,a3,1
   11034:	01b33023          	sd	s11,0(t1)
   11038:	00f707b3          	add	a5,a4,a5
   1103c:	00e33423          	sd	a4,8(t1)
   11040:	12f13023          	sd	a5,288(sp)
   11044:	10c12c23          	sw	a2,280(sp)
   11048:	00700713          	li	a4,7
   1104c:	eec750e3          	bge	a4,a2,10f2c <_vfprintf_r+0xac0>
   11050:	00013583          	ld	a1,0(sp)
   11054:	11010613          	addi	a2,sp,272
   11058:	000a8513          	mv	a0,s5
   1105c:	4a80a0ef          	jal	ra,1b504 <__sprint_r>
   11060:	e8051e63          	bnez	a0,106fc <_vfprintf_r+0x290>
   11064:	12013783          	ld	a5,288(sp)
   11068:	19010313          	addi	t1,sp,400
   1106c:	ec5ff06f          	j	10f30 <_vfprintf_r+0xac4>
   11070:	01013783          	ld	a5,16(sp)
   11074:	00094403          	lbu	s0,0(s2)
   11078:	0007a983          	lw	s3,0(a5)
   1107c:	00878793          	addi	a5,a5,8
   11080:	00f13823          	sd	a5,16(sp)
   11084:	da09d263          	bgez	s3,10628 <_vfprintf_r+0x1bc>
   11088:	413009bb          	negw	s3,s3
   1108c:	835ff06f          	j	108c0 <_vfprintf_r+0x454>
   11090:	000a8513          	mv	a0,s5
   11094:	788050ef          	jal	ra,1681c <_localeconv_r>
   11098:	00853783          	ld	a5,8(a0)
   1109c:	00078513          	mv	a0,a5
   110a0:	06f13823          	sd	a5,112(sp)
   110a4:	2b1070ef          	jal	ra,18b54 <strlen>
   110a8:	08a13423          	sd	a0,136(sp)
   110ac:	00050413          	mv	s0,a0
   110b0:	000a8513          	mv	a0,s5
   110b4:	768050ef          	jal	ra,1681c <_localeconv_r>
   110b8:	01053783          	ld	a5,16(a0)
   110bc:	06f13c23          	sd	a5,120(sp)
   110c0:	22040ee3          	beqz	s0,11afc <_vfprintf_r+0x1690>
   110c4:	00094403          	lbu	s0,0(s2)
   110c8:	d6078063          	beqz	a5,10628 <_vfprintf_r+0x1bc>
   110cc:	0007c783          	lbu	a5,0(a5)
   110d0:	d4078c63          	beqz	a5,10628 <_vfprintf_r+0x1bc>
   110d4:	4004e493          	ori	s1,s1,1024
   110d8:	0004849b          	sext.w	s1,s1
   110dc:	d4cff06f          	j	10628 <_vfprintf_r+0x1bc>
   110e0:	0014e493          	ori	s1,s1,1
   110e4:	0004849b          	sext.w	s1,s1
   110e8:	00094403          	lbu	s0,0(s2)
   110ec:	d3cff06f          	j	10628 <_vfprintf_r+0x1bc>
   110f0:	0df14783          	lbu	a5,223(sp)
   110f4:	00094403          	lbu	s0,0(s2)
   110f8:	d2079863          	bnez	a5,10628 <_vfprintf_r+0x1bc>
   110fc:	02000793          	li	a5,32
   11100:	0cf10fa3          	sb	a5,223(sp)
   11104:	d24ff06f          	j	10628 <_vfprintf_r+0x1bc>
   11108:	01013703          	ld	a4,16(sp)
   1110c:	0204f793          	andi	a5,s1,32
   11110:	000c8313          	mv	t1,s9
   11114:	00870713          	addi	a4,a4,8
   11118:	1e079ce3          	bnez	a5,11b10 <_vfprintf_r+0x16a4>
   1111c:	0104f793          	andi	a5,s1,16
   11120:	1e0798e3          	bnez	a5,11b10 <_vfprintf_r+0x16a4>
   11124:	01013683          	ld	a3,16(sp)
   11128:	0404f793          	andi	a5,s1,64
   1112c:	0006ab03          	lw	s6,0(a3)
   11130:	5a0786e3          	beqz	a5,11edc <_vfprintf_r+0x1a70>
   11134:	030b1b13          	slli	s6,s6,0x30
   11138:	030b5b13          	srli	s6,s6,0x30
   1113c:	00e13823          	sd	a4,16(sp)
   11140:	00048a13          	mv	s4,s1
   11144:	00100793          	li	a5,1
   11148:	e70ff06f          	j	107b8 <_vfprintf_r+0x34c>
   1114c:	0204e493          	ori	s1,s1,32
   11150:	0004849b          	sext.w	s1,s1
   11154:	00094403          	lbu	s0,0(s2)
   11158:	cd0ff06f          	j	10628 <_vfprintf_r+0x1bc>
   1115c:	01013703          	ld	a4,16(sp)
   11160:	ffff87b7          	lui	a5,0xffff8
   11164:	8307c793          	xori	a5,a5,-2000
   11168:	0ef11023          	sh	a5,224(sp)
   1116c:	00870793          	addi	a5,a4,8
   11170:	0024e813          	ori	a6,s1,2
   11174:	00f13823          	sd	a5,16(sp)
   11178:	00010797          	auipc	a5,0x10
   1117c:	22878793          	addi	a5,a5,552 # 213a0 <zeroes.4539+0x68>
   11180:	04f13823          	sd	a5,80(sp)
   11184:	000c8313          	mv	t1,s9
   11188:	00073b03          	ld	s6,0(a4)
   1118c:	00080a1b          	sext.w	s4,a6
   11190:	00200793          	li	a5,2
   11194:	07800413          	li	s0,120
   11198:	e20ff06f          	j	107b8 <_vfprintf_r+0x34c>
   1119c:	01013703          	ld	a4,16(sp)
   111a0:	0204f793          	andi	a5,s1,32
   111a4:	000c8313          	mv	t1,s9
   111a8:	00870713          	addi	a4,a4,8
   111ac:	ac0798e3          	bnez	a5,10c7c <_vfprintf_r+0x810>
   111b0:	0104f793          	andi	a5,s1,16
   111b4:	ac0794e3          	bnez	a5,10c7c <_vfprintf_r+0x810>
   111b8:	01013683          	ld	a3,16(sp)
   111bc:	0404f793          	andi	a5,s1,64
   111c0:	0006ab03          	lw	s6,0(a3)
   111c4:	500782e3          	beqz	a5,11ec8 <_vfprintf_r+0x1a5c>
   111c8:	030b1b13          	slli	s6,s6,0x30
   111cc:	030b5b13          	srli	s6,s6,0x30
   111d0:	00e13823          	sd	a4,16(sp)
   111d4:	ab5ff06f          	j	10c88 <_vfprintf_r+0x81c>
   111d8:	01013683          	ld	a3,16(sp)
   111dc:	0204f793          	andi	a5,s1,32
   111e0:	000c8313          	mv	t1,s9
   111e4:	0006b703          	ld	a4,0(a3)
   111e8:	00868693          	addi	a3,a3,8
   111ec:	00d13823          	sd	a3,16(sp)
   111f0:	0e079ee3          	bnez	a5,11aec <_vfprintf_r+0x1680>
   111f4:	0104f793          	andi	a5,s1,16
   111f8:	0e079ae3          	bnez	a5,11aec <_vfprintf_r+0x1680>
   111fc:	0404f793          	andi	a5,s1,64
   11200:	00078463          	beqz	a5,11208 <_vfprintf_r+0xd9c>
   11204:	01c0106f          	j	12220 <_vfprintf_r+0x1db4>
   11208:	2004f493          	andi	s1,s1,512
   1120c:	00813783          	ld	a5,8(sp)
   11210:	00049463          	bnez	s1,11218 <_vfprintf_r+0xdac>
   11214:	7980106f          	j	129ac <_vfprintf_r+0x2540>
   11218:	00f70023          	sb	a5,0(a4)
   1121c:	00090d93          	mv	s11,s2
   11220:	d5dff06f          	j	10f7c <_vfprintf_r+0xb10>
   11224:	00094403          	lbu	s0,0(s2)
   11228:	06c00793          	li	a5,108
   1122c:	16f40ee3          	beq	s0,a5,11ba8 <_vfprintf_r+0x173c>
   11230:	0104e493          	ori	s1,s1,16
   11234:	0004849b          	sext.w	s1,s1
   11238:	bf0ff06f          	j	10628 <_vfprintf_r+0x1bc>
   1123c:	03013503          	ld	a0,48(sp)
   11240:	39c020ef          	jal	ra,135dc <__sinit>
   11244:	aa0ff06f          	j	104e4 <_vfprintf_r+0x78>
   11248:	00048a13          	mv	s4,s1
   1124c:	00900793          	li	a5,9
   11250:	3167e4e3          	bltu	a5,s6,11d58 <_vfprintf_r+0x18ec>
   11254:	030b0b1b          	addiw	s6,s6,48
   11258:	196105a3          	sb	s6,395(sp)
   1125c:	000a0493          	mv	s1,s4
   11260:	00100c93          	li	s9,1
   11264:	18b10d93          	addi	s11,sp,395
   11268:	d84ff06f          	j	107ec <_vfprintf_r+0x380>
   1126c:	0ff00793          	li	a5,255
   11270:	34f686e3          	beq	a3,a5,11dbc <_vfprintf_r+0x1950>
   11274:	00900793          	li	a5,9
   11278:	7537e6e3          	bltu	a5,s3,121c4 <_vfprintf_r+0x1d58>
   1127c:	07213c23          	sd	s2,120(sp)
   11280:	000a8313          	mv	t1,s5
   11284:	03813983          	ld	s3,56(sp)
   11288:	000c8a93          	mv	s5,s9
   1128c:	01813903          	ld	s2,24(sp)
   11290:	000d8c93          	mv	s9,s11
   11294:	00040d93          	mv	s11,s0
   11298:	02013403          	ld	s0,32(sp)
   1129c:	02913423          	sd	s1,40(sp)
   112a0:	41bc8cbb          	subw	s9,s9,s11
   112a4:	000a0493          	mv	s1,s4
   112a8:	d44ff06f          	j	107ec <_vfprintf_r+0x380>
   112ac:	06500693          	li	a3,101
   112b0:	2e86d063          	bge	a3,s0,11590 <_vfprintf_r+0x1124>
   112b4:	10013503          	ld	a0,256(sp)
   112b8:	10813583          	ld	a1,264(sp)
   112bc:	00000613          	li	a2,0
   112c0:	00000693          	li	a3,0
   112c4:	08613023          	sd	t1,128(sp)
   112c8:	06f13023          	sd	a5,96(sp)
   112cc:	0790e0ef          	jal	ra,1fb44 <__eqtf2>
   112d0:	06013783          	ld	a5,96(sp)
   112d4:	08013303          	ld	t1,128(sp)
   112d8:	60051063          	bnez	a0,118d8 <_vfprintf_r+0x146c>
   112dc:	11812703          	lw	a4,280(sp)
   112e0:	00010697          	auipc	a3,0x10
   112e4:	0f868693          	addi	a3,a3,248 # 213d8 <zeroes.4539+0xa0>
   112e8:	00178793          	addi	a5,a5,1
   112ec:	0017071b          	addiw	a4,a4,1
   112f0:	00d33023          	sd	a3,0(t1)
   112f4:	00100693          	li	a3,1
   112f8:	00d33423          	sd	a3,8(t1)
   112fc:	12f13023          	sd	a5,288(sp)
   11300:	0007069b          	sext.w	a3,a4
   11304:	10e12c23          	sw	a4,280(sp)
   11308:	00700793          	li	a5,7
   1130c:	01030313          	addi	t1,t1,16
   11310:	2cd7c4e3          	blt	a5,a3,11dd8 <_vfprintf_r+0x196c>
   11314:	0e812783          	lw	a5,232(sp)
   11318:	02813703          	ld	a4,40(sp)
   1131c:	00e7ca63          	blt	a5,a4,11330 <_vfprintf_r+0xec4>
   11320:	0014f793          	andi	a5,s1,1
   11324:	00079663          	bnez	a5,11330 <_vfprintf_r+0xec4>
   11328:	12013783          	ld	a5,288(sp)
   1132c:	c05ff06f          	j	10f30 <_vfprintf_r+0xac4>
   11330:	05813783          	ld	a5,88(sp)
   11334:	04813683          	ld	a3,72(sp)
   11338:	11812703          	lw	a4,280(sp)
   1133c:	00f33023          	sd	a5,0(t1)
   11340:	12013783          	ld	a5,288(sp)
   11344:	0017071b          	addiw	a4,a4,1
   11348:	00d33423          	sd	a3,8(t1)
   1134c:	00f687b3          	add	a5,a3,a5
   11350:	10e12c23          	sw	a4,280(sp)
   11354:	0007069b          	sext.w	a3,a4
   11358:	12f13023          	sd	a5,288(sp)
   1135c:	00700713          	li	a4,7
   11360:	01030313          	addi	t1,t1,16
   11364:	06d746e3          	blt	a4,a3,11bd0 <_vfprintf_r+0x1764>
   11368:	02813703          	ld	a4,40(sp)
   1136c:	fff7041b          	addiw	s0,a4,-1
   11370:	bc8050e3          	blez	s0,10f30 <_vfprintf_r+0xac4>
   11374:	11812703          	lw	a4,280(sp)
   11378:	288d50e3          	bge	s10,s0,11df8 <_vfprintf_r+0x198c>
   1137c:	00700c93          	li	s9,7
   11380:	00013b03          	ld	s6,0(sp)
   11384:	00c0006f          	j	11390 <_vfprintf_r+0xf24>
   11388:	ff04041b          	addiw	s0,s0,-16
   1138c:	268d56e3          	bge	s10,s0,11df8 <_vfprintf_r+0x198c>
   11390:	0017071b          	addiw	a4,a4,1
   11394:	01078793          	addi	a5,a5,16
   11398:	01833023          	sd	s8,0(t1)
   1139c:	01a33423          	sd	s10,8(t1)
   113a0:	12f13023          	sd	a5,288(sp)
   113a4:	10e12c23          	sw	a4,280(sp)
   113a8:	01030313          	addi	t1,t1,16
   113ac:	fcecdee3          	bge	s9,a4,11388 <_vfprintf_r+0xf1c>
   113b0:	11010613          	addi	a2,sp,272
   113b4:	000b0593          	mv	a1,s6
   113b8:	000a8513          	mv	a0,s5
   113bc:	1480a0ef          	jal	ra,1b504 <__sprint_r>
   113c0:	b2051e63          	bnez	a0,106fc <_vfprintf_r+0x290>
   113c4:	12013783          	ld	a5,288(sp)
   113c8:	11812703          	lw	a4,280(sp)
   113cc:	19010313          	addi	t1,sp,400
   113d0:	fb9ff06f          	j	11388 <_vfprintf_r+0xf1c>
   113d4:	41498b3b          	subw	s6,s3,s4
   113d8:	b36050e3          	blez	s6,10ef8 <_vfprintf_r+0xa8c>
   113dc:	11812683          	lw	a3,280(sp)
   113e0:	096d5a63          	bge	s10,s6,11474 <_vfprintf_r+0x1008>
   113e4:	000b0713          	mv	a4,s6
   113e8:	06813023          	sd	s0,96(sp)
   113ec:	000a0b13          	mv	s6,s4
   113f0:	00700893          	li	a7,7
   113f4:	00098a13          	mv	s4,s3
   113f8:	00013403          	ld	s0,0(sp)
   113fc:	00048993          	mv	s3,s1
   11400:	00070493          	mv	s1,a4
   11404:	00c0006f          	j	11410 <_vfprintf_r+0xfa4>
   11408:	ff04849b          	addiw	s1,s1,-16
   1140c:	049d5863          	bge	s10,s1,1145c <_vfprintf_r+0xff0>
   11410:	0016869b          	addiw	a3,a3,1
   11414:	01078793          	addi	a5,a5,16
   11418:	01833023          	sd	s8,0(t1)
   1141c:	01a33423          	sd	s10,8(t1)
   11420:	12f13023          	sd	a5,288(sp)
   11424:	10d12c23          	sw	a3,280(sp)
   11428:	01030313          	addi	t1,t1,16
   1142c:	fcd8dee3          	bge	a7,a3,11408 <_vfprintf_r+0xf9c>
   11430:	11010613          	addi	a2,sp,272
   11434:	00040593          	mv	a1,s0
   11438:	000a8513          	mv	a0,s5
   1143c:	0c80a0ef          	jal	ra,1b504 <__sprint_r>
   11440:	aa051e63          	bnez	a0,106fc <_vfprintf_r+0x290>
   11444:	ff04849b          	addiw	s1,s1,-16
   11448:	12013783          	ld	a5,288(sp)
   1144c:	11812683          	lw	a3,280(sp)
   11450:	19010313          	addi	t1,sp,400
   11454:	00700893          	li	a7,7
   11458:	fa9d4ce3          	blt	s10,s1,11410 <_vfprintf_r+0xfa4>
   1145c:	06013403          	ld	s0,96(sp)
   11460:	00048713          	mv	a4,s1
   11464:	00098493          	mv	s1,s3
   11468:	000a0993          	mv	s3,s4
   1146c:	000b0a13          	mv	s4,s6
   11470:	00070b13          	mv	s6,a4
   11474:	0016861b          	addiw	a2,a3,1
   11478:	016787b3          	add	a5,a5,s6
   1147c:	01833023          	sd	s8,0(t1)
   11480:	01633423          	sd	s6,8(t1)
   11484:	12f13023          	sd	a5,288(sp)
   11488:	10c12c23          	sw	a2,280(sp)
   1148c:	00700693          	li	a3,7
   11490:	01030313          	addi	t1,t1,16
   11494:	a6c6d2e3          	bge	a3,a2,10ef8 <_vfprintf_r+0xa8c>
   11498:	00013583          	ld	a1,0(sp)
   1149c:	11010613          	addi	a2,sp,272
   114a0:	000a8513          	mv	a0,s5
   114a4:	0600a0ef          	jal	ra,1b504 <__sprint_r>
   114a8:	a4051a63          	bnez	a0,106fc <_vfprintf_r+0x290>
   114ac:	12013783          	ld	a5,288(sp)
   114b0:	19010313          	addi	t1,sp,400
   114b4:	a45ff06f          	j	10ef8 <_vfprintf_r+0xa8c>
   114b8:	11812683          	lw	a3,280(sp)
   114bc:	097d5863          	bge	s10,s7,1154c <_vfprintf_r+0x10e0>
   114c0:	000a0713          	mv	a4,s4
   114c4:	06813023          	sd	s0,96(sp)
   114c8:	00098a13          	mv	s4,s3
   114cc:	00700b13          	li	s6,7
   114d0:	00048993          	mv	s3,s1
   114d4:	00013403          	ld	s0,0(sp)
   114d8:	000b8493          	mv	s1,s7
   114dc:	00070b93          	mv	s7,a4
   114e0:	00c0006f          	j	114ec <_vfprintf_r+0x1080>
   114e4:	ff04849b          	addiw	s1,s1,-16
   114e8:	049d5663          	bge	s10,s1,11534 <_vfprintf_r+0x10c8>
   114ec:	0016869b          	addiw	a3,a3,1
   114f0:	01078793          	addi	a5,a5,16
   114f4:	01833023          	sd	s8,0(t1)
   114f8:	01a33423          	sd	s10,8(t1)
   114fc:	12f13023          	sd	a5,288(sp)
   11500:	10d12c23          	sw	a3,280(sp)
   11504:	01030313          	addi	t1,t1,16
   11508:	fcdb5ee3          	bge	s6,a3,114e4 <_vfprintf_r+0x1078>
   1150c:	11010613          	addi	a2,sp,272
   11510:	00040593          	mv	a1,s0
   11514:	000a8513          	mv	a0,s5
   11518:	7ed090ef          	jal	ra,1b504 <__sprint_r>
   1151c:	9e051063          	bnez	a0,106fc <_vfprintf_r+0x290>
   11520:	ff04849b          	addiw	s1,s1,-16
   11524:	12013783          	ld	a5,288(sp)
   11528:	11812683          	lw	a3,280(sp)
   1152c:	19010313          	addi	t1,sp,400
   11530:	fa9d4ee3          	blt	s10,s1,114ec <_vfprintf_r+0x1080>
   11534:	06013403          	ld	s0,96(sp)
   11538:	000b8713          	mv	a4,s7
   1153c:	00048b93          	mv	s7,s1
   11540:	00098493          	mv	s1,s3
   11544:	000a0993          	mv	s3,s4
   11548:	00070a13          	mv	s4,a4
   1154c:	0016861b          	addiw	a2,a3,1
   11550:	017787b3          	add	a5,a5,s7
   11554:	01833023          	sd	s8,0(t1)
   11558:	01733423          	sd	s7,8(t1)
   1155c:	12f13023          	sd	a5,288(sp)
   11560:	10c12c23          	sw	a2,280(sp)
   11564:	00700693          	li	a3,7
   11568:	01030313          	addi	t1,t1,16
   1156c:	98c6dae3          	bge	a3,a2,10f00 <_vfprintf_r+0xa94>
   11570:	00013583          	ld	a1,0(sp)
   11574:	11010613          	addi	a2,sp,272
   11578:	000a8513          	mv	a0,s5
   1157c:	789090ef          	jal	ra,1b504 <__sprint_r>
   11580:	96051e63          	bnez	a0,106fc <_vfprintf_r+0x290>
   11584:	12013783          	ld	a5,288(sp)
   11588:	19010313          	addi	t1,sp,400
   1158c:	975ff06f          	j	10f00 <_vfprintf_r+0xa94>
   11590:	11812583          	lw	a1,280(sp)
   11594:	02813703          	ld	a4,40(sp)
   11598:	00178c93          	addi	s9,a5,1
   1159c:	00100613          	li	a2,1
   115a0:	0015879b          	addiw	a5,a1,1
   115a4:	01b33023          	sd	s11,0(t1)
   115a8:	00078693          	mv	a3,a5
   115ac:	01030413          	addi	s0,t1,16
   115b0:	48e65c63          	bge	a2,a4,11a48 <_vfprintf_r+0x15dc>
   115b4:	00100613          	li	a2,1
   115b8:	10d12c23          	sw	a3,280(sp)
   115bc:	00c33423          	sd	a2,8(t1)
   115c0:	13913023          	sd	s9,288(sp)
   115c4:	00700693          	li	a3,7
   115c8:	6cf6c063          	blt	a3,a5,11c88 <_vfprintf_r+0x181c>
   115cc:	0017869b          	addiw	a3,a5,1
   115d0:	04813783          	ld	a5,72(sp)
   115d4:	05813703          	ld	a4,88(sp)
   115d8:	10d12c23          	sw	a3,280(sp)
   115dc:	00fc8cb3          	add	s9,s9,a5
   115e0:	00f43423          	sd	a5,8(s0)
   115e4:	00e43023          	sd	a4,0(s0)
   115e8:	0006879b          	sext.w	a5,a3
   115ec:	13913023          	sd	s9,288(sp)
   115f0:	00700693          	li	a3,7
   115f4:	01040413          	addi	s0,s0,16
   115f8:	6af6cc63          	blt	a3,a5,11cb0 <_vfprintf_r+0x1844>
   115fc:	0017889b          	addiw	a7,a5,1
   11600:	04f13023          	sd	a5,64(sp)
   11604:	10013503          	ld	a0,256(sp)
   11608:	02813783          	ld	a5,40(sp)
   1160c:	10813583          	ld	a1,264(sp)
   11610:	01040313          	addi	t1,s0,16
   11614:	00000613          	li	a2,0
   11618:	00000693          	li	a3,0
   1161c:	00088b1b          	sext.w	s6,a7
   11620:	03113c23          	sd	a7,56(sp)
   11624:	02613023          	sd	t1,32(sp)
   11628:	fff78b9b          	addiw	s7,a5,-1
   1162c:	5180e0ef          	jal	ra,1fb44 <__eqtf2>
   11630:	02013303          	ld	t1,32(sp)
   11634:	03813883          	ld	a7,56(sp)
   11638:	42050c63          	beqz	a0,11a70 <_vfprintf_r+0x1604>
   1163c:	001d8713          	addi	a4,s11,1
   11640:	017c8cb3          	add	s9,s9,s7
   11644:	00e43023          	sd	a4,0(s0)
   11648:	01743423          	sd	s7,8(s0)
   1164c:	13913023          	sd	s9,288(sp)
   11650:	11112c23          	sw	a7,280(sp)
   11654:	00700713          	li	a4,7
   11658:	53674063          	blt	a4,s6,11b78 <_vfprintf_r+0x170c>
   1165c:	04013783          	ld	a5,64(sp)
   11660:	02040713          	addi	a4,s0,32
   11664:	00030413          	mv	s0,t1
   11668:	00278b1b          	addiw	s6,a5,2
   1166c:	00070313          	mv	t1,a4
   11670:	06813683          	ld	a3,104(sp)
   11674:	0f010713          	addi	a4,sp,240
   11678:	00e43023          	sd	a4,0(s0)
   1167c:	00dc87b3          	add	a5,s9,a3
   11680:	00d43423          	sd	a3,8(s0)
   11684:	12f13023          	sd	a5,288(sp)
   11688:	11612c23          	sw	s6,280(sp)
   1168c:	00700713          	li	a4,7
   11690:	8b6750e3          	bge	a4,s6,10f30 <_vfprintf_r+0xac4>
   11694:	9bdff06f          	j	11050 <_vfprintf_r+0xbe4>
   11698:	00048a13          	mv	s4,s1
   1169c:	f20ff06f          	j	10dbc <_vfprintf_r+0x950>
   116a0:	11812683          	lw	a3,280(sp)
   116a4:	00010b17          	auipc	s6,0x10
   116a8:	c84b0b13          	addi	s6,s6,-892 # 21328 <blanks.4538>
   116ac:	0b0d5863          	bge	s10,a6,1175c <_vfprintf_r+0x12f0>
   116b0:	09213823          	sd	s2,144(sp)
   116b4:	08813c23          	sd	s0,152(sp)
   116b8:	000b0913          	mv	s2,s6
   116bc:	00700f93          	li	t6,7
   116c0:	000a0b13          	mv	s6,s4
   116c4:	07d13023          	sd	t4,96(sp)
   116c8:	00098a13          	mv	s4,s3
   116cc:	09e13023          	sd	t5,128(sp)
   116d0:	00048993          	mv	s3,s1
   116d4:	00080413          	mv	s0,a6
   116d8:	00013483          	ld	s1,0(sp)
   116dc:	00c0006f          	j	116e8 <_vfprintf_r+0x127c>
   116e0:	ff04041b          	addiw	s0,s0,-16
   116e4:	048d5a63          	bge	s10,s0,11738 <_vfprintf_r+0x12cc>
   116e8:	0016869b          	addiw	a3,a3,1
   116ec:	01078793          	addi	a5,a5,16
   116f0:	01233023          	sd	s2,0(t1)
   116f4:	01a33423          	sd	s10,8(t1)
   116f8:	12f13023          	sd	a5,288(sp)
   116fc:	10d12c23          	sw	a3,280(sp)
   11700:	01030313          	addi	t1,t1,16
   11704:	fcdfdee3          	bge	t6,a3,116e0 <_vfprintf_r+0x1274>
   11708:	11010613          	addi	a2,sp,272
   1170c:	00048593          	mv	a1,s1
   11710:	000a8513          	mv	a0,s5
   11714:	5f1090ef          	jal	ra,1b504 <__sprint_r>
   11718:	00050463          	beqz	a0,11720 <_vfprintf_r+0x12b4>
   1171c:	fe1fe06f          	j	106fc <_vfprintf_r+0x290>
   11720:	ff04041b          	addiw	s0,s0,-16
   11724:	12013783          	ld	a5,288(sp)
   11728:	11812683          	lw	a3,280(sp)
   1172c:	19010313          	addi	t1,sp,400
   11730:	00700f93          	li	t6,7
   11734:	fa8d4ae3          	blt	s10,s0,116e8 <_vfprintf_r+0x127c>
   11738:	00098493          	mv	s1,s3
   1173c:	00040813          	mv	a6,s0
   11740:	000a0993          	mv	s3,s4
   11744:	06013e83          	ld	t4,96(sp)
   11748:	000b0a13          	mv	s4,s6
   1174c:	08013f03          	ld	t5,128(sp)
   11750:	00090b13          	mv	s6,s2
   11754:	09813403          	ld	s0,152(sp)
   11758:	09013903          	ld	s2,144(sp)
   1175c:	0016861b          	addiw	a2,a3,1
   11760:	010787b3          	add	a5,a5,a6
   11764:	01633023          	sd	s6,0(t1)
   11768:	01033423          	sd	a6,8(t1)
   1176c:	12f13023          	sd	a5,288(sp)
   11770:	10c12c23          	sw	a2,280(sp)
   11774:	00700693          	li	a3,7
   11778:	01030313          	addi	t1,t1,16
   1177c:	f0c6d063          	bge	a3,a2,10e7c <_vfprintf_r+0xa10>
   11780:	00013583          	ld	a1,0(sp)
   11784:	11010613          	addi	a2,sp,272
   11788:	000a8513          	mv	a0,s5
   1178c:	09e13023          	sd	t5,128(sp)
   11790:	07d13023          	sd	t4,96(sp)
   11794:	571090ef          	jal	ra,1b504 <__sprint_r>
   11798:	00050463          	beqz	a0,117a0 <_vfprintf_r+0x1334>
   1179c:	f61fe06f          	j	106fc <_vfprintf_r+0x290>
   117a0:	12013783          	ld	a5,288(sp)
   117a4:	19010313          	addi	t1,sp,400
   117a8:	08013f03          	ld	t5,128(sp)
   117ac:	06013e83          	ld	t4,96(sp)
   117b0:	eccff06f          	j	10e7c <_vfprintf_r+0xa10>
   117b4:	00013583          	ld	a1,0(sp)
   117b8:	11010613          	addi	a2,sp,272
   117bc:	000a8513          	mv	a0,s5
   117c0:	07e13023          	sd	t5,96(sp)
   117c4:	541090ef          	jal	ra,1b504 <__sprint_r>
   117c8:	00050463          	beqz	a0,117d0 <_vfprintf_r+0x1364>
   117cc:	f31fe06f          	j	106fc <_vfprintf_r+0x290>
   117d0:	12013783          	ld	a5,288(sp)
   117d4:	19010313          	addi	t1,sp,400
   117d8:	06013f03          	ld	t5,96(sp)
   117dc:	f14ff06f          	j	10ef0 <_vfprintf_r+0xa84>
   117e0:	11812703          	lw	a4,280(sp)
   117e4:	00010b17          	auipc	s6,0x10
   117e8:	b44b0b13          	addi	s6,s6,-1212 # 21328 <blanks.4538>
   117ec:	068d5263          	bge	s10,s0,11850 <_vfprintf_r+0x13e4>
   117f0:	00700493          	li	s1,7
   117f4:	00013b83          	ld	s7,0(sp)
   117f8:	00c0006f          	j	11804 <_vfprintf_r+0x1398>
   117fc:	ff04041b          	addiw	s0,s0,-16
   11800:	048d5863          	bge	s10,s0,11850 <_vfprintf_r+0x13e4>
   11804:	0017071b          	addiw	a4,a4,1
   11808:	01078793          	addi	a5,a5,16
   1180c:	01633023          	sd	s6,0(t1)
   11810:	01a33423          	sd	s10,8(t1)
   11814:	12f13023          	sd	a5,288(sp)
   11818:	10e12c23          	sw	a4,280(sp)
   1181c:	01030313          	addi	t1,t1,16
   11820:	fce4dee3          	bge	s1,a4,117fc <_vfprintf_r+0x1390>
   11824:	11010613          	addi	a2,sp,272
   11828:	000b8593          	mv	a1,s7
   1182c:	000a8513          	mv	a0,s5
   11830:	4d5090ef          	jal	ra,1b504 <__sprint_r>
   11834:	00050463          	beqz	a0,1183c <_vfprintf_r+0x13d0>
   11838:	ec5fe06f          	j	106fc <_vfprintf_r+0x290>
   1183c:	ff04041b          	addiw	s0,s0,-16
   11840:	12013783          	ld	a5,288(sp)
   11844:	11812703          	lw	a4,280(sp)
   11848:	19010313          	addi	t1,sp,400
   1184c:	fa8d4ce3          	blt	s10,s0,11804 <_vfprintf_r+0x1398>
   11850:	0017069b          	addiw	a3,a4,1
   11854:	008787b3          	add	a5,a5,s0
   11858:	01633023          	sd	s6,0(t1)
   1185c:	00833423          	sd	s0,8(t1)
   11860:	12f13023          	sd	a5,288(sp)
   11864:	10d12c23          	sw	a3,280(sp)
   11868:	00700713          	li	a4,7
   1186c:	ecd75a63          	bge	a4,a3,10f40 <_vfprintf_r+0xad4>
   11870:	00013583          	ld	a1,0(sp)
   11874:	11010613          	addi	a2,sp,272
   11878:	000a8513          	mv	a0,s5
   1187c:	489090ef          	jal	ra,1b504 <__sprint_r>
   11880:	00050463          	beqz	a0,11888 <_vfprintf_r+0x141c>
   11884:	e79fe06f          	j	106fc <_vfprintf_r+0x290>
   11888:	12013783          	ld	a5,288(sp)
   1188c:	eb4ff06f          	j	10f40 <_vfprintf_r+0xad4>
   11890:	00100713          	li	a4,1
   11894:	46e782e3          	beq	a5,a4,124f8 <_vfprintf_r+0x208c>
   11898:	00200713          	li	a4,2
   1189c:	00048a13          	mv	s4,s1
   118a0:	d2e79663          	bne	a5,a4,10dcc <_vfprintf_r+0x960>
   118a4:	05013703          	ld	a4,80(sp)
   118a8:	18c10c93          	addi	s9,sp,396
   118ac:	000c8d93          	mv	s11,s9
   118b0:	00fb7793          	andi	a5,s6,15
   118b4:	00f707b3          	add	a5,a4,a5
   118b8:	0007c783          	lbu	a5,0(a5)
   118bc:	fffd8d93          	addi	s11,s11,-1
   118c0:	004b5b13          	srli	s6,s6,0x4
   118c4:	00fd8023          	sb	a5,0(s11)
   118c8:	fe0b14e3          	bnez	s6,118b0 <_vfprintf_r+0x1444>
   118cc:	41bc8cbb          	subw	s9,s9,s11
   118d0:	000a0493          	mv	s1,s4
   118d4:	f19fe06f          	j	107ec <_vfprintf_r+0x380>
   118d8:	0e812583          	lw	a1,232(sp)
   118dc:	3eb05e63          	blez	a1,11cd8 <_vfprintf_r+0x186c>
   118e0:	02813703          	ld	a4,40(sp)
   118e4:	02013683          	ld	a3,32(sp)
   118e8:	0007041b          	sext.w	s0,a4
   118ec:	24e6ce63          	blt	a3,a4,11b48 <_vfprintf_r+0x16dc>
   118f0:	02805663          	blez	s0,1191c <_vfprintf_r+0x14b0>
   118f4:	11812683          	lw	a3,280(sp)
   118f8:	008787b3          	add	a5,a5,s0
   118fc:	01b33023          	sd	s11,0(t1)
   11900:	0016861b          	addiw	a2,a3,1
   11904:	00833423          	sd	s0,8(t1)
   11908:	12f13023          	sd	a5,288(sp)
   1190c:	10c12c23          	sw	a2,280(sp)
   11910:	00700693          	li	a3,7
   11914:	01030313          	addi	t1,t1,16
   11918:	08c6c0e3          	blt	a3,a2,12198 <_vfprintf_r+0x1d2c>
   1191c:	fff44693          	not	a3,s0
   11920:	02013703          	ld	a4,32(sp)
   11924:	43f6d693          	srai	a3,a3,0x3f
   11928:	00d47433          	and	s0,s0,a3
   1192c:	4087043b          	subw	s0,a4,s0
   11930:	2e804663          	bgtz	s0,11c1c <_vfprintf_r+0x17b0>
   11934:	02013703          	ld	a4,32(sp)
   11938:	4004f693          	andi	a3,s1,1024
   1193c:	00ed8bb3          	add	s7,s11,a4
   11940:	64069c63          	bnez	a3,11f98 <_vfprintf_r+0x1b2c>
   11944:	0e812403          	lw	s0,232(sp)
   11948:	02813703          	ld	a4,40(sp)
   1194c:	00e44663          	blt	s0,a4,11958 <_vfprintf_r+0x14ec>
   11950:	0014f693          	andi	a3,s1,1
   11954:	0a0686e3          	beqz	a3,12200 <_vfprintf_r+0x1d94>
   11958:	05813683          	ld	a3,88(sp)
   1195c:	04813703          	ld	a4,72(sp)
   11960:	01030313          	addi	t1,t1,16
   11964:	fed33823          	sd	a3,-16(t1)
   11968:	11812683          	lw	a3,280(sp)
   1196c:	00e787b3          	add	a5,a5,a4
   11970:	fee33c23          	sd	a4,-8(t1)
   11974:	0016861b          	addiw	a2,a3,1
   11978:	12f13023          	sd	a5,288(sp)
   1197c:	10c12c23          	sw	a2,280(sp)
   11980:	00700693          	li	a3,7
   11984:	52c6c0e3          	blt	a3,a2,126a4 <_vfprintf_r+0x2238>
   11988:	02813703          	ld	a4,40(sp)
   1198c:	4087063b          	subw	a2,a4,s0
   11990:	00ed8733          	add	a4,s11,a4
   11994:	4177073b          	subw	a4,a4,s7
   11998:	00060413          	mv	s0,a2
   1199c:	00c75463          	bge	a4,a2,119a4 <_vfprintf_r+0x1538>
   119a0:	0007041b          	sext.w	s0,a4
   119a4:	02805663          	blez	s0,119d0 <_vfprintf_r+0x1564>
   119a8:	11812703          	lw	a4,280(sp)
   119ac:	008787b3          	add	a5,a5,s0
   119b0:	01733023          	sd	s7,0(t1)
   119b4:	0017069b          	addiw	a3,a4,1
   119b8:	00833423          	sd	s0,8(t1)
   119bc:	12f13023          	sd	a5,288(sp)
   119c0:	10d12c23          	sw	a3,280(sp)
   119c4:	00700713          	li	a4,7
   119c8:	01030313          	addi	t1,t1,16
   119cc:	56d748e3          	blt	a4,a3,1273c <_vfprintf_r+0x22d0>
   119d0:	fff44713          	not	a4,s0
   119d4:	43f75713          	srai	a4,a4,0x3f
   119d8:	00e47433          	and	s0,s0,a4
   119dc:	4086043b          	subw	s0,a2,s0
   119e0:	d4805863          	blez	s0,10f30 <_vfprintf_r+0xac4>
   119e4:	11812703          	lw	a4,280(sp)
   119e8:	408d5863          	bge	s10,s0,11df8 <_vfprintf_r+0x198c>
   119ec:	00700c93          	li	s9,7
   119f0:	00013b03          	ld	s6,0(sp)
   119f4:	00c0006f          	j	11a00 <_vfprintf_r+0x1594>
   119f8:	ff04041b          	addiw	s0,s0,-16
   119fc:	3e8d5e63          	bge	s10,s0,11df8 <_vfprintf_r+0x198c>
   11a00:	0017071b          	addiw	a4,a4,1
   11a04:	01078793          	addi	a5,a5,16
   11a08:	01833023          	sd	s8,0(t1)
   11a0c:	01a33423          	sd	s10,8(t1)
   11a10:	12f13023          	sd	a5,288(sp)
   11a14:	10e12c23          	sw	a4,280(sp)
   11a18:	01030313          	addi	t1,t1,16
   11a1c:	fcecdee3          	bge	s9,a4,119f8 <_vfprintf_r+0x158c>
   11a20:	11010613          	addi	a2,sp,272
   11a24:	000b0593          	mv	a1,s6
   11a28:	000a8513          	mv	a0,s5
   11a2c:	2d9090ef          	jal	ra,1b504 <__sprint_r>
   11a30:	00050463          	beqz	a0,11a38 <_vfprintf_r+0x15cc>
   11a34:	cc9fe06f          	j	106fc <_vfprintf_r+0x290>
   11a38:	12013783          	ld	a5,288(sp)
   11a3c:	11812703          	lw	a4,280(sp)
   11a40:	19010313          	addi	t1,sp,400
   11a44:	fb5ff06f          	j	119f8 <_vfprintf_r+0x158c>
   11a48:	0014f513          	andi	a0,s1,1
   11a4c:	b60514e3          	bnez	a0,115b4 <_vfprintf_r+0x1148>
   11a50:	00c33423          	sd	a2,8(t1)
   11a54:	13913023          	sd	s9,288(sp)
   11a58:	10f12c23          	sw	a5,280(sp)
   11a5c:	00700713          	li	a4,7
   11a60:	10f74c63          	blt	a4,a5,11b78 <_vfprintf_r+0x170c>
   11a64:	00258b1b          	addiw	s6,a1,2
   11a68:	02030313          	addi	t1,t1,32
   11a6c:	c05ff06f          	j	11670 <_vfprintf_r+0x1204>
   11a70:	c17050e3          	blez	s7,11670 <_vfprintf_r+0x1204>
   11a74:	017d4463          	blt	s10,s7,11a7c <_vfprintf_r+0x1610>
   11a78:	0bc0106f          	j	12b34 <_vfprintf_r+0x26c8>
   11a7c:	00700b13          	li	s6,7
   11a80:	00013d83          	ld	s11,0(sp)
   11a84:	0100006f          	j	11a94 <_vfprintf_r+0x1628>
   11a88:	ff0b8b9b          	addiw	s7,s7,-16
   11a8c:	0d7d5463          	bge	s10,s7,11b54 <_vfprintf_r+0x16e8>
   11a90:	0017889b          	addiw	a7,a5,1
   11a94:	010c8c93          	addi	s9,s9,16
   11a98:	01843023          	sd	s8,0(s0)
   11a9c:	01a43423          	sd	s10,8(s0)
   11aa0:	13913023          	sd	s9,288(sp)
   11aa4:	0008879b          	sext.w	a5,a7
   11aa8:	11112c23          	sw	a7,280(sp)
   11aac:	01040413          	addi	s0,s0,16
   11ab0:	fcfb5ce3          	bge	s6,a5,11a88 <_vfprintf_r+0x161c>
   11ab4:	11010613          	addi	a2,sp,272
   11ab8:	000d8593          	mv	a1,s11
   11abc:	000a8513          	mv	a0,s5
   11ac0:	245090ef          	jal	ra,1b504 <__sprint_r>
   11ac4:	00050463          	beqz	a0,11acc <_vfprintf_r+0x1660>
   11ac8:	c35fe06f          	j	106fc <_vfprintf_r+0x290>
   11acc:	12013c83          	ld	s9,288(sp)
   11ad0:	11812783          	lw	a5,280(sp)
   11ad4:	19010413          	addi	s0,sp,400
   11ad8:	fb1ff06f          	j	11a88 <_vfprintf_r+0x161c>
   11adc:	03000793          	li	a5,48
   11ae0:	18f105a3          	sb	a5,395(sp)
   11ae4:	18b10d93          	addi	s11,sp,395
   11ae8:	d05fe06f          	j	107ec <_vfprintf_r+0x380>
   11aec:	00813783          	ld	a5,8(sp)
   11af0:	00090d93          	mv	s11,s2
   11af4:	00f73023          	sd	a5,0(a4)
   11af8:	c84ff06f          	j	10f7c <_vfprintf_r+0xb10>
   11afc:	00094403          	lbu	s0,0(s2)
   11b00:	b29fe06f          	j	10628 <_vfprintf_r+0x1bc>
   11b04:	01013783          	ld	a5,16(sp)
   11b08:	0007bb03          	ld	s6,0(a5)
   11b0c:	c7dfe06f          	j	10788 <_vfprintf_r+0x31c>
   11b10:	00048a13          	mv	s4,s1
   11b14:	8b8ff06f          	j	10bcc <_vfprintf_r+0x760>
   11b18:	00048a13          	mv	s4,s1
   11b1c:	a74ff06f          	j	10d90 <_vfprintf_r+0x924>
   11b20:	01013783          	ld	a5,16(sp)
   11b24:	01913c23          	sd	s9,24(sp)
   11b28:	0007b503          	ld	a0,0(a5)
   11b2c:	00878793          	addi	a5,a5,8
   11b30:	00f13823          	sd	a5,16(sp)
   11b34:	2440f0ef          	jal	ra,20d78 <__extenddftf2>
   11b38:	10a13023          	sd	a0,256(sp)
   11b3c:	10b13423          	sd	a1,264(sp)
   11b40:	01813303          	ld	t1,24(sp)
   11b44:	dd9fe06f          	j	1091c <_vfprintf_r+0x4b0>
   11b48:	0006841b          	sext.w	s0,a3
   11b4c:	da8044e3          	bgtz	s0,118f4 <_vfprintf_r+0x1488>
   11b50:	dcdff06f          	j	1191c <_vfprintf_r+0x14b0>
   11b54:	00178b1b          	addiw	s6,a5,1
   11b58:	01040793          	addi	a5,s0,16
   11b5c:	017c8cb3          	add	s9,s9,s7
   11b60:	01843023          	sd	s8,0(s0)
   11b64:	01743423          	sd	s7,8(s0)
   11b68:	13913023          	sd	s9,288(sp)
   11b6c:	11612c23          	sw	s6,280(sp)
   11b70:	00700713          	li	a4,7
   11b74:	5f675063          	bge	a4,s6,12154 <_vfprintf_r+0x1ce8>
   11b78:	00013583          	ld	a1,0(sp)
   11b7c:	11010613          	addi	a2,sp,272
   11b80:	000a8513          	mv	a0,s5
   11b84:	181090ef          	jal	ra,1b504 <__sprint_r>
   11b88:	00050463          	beqz	a0,11b90 <_vfprintf_r+0x1724>
   11b8c:	b71fe06f          	j	106fc <_vfprintf_r+0x290>
   11b90:	11812583          	lw	a1,280(sp)
   11b94:	12013c83          	ld	s9,288(sp)
   11b98:	1a010313          	addi	t1,sp,416
   11b9c:	00158b1b          	addiw	s6,a1,1
   11ba0:	19010413          	addi	s0,sp,400
   11ba4:	acdff06f          	j	11670 <_vfprintf_r+0x1204>
   11ba8:	0204e493          	ori	s1,s1,32
   11bac:	00194403          	lbu	s0,1(s2)
   11bb0:	0004849b          	sext.w	s1,s1
   11bb4:	00190913          	addi	s2,s2,1
   11bb8:	a71fe06f          	j	10628 <_vfprintf_r+0x1bc>
   11bbc:	2004e493          	ori	s1,s1,512
   11bc0:	00194403          	lbu	s0,1(s2)
   11bc4:	0004849b          	sext.w	s1,s1
   11bc8:	00190913          	addi	s2,s2,1
   11bcc:	a5dfe06f          	j	10628 <_vfprintf_r+0x1bc>
   11bd0:	00013583          	ld	a1,0(sp)
   11bd4:	11010613          	addi	a2,sp,272
   11bd8:	000a8513          	mv	a0,s5
   11bdc:	129090ef          	jal	ra,1b504 <__sprint_r>
   11be0:	00050463          	beqz	a0,11be8 <_vfprintf_r+0x177c>
   11be4:	b19fe06f          	j	106fc <_vfprintf_r+0x290>
   11be8:	12013783          	ld	a5,288(sp)
   11bec:	19010313          	addi	t1,sp,400
   11bf0:	f78ff06f          	j	11368 <_vfprintf_r+0xefc>
   11bf4:	000b871b          	sext.w	a4,s7
   11bf8:	00600793          	li	a5,6
   11bfc:	000b8e13          	mv	t3,s7
   11c00:	5ae7ee63          	bltu	a5,a4,121bc <_vfprintf_r+0x1d50>
   11c04:	000e0c9b          	sext.w	s9,t3
   11c08:	000c8a13          	mv	s4,s9
   11c0c:	01613823          	sd	s6,16(sp)
   11c10:	0000fd97          	auipc	s11,0xf
   11c14:	7c0d8d93          	addi	s11,s11,1984 # 213d0 <zeroes.4539+0x98>
   11c18:	a2cff06f          	j	10e44 <_vfprintf_r+0x9d8>
   11c1c:	11812683          	lw	a3,280(sp)
   11c20:	328d5863          	bge	s10,s0,11f50 <_vfprintf_r+0x1ae4>
   11c24:	00700c93          	li	s9,7
   11c28:	00013b03          	ld	s6,0(sp)
   11c2c:	00c0006f          	j	11c38 <_vfprintf_r+0x17cc>
   11c30:	ff04041b          	addiw	s0,s0,-16
   11c34:	308d5e63          	bge	s10,s0,11f50 <_vfprintf_r+0x1ae4>
   11c38:	0016869b          	addiw	a3,a3,1
   11c3c:	01078793          	addi	a5,a5,16
   11c40:	01833023          	sd	s8,0(t1)
   11c44:	01a33423          	sd	s10,8(t1)
   11c48:	12f13023          	sd	a5,288(sp)
   11c4c:	10d12c23          	sw	a3,280(sp)
   11c50:	01030313          	addi	t1,t1,16
   11c54:	fcdcdee3          	bge	s9,a3,11c30 <_vfprintf_r+0x17c4>
   11c58:	11010613          	addi	a2,sp,272
   11c5c:	000b0593          	mv	a1,s6
   11c60:	000a8513          	mv	a0,s5
   11c64:	0a1090ef          	jal	ra,1b504 <__sprint_r>
   11c68:	00050463          	beqz	a0,11c70 <_vfprintf_r+0x1804>
   11c6c:	a91fe06f          	j	106fc <_vfprintf_r+0x290>
   11c70:	12013783          	ld	a5,288(sp)
   11c74:	11812683          	lw	a3,280(sp)
   11c78:	19010313          	addi	t1,sp,400
   11c7c:	fb5ff06f          	j	11c30 <_vfprintf_r+0x17c4>
   11c80:	000d8493          	mv	s1,s11
   11c84:	981fe06f          	j	10604 <_vfprintf_r+0x198>
   11c88:	00013583          	ld	a1,0(sp)
   11c8c:	11010613          	addi	a2,sp,272
   11c90:	000a8513          	mv	a0,s5
   11c94:	071090ef          	jal	ra,1b504 <__sprint_r>
   11c98:	00050463          	beqz	a0,11ca0 <_vfprintf_r+0x1834>
   11c9c:	a61fe06f          	j	106fc <_vfprintf_r+0x290>
   11ca0:	12013c83          	ld	s9,288(sp)
   11ca4:	11812783          	lw	a5,280(sp)
   11ca8:	19010413          	addi	s0,sp,400
   11cac:	921ff06f          	j	115cc <_vfprintf_r+0x1160>
   11cb0:	00013583          	ld	a1,0(sp)
   11cb4:	11010613          	addi	a2,sp,272
   11cb8:	000a8513          	mv	a0,s5
   11cbc:	049090ef          	jal	ra,1b504 <__sprint_r>
   11cc0:	00050463          	beqz	a0,11cc8 <_vfprintf_r+0x185c>
   11cc4:	a39fe06f          	j	106fc <_vfprintf_r+0x290>
   11cc8:	12013c83          	ld	s9,288(sp)
   11ccc:	11812783          	lw	a5,280(sp)
   11cd0:	19010413          	addi	s0,sp,400
   11cd4:	929ff06f          	j	115fc <_vfprintf_r+0x1190>
   11cd8:	11812683          	lw	a3,280(sp)
   11cdc:	0000f617          	auipc	a2,0xf
   11ce0:	6fc60613          	addi	a2,a2,1788 # 213d8 <zeroes.4539+0xa0>
   11ce4:	00c33023          	sd	a2,0(t1)
   11ce8:	0016869b          	addiw	a3,a3,1
   11cec:	00100613          	li	a2,1
   11cf0:	00178793          	addi	a5,a5,1
   11cf4:	00c33423          	sd	a2,8(t1)
   11cf8:	10d12c23          	sw	a3,280(sp)
   11cfc:	0006861b          	sext.w	a2,a3
   11d00:	12f13023          	sd	a5,288(sp)
   11d04:	00700693          	li	a3,7
   11d08:	01030313          	addi	t1,t1,16
   11d0c:	44c6cc63          	blt	a3,a2,12164 <_vfprintf_r+0x1cf8>
   11d10:	ac059063          	bnez	a1,10fd0 <_vfprintf_r+0xb64>
   11d14:	02813703          	ld	a4,40(sp)
   11d18:	0014f693          	andi	a3,s1,1
   11d1c:	00d766b3          	or	a3,a4,a3
   11d20:	a0068863          	beqz	a3,10f30 <_vfprintf_r+0xac4>
   11d24:	11812603          	lw	a2,280(sp)
   11d28:	04813703          	ld	a4,72(sp)
   11d2c:	05813683          	ld	a3,88(sp)
   11d30:	00f707b3          	add	a5,a4,a5
   11d34:	00d33023          	sd	a3,0(t1)
   11d38:	0016069b          	addiw	a3,a2,1
   11d3c:	00e33423          	sd	a4,8(t1)
   11d40:	12f13023          	sd	a5,288(sp)
   11d44:	10d12c23          	sw	a3,280(sp)
   11d48:	00700613          	li	a2,7
   11d4c:	aad64a63          	blt	a2,a3,11000 <_vfprintf_r+0xb94>
   11d50:	01030313          	addi	t1,t1,16
   11d54:	ad8ff06f          	j	1102c <_vfprintf_r+0xbc0>
   11d58:	400a7493          	andi	s1,s4,1024
   11d5c:	01213c23          	sd	s2,24(sp)
   11d60:	07813903          	ld	s2,120(sp)
   11d64:	18c10c93          	addi	s9,sp,396
   11d68:	0004849b          	sext.w	s1,s1
   11d6c:	00000793          	li	a5,0
   11d70:	000c8d93          	mv	s11,s9
   11d74:	02813023          	sd	s0,32(sp)
   11d78:	03313c23          	sd	s3,56(sp)
   11d7c:	000c8413          	mv	s0,s9
   11d80:	000b0993          	mv	s3,s6
   11d84:	000a8c93          	mv	s9,s5
   11d88:	00048b13          	mv	s6,s1
   11d8c:	00030a93          	mv	s5,t1
   11d90:	00078493          	mv	s1,a5
   11d94:	00a00593          	li	a1,10
   11d98:	00098513          	mv	a0,s3
   11d9c:	33c0f0ef          	jal	ra,210d8 <__umoddi3>
   11da0:	0305051b          	addiw	a0,a0,48
   11da4:	fea40fa3          	sb	a0,-1(s0)
   11da8:	0014849b          	addiw	s1,s1,1
   11dac:	fff40413          	addi	s0,s0,-1
   11db0:	000b0663          	beqz	s6,11dbc <_vfprintf_r+0x1950>
   11db4:	00094683          	lbu	a3,0(s2)
   11db8:	cad48a63          	beq	s1,a3,1126c <_vfprintf_r+0xe00>
   11dbc:	00a00593          	li	a1,10
   11dc0:	00098513          	mv	a0,s3
   11dc4:	2cc0f0ef          	jal	ra,21090 <__udivdi3>
   11dc8:	00900793          	li	a5,9
   11dcc:	cb37f863          	bgeu	a5,s3,1127c <_vfprintf_r+0xe10>
   11dd0:	00050993          	mv	s3,a0
   11dd4:	fc1ff06f          	j	11d94 <_vfprintf_r+0x1928>
   11dd8:	00013583          	ld	a1,0(sp)
   11ddc:	11010613          	addi	a2,sp,272
   11de0:	000a8513          	mv	a0,s5
   11de4:	720090ef          	jal	ra,1b504 <__sprint_r>
   11de8:	00050463          	beqz	a0,11df0 <_vfprintf_r+0x1984>
   11dec:	911fe06f          	j	106fc <_vfprintf_r+0x290>
   11df0:	19010313          	addi	t1,sp,400
   11df4:	d20ff06f          	j	11314 <_vfprintf_r+0xea8>
   11df8:	0017069b          	addiw	a3,a4,1
   11dfc:	01833023          	sd	s8,0(t1)
   11e00:	00833423          	sd	s0,8(t1)
   11e04:	008787b3          	add	a5,a5,s0
   11e08:	12f13023          	sd	a5,288(sp)
   11e0c:	10d12c23          	sw	a3,280(sp)
   11e10:	00700713          	li	a4,7
   11e14:	90d75c63          	bge	a4,a3,10f2c <_vfprintf_r+0xac0>
   11e18:	a38ff06f          	j	11050 <_vfprintf_r+0xbe4>
   11e1c:	10013503          	ld	a0,256(sp)
   11e20:	10813583          	ld	a1,264(sp)
   11e24:	00000613          	li	a2,0
   11e28:	00000693          	li	a3,0
   11e2c:	6850d0ef          	jal	ra,1fcb0 <__letf2>
   11e30:	01813303          	ld	t1,24(sp)
   11e34:	08054ce3          	bltz	a0,126cc <_vfprintf_r+0x2260>
   11e38:	0df14783          	lbu	a5,223(sp)
   11e3c:	04700693          	li	a3,71
   11e40:	0000fd97          	auipc	s11,0xf
   11e44:	540d8d93          	addi	s11,s11,1344 # 21380 <zeroes.4539+0x48>
   11e48:	3486c263          	blt	a3,s0,1218c <_vfprintf_r+0x1d20>
   11e4c:	f7f4f493          	andi	s1,s1,-129
   11e50:	00013c23          	sd	zero,24(sp)
   11e54:	04013023          	sd	zero,64(sp)
   11e58:	02013c23          	sd	zero,56(sp)
   11e5c:	02013023          	sd	zero,32(sp)
   11e60:	0004849b          	sext.w	s1,s1
   11e64:	00300a13          	li	s4,3
   11e68:	00300c93          	li	s9,3
   11e6c:	00000b93          	li	s7,0
   11e70:	00078463          	beqz	a5,11e78 <_vfprintf_r+0x1a0c>
   11e74:	99dfe06f          	j	10810 <_vfprintf_r+0x3a4>
   11e78:	fe1fe06f          	j	10e58 <_vfprintf_r+0x9ec>
   11e7c:	000d8513          	mv	a0,s11
   11e80:	07913023          	sd	s9,96(sp)
   11e84:	4d1060ef          	jal	ra,18b54 <strlen>
   11e88:	00050c9b          	sext.w	s9,a0
   11e8c:	fffcca13          	not	s4,s9
   11e90:	0df14783          	lbu	a5,223(sp)
   11e94:	43fa5a13          	srai	s4,s4,0x3f
   11e98:	014cfa33          	and	s4,s9,s4
   11e9c:	01613823          	sd	s6,16(sp)
   11ea0:	00013c23          	sd	zero,24(sp)
   11ea4:	04013023          	sd	zero,64(sp)
   11ea8:	02013c23          	sd	zero,56(sp)
   11eac:	02013023          	sd	zero,32(sp)
   11eb0:	000a0a1b          	sext.w	s4,s4
   11eb4:	00000b93          	li	s7,0
   11eb8:	06013303          	ld	t1,96(sp)
   11ebc:	00078463          	beqz	a5,11ec4 <_vfprintf_r+0x1a58>
   11ec0:	951fe06f          	j	10810 <_vfprintf_r+0x3a4>
   11ec4:	f95fe06f          	j	10e58 <_vfprintf_r+0x9ec>
   11ec8:	2004f793          	andi	a5,s1,512
   11ecc:	3a078063          	beqz	a5,1226c <_vfprintf_r+0x1e00>
   11ed0:	0ffb7b13          	andi	s6,s6,255
   11ed4:	00e13823          	sd	a4,16(sp)
   11ed8:	db1fe06f          	j	10c88 <_vfprintf_r+0x81c>
   11edc:	2004f793          	andi	a5,s1,512
   11ee0:	36078a63          	beqz	a5,12254 <_vfprintf_r+0x1de8>
   11ee4:	0ffb7b13          	andi	s6,s6,255
   11ee8:	00e13823          	sd	a4,16(sp)
   11eec:	00048a13          	mv	s4,s1
   11ef0:	00100793          	li	a5,1
   11ef4:	8c5fe06f          	j	107b8 <_vfprintf_r+0x34c>
   11ef8:	2004f793          	andi	a5,s1,512
   11efc:	34078063          	beqz	a5,1223c <_vfprintf_r+0x1dd0>
   11f00:	01013783          	ld	a5,16(sp)
   11f04:	00048a13          	mv	s4,s1
   11f08:	00e13823          	sd	a4,16(sp)
   11f0c:	00078b03          	lb	s6,0(a5)
   11f10:	000b0793          	mv	a5,s6
   11f14:	dd1fe06f          	j	10ce4 <_vfprintf_r+0x878>
   11f18:	2004f793          	andi	a5,s1,512
   11f1c:	30078a63          	beqz	a5,12230 <_vfprintf_r+0x1dc4>
   11f20:	0ffb7b13          	andi	s6,s6,255
   11f24:	865fe06f          	j	10788 <_vfprintf_r+0x31c>
   11f28:	10813783          	ld	a5,264(sp)
   11f2c:	3407c863          	bltz	a5,1227c <_vfprintf_r+0x1e10>
   11f30:	0df14783          	lbu	a5,223(sp)
   11f34:	04700693          	li	a3,71
   11f38:	0000fd97          	auipc	s11,0xf
   11f3c:	458d8d93          	addi	s11,s11,1112 # 21390 <zeroes.4539+0x58>
   11f40:	f086d6e3          	bge	a3,s0,11e4c <_vfprintf_r+0x19e0>
   11f44:	0000fd97          	auipc	s11,0xf
   11f48:	454d8d93          	addi	s11,s11,1108 # 21398 <zeroes.4539+0x60>
   11f4c:	f01ff06f          	j	11e4c <_vfprintf_r+0x19e0>
   11f50:	0016861b          	addiw	a2,a3,1
   11f54:	008787b3          	add	a5,a5,s0
   11f58:	01833023          	sd	s8,0(t1)
   11f5c:	00833423          	sd	s0,8(t1)
   11f60:	12f13023          	sd	a5,288(sp)
   11f64:	10c12c23          	sw	a2,280(sp)
   11f68:	00700693          	li	a3,7
   11f6c:	01030313          	addi	t1,t1,16
   11f70:	9cc6d2e3          	bge	a3,a2,11934 <_vfprintf_r+0x14c8>
   11f74:	00013583          	ld	a1,0(sp)
   11f78:	11010613          	addi	a2,sp,272
   11f7c:	000a8513          	mv	a0,s5
   11f80:	584090ef          	jal	ra,1b504 <__sprint_r>
   11f84:	00050463          	beqz	a0,11f8c <_vfprintf_r+0x1b20>
   11f88:	f74fe06f          	j	106fc <_vfprintf_r+0x290>
   11f8c:	12013783          	ld	a5,288(sp)
   11f90:	19010313          	addi	t1,sp,400
   11f94:	9a1ff06f          	j	11934 <_vfprintf_r+0x14c8>
   11f98:	02813703          	ld	a4,40(sp)
   11f9c:	03813c83          	ld	s9,56(sp)
   11fa0:	03213023          	sd	s2,32(sp)
   11fa4:	06913023          	sd	s1,96(sp)
   11fa8:	09313023          	sd	s3,128(sp)
   11fac:	04013903          	ld	s2,64(sp)
   11fb0:	03413c23          	sd	s4,56(sp)
   11fb4:	05b13023          	sd	s11,64(sp)
   11fb8:	00700b13          	li	s6,7
   11fbc:	00ed8433          	add	s0,s11,a4
   11fc0:	08813983          	ld	s3,136(sp)
   11fc4:	07813483          	ld	s1,120(sp)
   11fc8:	00013a03          	ld	s4,0(sp)
   11fcc:	0a0c8063          	beqz	s9,1206c <_vfprintf_r+0x1c00>
   11fd0:	0a091063          	bnez	s2,12070 <_vfprintf_r+0x1c04>
   11fd4:	fff48493          	addi	s1,s1,-1
   11fd8:	fffc8c9b          	addiw	s9,s9,-1
   11fdc:	07013703          	ld	a4,112(sp)
   11fe0:	013787b3          	add	a5,a5,s3
   11fe4:	01333423          	sd	s3,8(t1)
   11fe8:	00e33023          	sd	a4,0(t1)
   11fec:	11812703          	lw	a4,280(sp)
   11ff0:	12f13023          	sd	a5,288(sp)
   11ff4:	01030313          	addi	t1,t1,16
   11ff8:	0017069b          	addiw	a3,a4,1
   11ffc:	10d12c23          	sw	a3,280(sp)
   12000:	10db4263          	blt	s6,a3,12104 <_vfprintf_r+0x1c98>
   12004:	0004c603          	lbu	a2,0(s1)
   12008:	417405bb          	subw	a1,s0,s7
   1200c:	0006071b          	sext.w	a4,a2
   12010:	00070693          	mv	a3,a4
   12014:	00e5d463          	bge	a1,a4,1201c <_vfprintf_r+0x1bb0>
   12018:	00058693          	mv	a3,a1
   1201c:	00068d9b          	sext.w	s11,a3
   12020:	03b05863          	blez	s11,12050 <_vfprintf_r+0x1be4>
   12024:	11812703          	lw	a4,280(sp)
   12028:	01b787b3          	add	a5,a5,s11
   1202c:	01733023          	sd	s7,0(t1)
   12030:	0017061b          	addiw	a2,a4,1
   12034:	01b33423          	sd	s11,8(t1)
   12038:	12f13023          	sd	a5,288(sp)
   1203c:	10c12c23          	sw	a2,280(sp)
   12040:	0ecb4463          	blt	s6,a2,12128 <_vfprintf_r+0x1cbc>
   12044:	0004c603          	lbu	a2,0(s1)
   12048:	01030313          	addi	t1,t1,16
   1204c:	0006071b          	sext.w	a4,a2
   12050:	fffdc593          	not	a1,s11
   12054:	43f5d593          	srai	a1,a1,0x3f
   12058:	00bdf6b3          	and	a3,s11,a1
   1205c:	40d70dbb          	subw	s11,a4,a3
   12060:	01b04c63          	bgtz	s11,12078 <_vfprintf_r+0x1c0c>
   12064:	00cb8bb3          	add	s7,s7,a2
   12068:	f60c94e3          	bnez	s9,11fd0 <_vfprintf_r+0x1b64>
   1206c:	48090a63          	beqz	s2,12500 <_vfprintf_r+0x2094>
   12070:	fff9091b          	addiw	s2,s2,-1
   12074:	f69ff06f          	j	11fdc <_vfprintf_r+0x1b70>
   12078:	11812683          	lw	a3,280(sp)
   1207c:	01bd4863          	blt	s10,s11,1208c <_vfprintf_r+0x1c20>
   12080:	0580006f          	j	120d8 <_vfprintf_r+0x1c6c>
   12084:	ff0d8d9b          	addiw	s11,s11,-16
   12088:	05bd5863          	bge	s10,s11,120d8 <_vfprintf_r+0x1c6c>
   1208c:	0016869b          	addiw	a3,a3,1
   12090:	01078793          	addi	a5,a5,16
   12094:	01833023          	sd	s8,0(t1)
   12098:	01a33423          	sd	s10,8(t1)
   1209c:	12f13023          	sd	a5,288(sp)
   120a0:	10d12c23          	sw	a3,280(sp)
   120a4:	01030313          	addi	t1,t1,16
   120a8:	fcdb5ee3          	bge	s6,a3,12084 <_vfprintf_r+0x1c18>
   120ac:	11010613          	addi	a2,sp,272
   120b0:	000a0593          	mv	a1,s4
   120b4:	000a8513          	mv	a0,s5
   120b8:	44c090ef          	jal	ra,1b504 <__sprint_r>
   120bc:	00050463          	beqz	a0,120c4 <_vfprintf_r+0x1c58>
   120c0:	e3cfe06f          	j	106fc <_vfprintf_r+0x290>
   120c4:	ff0d8d9b          	addiw	s11,s11,-16
   120c8:	12013783          	ld	a5,288(sp)
   120cc:	11812683          	lw	a3,280(sp)
   120d0:	19010313          	addi	t1,sp,400
   120d4:	fbbd4ce3          	blt	s10,s11,1208c <_vfprintf_r+0x1c20>
   120d8:	0016871b          	addiw	a4,a3,1
   120dc:	01b787b3          	add	a5,a5,s11
   120e0:	01833023          	sd	s8,0(t1)
   120e4:	01b33423          	sd	s11,8(t1)
   120e8:	12f13023          	sd	a5,288(sp)
   120ec:	10e12c23          	sw	a4,280(sp)
   120f0:	58eb4463          	blt	s6,a4,12678 <_vfprintf_r+0x220c>
   120f4:	0004c603          	lbu	a2,0(s1)
   120f8:	01030313          	addi	t1,t1,16
   120fc:	00cb8bb3          	add	s7,s7,a2
   12100:	f69ff06f          	j	12068 <_vfprintf_r+0x1bfc>
   12104:	11010613          	addi	a2,sp,272
   12108:	000a0593          	mv	a1,s4
   1210c:	000a8513          	mv	a0,s5
   12110:	3f4090ef          	jal	ra,1b504 <__sprint_r>
   12114:	00050463          	beqz	a0,1211c <_vfprintf_r+0x1cb0>
   12118:	de4fe06f          	j	106fc <_vfprintf_r+0x290>
   1211c:	12013783          	ld	a5,288(sp)
   12120:	19010313          	addi	t1,sp,400
   12124:	ee1ff06f          	j	12004 <_vfprintf_r+0x1b98>
   12128:	11010613          	addi	a2,sp,272
   1212c:	000a0593          	mv	a1,s4
   12130:	000a8513          	mv	a0,s5
   12134:	3d0090ef          	jal	ra,1b504 <__sprint_r>
   12138:	00050463          	beqz	a0,12140 <_vfprintf_r+0x1cd4>
   1213c:	dc0fe06f          	j	106fc <_vfprintf_r+0x290>
   12140:	0004c603          	lbu	a2,0(s1)
   12144:	12013783          	ld	a5,288(sp)
   12148:	19010313          	addi	t1,sp,400
   1214c:	0006071b          	sext.w	a4,a2
   12150:	f01ff06f          	j	12050 <_vfprintf_r+0x1be4>
   12154:	001b0b1b          	addiw	s6,s6,1
   12158:	01078313          	addi	t1,a5,16
   1215c:	00078413          	mv	s0,a5
   12160:	d10ff06f          	j	11670 <_vfprintf_r+0x1204>
   12164:	00013583          	ld	a1,0(sp)
   12168:	11010613          	addi	a2,sp,272
   1216c:	000a8513          	mv	a0,s5
   12170:	394090ef          	jal	ra,1b504 <__sprint_r>
   12174:	00050463          	beqz	a0,1217c <_vfprintf_r+0x1d10>
   12178:	d84fe06f          	j	106fc <_vfprintf_r+0x290>
   1217c:	0e812583          	lw	a1,232(sp)
   12180:	12013783          	ld	a5,288(sp)
   12184:	19010313          	addi	t1,sp,400
   12188:	b89ff06f          	j	11d10 <_vfprintf_r+0x18a4>
   1218c:	0000fd97          	auipc	s11,0xf
   12190:	1fcd8d93          	addi	s11,s11,508 # 21388 <zeroes.4539+0x50>
   12194:	cb9ff06f          	j	11e4c <_vfprintf_r+0x19e0>
   12198:	00013583          	ld	a1,0(sp)
   1219c:	11010613          	addi	a2,sp,272
   121a0:	000a8513          	mv	a0,s5
   121a4:	360090ef          	jal	ra,1b504 <__sprint_r>
   121a8:	00050463          	beqz	a0,121b0 <_vfprintf_r+0x1d44>
   121ac:	d50fe06f          	j	106fc <_vfprintf_r+0x290>
   121b0:	12013783          	ld	a5,288(sp)
   121b4:	19010313          	addi	t1,sp,400
   121b8:	f64ff06f          	j	1191c <_vfprintf_r+0x14b0>
   121bc:	00600e13          	li	t3,6
   121c0:	a45ff06f          	j	11c04 <_vfprintf_r+0x1798>
   121c4:	08813783          	ld	a5,136(sp)
   121c8:	07013583          	ld	a1,112(sp)
   121cc:	00000493          	li	s1,0
   121d0:	40f40433          	sub	s0,s0,a5
   121d4:	00078613          	mv	a2,a5
   121d8:	00040513          	mv	a0,s0
   121dc:	249060ef          	jal	ra,18c24 <strncpy>
   121e0:	00194683          	lbu	a3,1(s2)
   121e4:	00098513          	mv	a0,s3
   121e8:	00a00593          	li	a1,10
   121ec:	00d03733          	snez	a4,a3
   121f0:	00e90933          	add	s2,s2,a4
   121f4:	69d0e0ef          	jal	ra,21090 <__udivdi3>
   121f8:	00050993          	mv	s3,a0
   121fc:	b99ff06f          	j	11d94 <_vfprintf_r+0x1928>
   12200:	02813683          	ld	a3,40(sp)
   12204:	00dd8733          	add	a4,s11,a3
   12208:	4086863b          	subw	a2,a3,s0
   1220c:	4177083b          	subw	a6,a4,s7
   12210:	0008041b          	sext.w	s0,a6
   12214:	fb065e63          	bge	a2,a6,119d0 <_vfprintf_r+0x1564>
   12218:	0006041b          	sext.w	s0,a2
   1221c:	fb4ff06f          	j	119d0 <_vfprintf_r+0x1564>
   12220:	00813783          	ld	a5,8(sp)
   12224:	00090d93          	mv	s11,s2
   12228:	00f71023          	sh	a5,0(a4)
   1222c:	d51fe06f          	j	10f7c <_vfprintf_r+0xb10>
   12230:	020b1b13          	slli	s6,s6,0x20
   12234:	020b5b13          	srli	s6,s6,0x20
   12238:	d50fe06f          	j	10788 <_vfprintf_r+0x31c>
   1223c:	01013783          	ld	a5,16(sp)
   12240:	00048a13          	mv	s4,s1
   12244:	00e13823          	sd	a4,16(sp)
   12248:	0007ab03          	lw	s6,0(a5)
   1224c:	000b0793          	mv	a5,s6
   12250:	a95fe06f          	j	10ce4 <_vfprintf_r+0x878>
   12254:	020b1b13          	slli	s6,s6,0x20
   12258:	020b5b13          	srli	s6,s6,0x20
   1225c:	00e13823          	sd	a4,16(sp)
   12260:	00048a13          	mv	s4,s1
   12264:	00100793          	li	a5,1
   12268:	d50fe06f          	j	107b8 <_vfprintf_r+0x34c>
   1226c:	020b1b13          	slli	s6,s6,0x20
   12270:	020b5b13          	srli	s6,s6,0x20
   12274:	00e13823          	sd	a4,16(sp)
   12278:	a11fe06f          	j	10c88 <_vfprintf_r+0x81c>
   1227c:	02d00793          	li	a5,45
   12280:	0cf10fa3          	sb	a5,223(sp)
   12284:	cb1ff06f          	j	11f34 <_vfprintf_r+0x1ac8>
   12288:	03000793          	li	a5,48
   1228c:	0ef10023          	sb	a5,224(sp)
   12290:	05800713          	li	a4,88
   12294:	0024e793          	ori	a5,s1,2
   12298:	0007879b          	sext.w	a5,a5
   1229c:	0ee100a3          	sb	a4,225(sp)
   122a0:	06300693          	li	a3,99
   122a4:	04f13023          	sd	a5,64(sp)
   122a8:	00013c23          	sd	zero,24(sp)
   122ac:	12810d93          	addi	s11,sp,296
   122b0:	6776cc63          	blt	a3,s7,12928 <_vfprintf_r+0x24bc>
   122b4:	10813c83          	ld	s9,264(sp)
   122b8:	fdf47793          	andi	a5,s0,-33
   122bc:	1024e493          	ori	s1,s1,258
   122c0:	02f13c23          	sd	a5,56(sp)
   122c4:	06013023          	sd	zero,96(sp)
   122c8:	0004849b          	sext.w	s1,s1
   122cc:	10013e83          	ld	t4,256(sp)
   122d0:	380cc863          	bltz	s9,12660 <_vfprintf_r+0x21f4>
   122d4:	06100793          	li	a5,97
   122d8:	76f40e63          	beq	s0,a5,12a54 <_vfprintf_r+0x25e8>
   122dc:	04100793          	li	a5,65
   122e0:	00f40463          	beq	s0,a5,122e8 <_vfprintf_r+0x1e7c>
   122e4:	ec4fe06f          	j	109a8 <_vfprintf_r+0x53c>
   122e8:	000e8513          	mv	a0,t4
   122ec:	000c8593          	mv	a1,s9
   122f0:	02613423          	sd	t1,40(sp)
   122f4:	3790e0ef          	jal	ra,20e6c <__trunctfdf2>
   122f8:	0e810593          	addi	a1,sp,232
   122fc:	340060ef          	jal	ra,1863c <frexp>
   12300:	2790e0ef          	jal	ra,20d78 <__extenddftf2>
   12304:	0000f797          	auipc	a5,0xf
   12308:	06c78793          	addi	a5,a5,108 # 21370 <zeroes.4539+0x38>
   1230c:	0087b683          	ld	a3,8(a5)
   12310:	00000613          	li	a2,0
   12314:	27d0d0ef          	jal	ra,1fd90 <__multf3>
   12318:	00000613          	li	a2,0
   1231c:	00000693          	li	a3,0
   12320:	00050c93          	mv	s9,a0
   12324:	02b13023          	sd	a1,32(sp)
   12328:	01d0d0ef          	jal	ra,1fb44 <__eqtf2>
   1232c:	02013f03          	ld	t5,32(sp)
   12330:	02813303          	ld	t1,40(sp)
   12334:	00051663          	bnez	a0,12340 <_vfprintf_r+0x1ed4>
   12338:	00100793          	li	a5,1
   1233c:	0ef12423          	sw	a5,232(sp)
   12340:	0000f797          	auipc	a5,0xf
   12344:	07878793          	addi	a5,a5,120 # 213b8 <zeroes.4539+0x80>
   12348:	02f13023          	sd	a5,32(sp)
   1234c:	000b869b          	sext.w	a3,s7
   12350:	02069793          	slli	a5,a3,0x20
   12354:	0207d793          	srli	a5,a5,0x20
   12358:	00178793          	addi	a5,a5,1
   1235c:	00fd8633          	add	a2,s11,a5
   12360:	0000f797          	auipc	a5,0xf
   12364:	ff078793          	addi	a5,a5,-16 # 21350 <zeroes.4539+0x18>
   12368:	0087b783          	ld	a5,8(a5)
   1236c:	00dd86bb          	addw	a3,s11,a3
   12370:	09213023          	sd	s2,128(sp)
   12374:	08813823          	sd	s0,144(sp)
   12378:	0b313023          	sd	s3,160(sp)
   1237c:	0b713423          	sd	s7,168(sp)
   12380:	0cc13423          	sd	a2,200(sp)
   12384:	02f13423          	sd	a5,40(sp)
   12388:	08913c23          	sd	s1,152(sp)
   1238c:	0a613823          	sd	t1,176(sp)
   12390:	000d8413          	mv	s0,s11
   12394:	00060913          	mv	s2,a2
   12398:	0b513c23          	sd	s5,184(sp)
   1239c:	0db13023          	sd	s11,192(sp)
   123a0:	000c8b13          	mv	s6,s9
   123a4:	000f0b93          	mv	s7,t5
   123a8:	00068993          	mv	s3,a3
   123ac:	0180006f          	j	123c4 <_vfprintf_r+0x1f58>
   123b0:	00000613          	li	a2,0
   123b4:	00000693          	li	a3,0
   123b8:	78c0d0ef          	jal	ra,1fb44 <__eqtf2>
   123bc:	5a050c63          	beqz	a0,12974 <_vfprintf_r+0x2508>
   123c0:	000c8413          	mv	s0,s9
   123c4:	02813683          	ld	a3,40(sp)
   123c8:	00000613          	li	a2,0
   123cc:	000b0513          	mv	a0,s6
   123d0:	000b8593          	mv	a1,s7
   123d4:	1bd0d0ef          	jal	ra,1fd90 <__multf3>
   123d8:	00058a93          	mv	s5,a1
   123dc:	00050493          	mv	s1,a0
   123e0:	0a10e0ef          	jal	ra,20c80 <__fixtfsi>
   123e4:	00050a1b          	sext.w	s4,a0
   123e8:	000a0513          	mv	a0,s4
   123ec:	0fd0e0ef          	jal	ra,20ce8 <__floatsitf>
   123f0:	00058693          	mv	a3,a1
   123f4:	00050613          	mv	a2,a0
   123f8:	000a8593          	mv	a1,s5
   123fc:	00048513          	mv	a0,s1
   12400:	0b00e0ef          	jal	ra,204b0 <__subtf3>
   12404:	02013783          	ld	a5,32(sp)
   12408:	00140c93          	addi	s9,s0,1
   1240c:	00050d93          	mv	s11,a0
   12410:	014787b3          	add	a5,a5,s4
   12414:	0007c683          	lbu	a3,0(a5)
   12418:	00058493          	mv	s1,a1
   1241c:	00050b13          	mv	s6,a0
   12420:	fedc8fa3          	sb	a3,-1(s9)
   12424:	00058b93          	mv	s7,a1
   12428:	41998abb          	subw	s5,s3,s9
   1242c:	f92c92e3          	bne	s9,s2,123b0 <_vfprintf_r+0x1f44>
   12430:	08013903          	ld	s2,128(sp)
   12434:	0a013983          	ld	s3,160(sp)
   12438:	08813023          	sd	s0,128(sp)
   1243c:	0a813b83          	ld	s7,168(sp)
   12440:	0b013303          	ld	t1,176(sp)
   12444:	09013403          	ld	s0,144(sp)
   12448:	0b813a83          	ld	s5,184(sp)
   1244c:	0c013d83          	ld	s11,192(sp)
   12450:	09813483          	ld	s1,152(sp)
   12454:	0c813b03          	ld	s6,200(sp)
   12458:	fff00793          	li	a5,-1
   1245c:	00050893          	mv	a7,a0
   12460:	00058813          	mv	a6,a1
   12464:	02f13423          	sd	a5,40(sp)
   12468:	0000f697          	auipc	a3,0xf
   1246c:	ef868693          	addi	a3,a3,-264 # 21360 <zeroes.4539+0x28>
   12470:	0086b783          	ld	a5,8(a3)
   12474:	00000613          	li	a2,0
   12478:	00088513          	mv	a0,a7
   1247c:	00078693          	mv	a3,a5
   12480:	00080593          	mv	a1,a6
   12484:	08613c23          	sd	t1,152(sp)
   12488:	08f13823          	sd	a5,144(sp)
   1248c:	0b113423          	sd	a7,168(sp)
   12490:	0b013023          	sd	a6,160(sp)
   12494:	73c0d0ef          	jal	ra,1fbd0 <__getf2>
   12498:	09813303          	ld	t1,152(sp)
   1249c:	3ea04663          	bgtz	a0,12888 <_vfprintf_r+0x241c>
   124a0:	0a813883          	ld	a7,168(sp)
   124a4:	0a013803          	ld	a6,160(sp)
   124a8:	09013683          	ld	a3,144(sp)
   124ac:	00000613          	li	a2,0
   124b0:	00088513          	mv	a0,a7
   124b4:	00080593          	mv	a1,a6
   124b8:	68c0d0ef          	jal	ra,1fb44 <__eqtf2>
   124bc:	09813303          	ld	t1,152(sp)
   124c0:	00051663          	bnez	a0,124cc <_vfprintf_r+0x2060>
   124c4:	001a7a13          	andi	s4,s4,1
   124c8:	3c0a1063          	bnez	s4,12888 <_vfprintf_r+0x241c>
   124cc:	02813783          	ld	a5,40(sp)
   124d0:	03000613          	li	a2,48
   124d4:	00178693          	addi	a3,a5,1
   124d8:	00db06b3          	add	a3,s6,a3
   124dc:	0007c863          	bltz	a5,124ec <_vfprintf_r+0x2080>
   124e0:	001b0b13          	addi	s6,s6,1
   124e4:	fecb0fa3          	sb	a2,-1(s6)
   124e8:	ff669ce3          	bne	a3,s6,124e0 <_vfprintf_r+0x2074>
   124ec:	41bb07bb          	subw	a5,s6,s11
   124f0:	02f13423          	sd	a5,40(sp)
   124f4:	d38fe06f          	j	10a2c <_vfprintf_r+0x5c0>
   124f8:	00048a13          	mv	s4,s1
   124fc:	d59fe06f          	j	11254 <_vfprintf_r+0xde8>
   12500:	04013d83          	ld	s11,64(sp)
   12504:	02813703          	ld	a4,40(sp)
   12508:	06913c23          	sd	s1,120(sp)
   1250c:	02013903          	ld	s2,32(sp)
   12510:	00ed86b3          	add	a3,s11,a4
   12514:	08013983          	ld	s3,128(sp)
   12518:	06013483          	ld	s1,96(sp)
   1251c:	03813a03          	ld	s4,56(sp)
   12520:	c376f263          	bgeu	a3,s7,11944 <_vfprintf_r+0x14d8>
   12524:	00068b93          	mv	s7,a3
   12528:	c1cff06f          	j	11944 <_vfprintf_r+0x14d8>
   1252c:	02013703          	ld	a4,32(sp)
   12530:	ffd00793          	li	a5,-3
   12534:	00f74463          	blt	a4,a5,1253c <_vfprintf_r+0x20d0>
   12538:	00ebda63          	bge	s7,a4,1254c <_vfprintf_r+0x20e0>
   1253c:	ffe4041b          	addiw	s0,s0,-2
   12540:	fdf47793          	andi	a5,s0,-33
   12544:	02f13c23          	sd	a5,56(sp)
   12548:	d0cfe06f          	j	10a54 <_vfprintf_r+0x5e8>
   1254c:	02813783          	ld	a5,40(sp)
   12550:	02013703          	ld	a4,32(sp)
   12554:	20f74c63          	blt	a4,a5,1276c <_vfprintf_r+0x2300>
   12558:	04013783          	ld	a5,64(sp)
   1255c:	00070c93          	mv	s9,a4
   12560:	0017f793          	andi	a5,a5,1
   12564:	00078663          	beqz	a5,12570 <_vfprintf_r+0x2104>
   12568:	04813783          	ld	a5,72(sp)
   1256c:	00e78cbb          	addw	s9,a5,a4
   12570:	04013783          	ld	a5,64(sp)
   12574:	4007f793          	andi	a5,a5,1024
   12578:	00078663          	beqz	a5,12584 <_vfprintf_r+0x2118>
   1257c:	02013783          	ld	a5,32(sp)
   12580:	42f04c63          	bgtz	a5,129b8 <_vfprintf_r+0x254c>
   12584:	fffcca13          	not	s4,s9
   12588:	43fa5a13          	srai	s4,s4,0x3f
   1258c:	014cfa33          	and	s4,s9,s4
   12590:	000a0a1b          	sext.w	s4,s4
   12594:	06700413          	li	s0,103
   12598:	04013023          	sd	zero,64(sp)
   1259c:	02013c23          	sd	zero,56(sp)
   125a0:	df8fe06f          	j	10b98 <_vfprintf_r+0x72c>
   125a4:	0df14783          	lbu	a5,223(sp)
   125a8:	00000b93          	li	s7,0
   125ac:	00078463          	beqz	a5,125b4 <_vfprintf_r+0x2148>
   125b0:	a60fe06f          	j	10810 <_vfprintf_r+0x3a4>
   125b4:	8a5fe06f          	j	10e58 <_vfprintf_r+0x9ec>
   125b8:	0e810793          	addi	a5,sp,232
   125bc:	00300693          	li	a3,3
   125c0:	000e8593          	mv	a1,t4
   125c4:	0f810893          	addi	a7,sp,248
   125c8:	0ec10813          	addi	a6,sp,236
   125cc:	000b8713          	mv	a4,s7
   125d0:	000c8613          	mv	a2,s9
   125d4:	000a8513          	mv	a0,s5
   125d8:	02613423          	sd	t1,40(sp)
   125dc:	03d13023          	sd	t4,32(sp)
   125e0:	6c1020ef          	jal	ra,154a0 <_ldtoa_r>
   125e4:	00054683          	lbu	a3,0(a0)
   125e8:	03000793          	li	a5,48
   125ec:	00050d93          	mv	s11,a0
   125f0:	02013e83          	ld	t4,32(sp)
   125f4:	02813303          	ld	t1,40(sp)
   125f8:	0ef68063          	beq	a3,a5,126d8 <_vfprintf_r+0x226c>
   125fc:	0e812783          	lw	a5,232(sp)
   12600:	017787b3          	add	a5,a5,s7
   12604:	00fd8a33          	add	s4,s11,a5
   12608:	00000613          	li	a2,0
   1260c:	00000693          	li	a3,0
   12610:	000e8513          	mv	a0,t4
   12614:	000c8593          	mv	a1,s9
   12618:	02613023          	sd	t1,32(sp)
   1261c:	5280d0ef          	jal	ra,1fb44 <__eqtf2>
   12620:	000a0793          	mv	a5,s4
   12624:	02013303          	ld	t1,32(sp)
   12628:	00051463          	bnez	a0,12630 <_vfprintf_r+0x21c4>
   1262c:	bf8fe06f          	j	10a24 <_vfprintf_r+0x5b8>
   12630:	0f813783          	ld	a5,248(sp)
   12634:	03000613          	li	a2,48
   12638:	0147e463          	bltu	a5,s4,12640 <_vfprintf_r+0x21d4>
   1263c:	be8fe06f          	j	10a24 <_vfprintf_r+0x5b8>
   12640:	00178713          	addi	a4,a5,1
   12644:	0ee13c23          	sd	a4,248(sp)
   12648:	00c78023          	sb	a2,0(a5)
   1264c:	0f813783          	ld	a5,248(sp)
   12650:	ff47e8e3          	bltu	a5,s4,12640 <_vfprintf_r+0x21d4>
   12654:	bd0fe06f          	j	10a24 <_vfprintf_r+0x5b8>
   12658:	00013c23          	sd	zero,24(sp)
   1265c:	00078493          	mv	s1,a5
   12660:	fff00793          	li	a5,-1
   12664:	03f79793          	slli	a5,a5,0x3f
   12668:	00fcccb3          	xor	s9,s9,a5
   1266c:	02d00793          	li	a5,45
   12670:	06f13023          	sd	a5,96(sp)
   12674:	c61ff06f          	j	122d4 <_vfprintf_r+0x1e68>
   12678:	11010613          	addi	a2,sp,272
   1267c:	000a0593          	mv	a1,s4
   12680:	000a8513          	mv	a0,s5
   12684:	681080ef          	jal	ra,1b504 <__sprint_r>
   12688:	00050463          	beqz	a0,12690 <_vfprintf_r+0x2224>
   1268c:	870fe06f          	j	106fc <_vfprintf_r+0x290>
   12690:	0004c603          	lbu	a2,0(s1)
   12694:	12013783          	ld	a5,288(sp)
   12698:	19010313          	addi	t1,sp,400
   1269c:	00cb8bb3          	add	s7,s7,a2
   126a0:	9c9ff06f          	j	12068 <_vfprintf_r+0x1bfc>
   126a4:	00013583          	ld	a1,0(sp)
   126a8:	11010613          	addi	a2,sp,272
   126ac:	000a8513          	mv	a0,s5
   126b0:	655080ef          	jal	ra,1b504 <__sprint_r>
   126b4:	00050463          	beqz	a0,126bc <_vfprintf_r+0x2250>
   126b8:	844fe06f          	j	106fc <_vfprintf_r+0x290>
   126bc:	0e812403          	lw	s0,232(sp)
   126c0:	12013783          	ld	a5,288(sp)
   126c4:	19010313          	addi	t1,sp,400
   126c8:	ac0ff06f          	j	11988 <_vfprintf_r+0x151c>
   126cc:	02d00793          	li	a5,45
   126d0:	0cf10fa3          	sb	a5,223(sp)
   126d4:	f68ff06f          	j	11e3c <_vfprintf_r+0x19d0>
   126d8:	000e8513          	mv	a0,t4
   126dc:	00000613          	li	a2,0
   126e0:	00000693          	li	a3,0
   126e4:	000c8593          	mv	a1,s9
   126e8:	02613423          	sd	t1,40(sp)
   126ec:	03d13023          	sd	t4,32(sp)
   126f0:	4540d0ef          	jal	ra,1fb44 <__eqtf2>
   126f4:	02013e83          	ld	t4,32(sp)
   126f8:	02813303          	ld	t1,40(sp)
   126fc:	f00500e3          	beqz	a0,125fc <_vfprintf_r+0x2190>
   12700:	00100693          	li	a3,1
   12704:	417687bb          	subw	a5,a3,s7
   12708:	0ef12423          	sw	a5,232(sp)
   1270c:	ef5ff06f          	j	12600 <_vfprintf_r+0x2194>
   12710:	0df14783          	lbu	a5,223(sp)
   12714:	01613823          	sd	s6,16(sp)
   12718:	04013023          	sd	zero,64(sp)
   1271c:	02013c23          	sd	zero,56(sp)
   12720:	02013023          	sd	zero,32(sp)
   12724:	000b8a13          	mv	s4,s7
   12728:	000b8c93          	mv	s9,s7
   1272c:	00000b93          	li	s7,0
   12730:	00078463          	beqz	a5,12738 <_vfprintf_r+0x22cc>
   12734:	8dcfe06f          	j	10810 <_vfprintf_r+0x3a4>
   12738:	f20fe06f          	j	10e58 <_vfprintf_r+0x9ec>
   1273c:	00013583          	ld	a1,0(sp)
   12740:	11010613          	addi	a2,sp,272
   12744:	000a8513          	mv	a0,s5
   12748:	5bd080ef          	jal	ra,1b504 <__sprint_r>
   1274c:	00050463          	beqz	a0,12754 <_vfprintf_r+0x22e8>
   12750:	fadfd06f          	j	106fc <_vfprintf_r+0x290>
   12754:	0e812603          	lw	a2,232(sp)
   12758:	02813703          	ld	a4,40(sp)
   1275c:	12013783          	ld	a5,288(sp)
   12760:	19010313          	addi	t1,sp,400
   12764:	40c7063b          	subw	a2,a4,a2
   12768:	a68ff06f          	j	119d0 <_vfprintf_r+0x1564>
   1276c:	02813703          	ld	a4,40(sp)
   12770:	04813783          	ld	a5,72(sp)
   12774:	06700413          	li	s0,103
   12778:	00e78cbb          	addw	s9,a5,a4
   1277c:	02013703          	ld	a4,32(sp)
   12780:	38e05063          	blez	a4,12b00 <_vfprintf_r+0x2694>
   12784:	04013783          	ld	a5,64(sp)
   12788:	4007f793          	andi	a5,a5,1024
   1278c:	22079863          	bnez	a5,129bc <_vfprintf_r+0x2550>
   12790:	fffcca13          	not	s4,s9
   12794:	43fa5a13          	srai	s4,s4,0x3f
   12798:	014cfa33          	and	s4,s9,s4
   1279c:	000a0a1b          	sext.w	s4,s4
   127a0:	df9ff06f          	j	12598 <_vfprintf_r+0x212c>
   127a4:	04013783          	ld	a5,64(sp)
   127a8:	02013703          	ld	a4,32(sp)
   127ac:	0017f793          	andi	a5,a5,1
   127b0:	00fbe7b3          	or	a5,s7,a5
   127b4:	0007879b          	sext.w	a5,a5
   127b8:	38e05263          	blez	a4,12b3c <_vfprintf_r+0x26d0>
   127bc:	30079063          	bnez	a5,12abc <_vfprintf_r+0x2650>
   127c0:	02013c83          	ld	s9,32(sp)
   127c4:	06600413          	li	s0,102
   127c8:	fbdff06f          	j	12784 <_vfprintf_r+0x2318>
   127cc:	ff000613          	li	a2,-16
   127d0:	40b0043b          	negw	s0,a1
   127d4:	06c5d663          	bge	a1,a2,12840 <_vfprintf_r+0x23d4>
   127d8:	00700c93          	li	s9,7
   127dc:	00013b03          	ld	s6,0(sp)
   127e0:	00c0006f          	j	127ec <_vfprintf_r+0x2380>
   127e4:	ff04041b          	addiw	s0,s0,-16
   127e8:	048d5c63          	bge	s10,s0,12840 <_vfprintf_r+0x23d4>
   127ec:	0016869b          	addiw	a3,a3,1
   127f0:	01078793          	addi	a5,a5,16
   127f4:	01833023          	sd	s8,0(t1)
   127f8:	01a33423          	sd	s10,8(t1)
   127fc:	12f13023          	sd	a5,288(sp)
   12800:	10d12c23          	sw	a3,280(sp)
   12804:	01030313          	addi	t1,t1,16
   12808:	fcdcdee3          	bge	s9,a3,127e4 <_vfprintf_r+0x2378>
   1280c:	11010613          	addi	a2,sp,272
   12810:	000b0593          	mv	a1,s6
   12814:	000a8513          	mv	a0,s5
   12818:	4ed080ef          	jal	ra,1b504 <__sprint_r>
   1281c:	00050463          	beqz	a0,12824 <_vfprintf_r+0x23b8>
   12820:	eddfd06f          	j	106fc <_vfprintf_r+0x290>
   12824:	12013783          	ld	a5,288(sp)
   12828:	11812683          	lw	a3,280(sp)
   1282c:	19010313          	addi	t1,sp,400
   12830:	fb5ff06f          	j	127e4 <_vfprintf_r+0x2378>
   12834:	fff00793          	li	a5,-1
   12838:	00f13423          	sd	a5,8(sp)
   1283c:	ee9fd06f          	j	10724 <_vfprintf_r+0x2b8>
   12840:	0016869b          	addiw	a3,a3,1
   12844:	008787b3          	add	a5,a5,s0
   12848:	01833023          	sd	s8,0(t1)
   1284c:	00833423          	sd	s0,8(t1)
   12850:	12f13023          	sd	a5,288(sp)
   12854:	10d12c23          	sw	a3,280(sp)
   12858:	00700613          	li	a2,7
   1285c:	ced65a63          	bge	a2,a3,11d50 <_vfprintf_r+0x18e4>
   12860:	00013583          	ld	a1,0(sp)
   12864:	11010613          	addi	a2,sp,272
   12868:	000a8513          	mv	a0,s5
   1286c:	499080ef          	jal	ra,1b504 <__sprint_r>
   12870:	00050463          	beqz	a0,12878 <_vfprintf_r+0x240c>
   12874:	e89fd06f          	j	106fc <_vfprintf_r+0x290>
   12878:	12013783          	ld	a5,288(sp)
   1287c:	11812683          	lw	a3,280(sp)
   12880:	19010313          	addi	t1,sp,400
   12884:	fa8fe06f          	j	1102c <_vfprintf_r+0xbc0>
   12888:	08013783          	ld	a5,128(sp)
   1288c:	000b0693          	mv	a3,s6
   12890:	0ef13c23          	sd	a5,248(sp)
   12894:	02013783          	ld	a5,32(sp)
   12898:	fffb4603          	lbu	a2,-1(s6)
   1289c:	00f7c583          	lbu	a1,15(a5)
   128a0:	02c59063          	bne	a1,a2,128c0 <_vfprintf_r+0x2454>
   128a4:	03000513          	li	a0,48
   128a8:	fea68fa3          	sb	a0,-1(a3)
   128ac:	0f813683          	ld	a3,248(sp)
   128b0:	fff68793          	addi	a5,a3,-1
   128b4:	0ef13c23          	sd	a5,248(sp)
   128b8:	fff6c603          	lbu	a2,-1(a3)
   128bc:	fec586e3          	beq	a1,a2,128a8 <_vfprintf_r+0x243c>
   128c0:	0016059b          	addiw	a1,a2,1
   128c4:	03900513          	li	a0,57
   128c8:	0ff5f593          	andi	a1,a1,255
   128cc:	00a60663          	beq	a2,a0,128d8 <_vfprintf_r+0x246c>
   128d0:	feb68fa3          	sb	a1,-1(a3)
   128d4:	c19ff06f          	j	124ec <_vfprintf_r+0x2080>
   128d8:	02013783          	ld	a5,32(sp)
   128dc:	00a7c583          	lbu	a1,10(a5)
   128e0:	feb68fa3          	sb	a1,-1(a3)
   128e4:	c09ff06f          	j	124ec <_vfprintf_r+0x2080>
   128e8:	001b8a1b          	addiw	s4,s7,1
   128ec:	000a0713          	mv	a4,s4
   128f0:	000e8593          	mv	a1,t4
   128f4:	0f810893          	addi	a7,sp,248
   128f8:	0ec10813          	addi	a6,sp,236
   128fc:	0e810793          	addi	a5,sp,232
   12900:	00200693          	li	a3,2
   12904:	000c8613          	mv	a2,s9
   12908:	000a8513          	mv	a0,s5
   1290c:	03d13023          	sd	t4,32(sp)
   12910:	391020ef          	jal	ra,154a0 <_ldtoa_r>
   12914:	00050d93          	mv	s11,a0
   12918:	02013e83          	ld	t4,32(sp)
   1291c:	02813303          	ld	t1,40(sp)
   12920:	014d8a33          	add	s4,s11,s4
   12924:	ce5ff06f          	j	12608 <_vfprintf_r+0x219c>
   12928:	001b859b          	addiw	a1,s7,1
   1292c:	000a8513          	mv	a0,s5
   12930:	00613c23          	sd	t1,24(sp)
   12934:	180040ef          	jal	ra,16ab4 <_malloc_r>
   12938:	00050d93          	mv	s11,a0
   1293c:	01813303          	ld	t1,24(sp)
   12940:	24050e63          	beqz	a0,12b9c <_vfprintf_r+0x2730>
   12944:	00a13c23          	sd	a0,24(sp)
   12948:	96dff06f          	j	122b4 <_vfprintf_r+0x1e48>
   1294c:	03000793          	li	a5,48
   12950:	0ef10023          	sb	a5,224(sp)
   12954:	07800713          	li	a4,120
   12958:	93dff06f          	j	12294 <_vfprintf_r+0x1e28>
   1295c:	000b8463          	beqz	s7,12964 <_vfprintf_r+0x24f8>
   12960:	820fe06f          	j	10980 <_vfprintf_r+0x514>
   12964:	00100b93          	li	s7,1
   12968:	818fe06f          	j	10980 <_vfprintf_r+0x514>
   1296c:	00600b93          	li	s7,6
   12970:	810fe06f          	j	10980 <_vfprintf_r+0x514>
   12974:	03513423          	sd	s5,40(sp)
   12978:	08013903          	ld	s2,128(sp)
   1297c:	000d8893          	mv	a7,s11
   12980:	08813023          	sd	s0,128(sp)
   12984:	00048813          	mv	a6,s1
   12988:	0a013983          	ld	s3,160(sp)
   1298c:	0a813b83          	ld	s7,168(sp)
   12990:	0b013303          	ld	t1,176(sp)
   12994:	09013403          	ld	s0,144(sp)
   12998:	000c8b13          	mv	s6,s9
   1299c:	0b813a83          	ld	s5,184(sp)
   129a0:	0c013d83          	ld	s11,192(sp)
   129a4:	09813483          	ld	s1,152(sp)
   129a8:	ac1ff06f          	j	12468 <_vfprintf_r+0x1ffc>
   129ac:	00f72023          	sw	a5,0(a4)
   129b0:	00090d93          	mv	s11,s2
   129b4:	dc8fe06f          	j	10f7c <_vfprintf_r+0xb10>
   129b8:	06700413          	li	s0,103
   129bc:	07813503          	ld	a0,120(sp)
   129c0:	02013703          	ld	a4,32(sp)
   129c4:	04013023          	sd	zero,64(sp)
   129c8:	00054783          	lbu	a5,0(a0)
   129cc:	02013c23          	sd	zero,56(sp)
   129d0:	0ff00593          	li	a1,255
   129d4:	04b78063          	beq	a5,a1,12a14 <_vfprintf_r+0x25a8>
   129d8:	0007869b          	sext.w	a3,a5
   129dc:	02e6dc63          	bge	a3,a4,12a14 <_vfprintf_r+0x25a8>
   129e0:	00154603          	lbu	a2,1(a0)
   129e4:	40d7073b          	subw	a4,a4,a3
   129e8:	00060e63          	beqz	a2,12a04 <_vfprintf_r+0x2598>
   129ec:	03813783          	ld	a5,56(sp)
   129f0:	00150513          	addi	a0,a0,1
   129f4:	0017879b          	addiw	a5,a5,1
   129f8:	02f13c23          	sd	a5,56(sp)
   129fc:	00060793          	mv	a5,a2
   12a00:	fd5ff06f          	j	129d4 <_vfprintf_r+0x2568>
   12a04:	04013683          	ld	a3,64(sp)
   12a08:	0016869b          	addiw	a3,a3,1
   12a0c:	04d13023          	sd	a3,64(sp)
   12a10:	fc5ff06f          	j	129d4 <_vfprintf_r+0x2568>
   12a14:	02e13023          	sd	a4,32(sp)
   12a18:	03813783          	ld	a5,56(sp)
   12a1c:	04013703          	ld	a4,64(sp)
   12a20:	08813583          	ld	a1,136(sp)
   12a24:	06a13c23          	sd	a0,120(sp)
   12a28:	00e7853b          	addw	a0,a5,a4
   12a2c:	08613023          	sd	t1,128(sp)
   12a30:	5f40e0ef          	jal	ra,21024 <__muldi3>
   12a34:	0195053b          	addw	a0,a0,s9
   12a38:	00050c9b          	sext.w	s9,a0
   12a3c:	fffcca13          	not	s4,s9
   12a40:	43fa5a13          	srai	s4,s4,0x3f
   12a44:	01457533          	and	a0,a0,s4
   12a48:	00050a1b          	sext.w	s4,a0
   12a4c:	08013303          	ld	t1,128(sp)
   12a50:	948fe06f          	j	10b98 <_vfprintf_r+0x72c>
   12a54:	000e8513          	mv	a0,t4
   12a58:	000c8593          	mv	a1,s9
   12a5c:	02613423          	sd	t1,40(sp)
   12a60:	40c0e0ef          	jal	ra,20e6c <__trunctfdf2>
   12a64:	0e810593          	addi	a1,sp,232
   12a68:	3d5050ef          	jal	ra,1863c <frexp>
   12a6c:	30c0e0ef          	jal	ra,20d78 <__extenddftf2>
   12a70:	0000f797          	auipc	a5,0xf
   12a74:	90078793          	addi	a5,a5,-1792 # 21370 <zeroes.4539+0x38>
   12a78:	0087b683          	ld	a3,8(a5)
   12a7c:	00000613          	li	a2,0
   12a80:	3100d0ef          	jal	ra,1fd90 <__multf3>
   12a84:	00000613          	li	a2,0
   12a88:	00000693          	li	a3,0
   12a8c:	00050c93          	mv	s9,a0
   12a90:	02b13023          	sd	a1,32(sp)
   12a94:	0b00d0ef          	jal	ra,1fb44 <__eqtf2>
   12a98:	02013f03          	ld	t5,32(sp)
   12a9c:	02813303          	ld	t1,40(sp)
   12aa0:	00051663          	bnez	a0,12aac <_vfprintf_r+0x2640>
   12aa4:	00100793          	li	a5,1
   12aa8:	0ef12423          	sw	a5,232(sp)
   12aac:	0000f797          	auipc	a5,0xf
   12ab0:	8f478793          	addi	a5,a5,-1804 # 213a0 <zeroes.4539+0x68>
   12ab4:	02f13023          	sd	a5,32(sp)
   12ab8:	895ff06f          	j	1234c <_vfprintf_r+0x1ee0>
   12abc:	04813783          	ld	a5,72(sp)
   12ac0:	06600413          	li	s0,102
   12ac4:	00e78cbb          	addw	s9,a5,a4
   12ac8:	017c8cbb          	addw	s9,s9,s7
   12acc:	cb9ff06f          	j	12784 <_vfprintf_r+0x2318>
   12ad0:	0f210793          	addi	a5,sp,242
   12ad4:	00069863          	bnez	a3,12ae4 <_vfprintf_r+0x2678>
   12ad8:	03000793          	li	a5,48
   12adc:	0ef10923          	sb	a5,242(sp)
   12ae0:	0f310793          	addi	a5,sp,243
   12ae4:	21010713          	addi	a4,sp,528
   12ae8:	030a0a1b          	addiw	s4,s4,48
   12aec:	40e786b3          	sub	a3,a5,a4
   12af0:	01478023          	sb	s4,0(a5)
   12af4:	1216879b          	addiw	a5,a3,289
   12af8:	06f13423          	sd	a5,104(sp)
   12afc:	84cfe06f          	j	10b48 <_vfprintf_r+0x6dc>
   12b00:	40ec87bb          	subw	a5,s9,a4
   12b04:	0017879b          	addiw	a5,a5,1
   12b08:	00078c9b          	sext.w	s9,a5
   12b0c:	fffcca13          	not	s4,s9
   12b10:	43fa5a13          	srai	s4,s4,0x3f
   12b14:	0147f7b3          	and	a5,a5,s4
   12b18:	00078a1b          	sext.w	s4,a5
   12b1c:	a7dff06f          	j	12598 <_vfprintf_r+0x212c>
   12b20:	04013703          	ld	a4,64(sp)
   12b24:	00177693          	andi	a3,a4,1
   12b28:	00069463          	bnez	a3,12b30 <_vfprintf_r+0x26c4>
   12b2c:	840fe06f          	j	10b6c <_vfprintf_r+0x700>
   12b30:	834fe06f          	j	10b64 <_vfprintf_r+0x6f8>
   12b34:	00030793          	mv	a5,t1
   12b38:	824ff06f          	j	11b5c <_vfprintf_r+0x16f0>
   12b3c:	00079a63          	bnez	a5,12b50 <_vfprintf_r+0x26e4>
   12b40:	00100a13          	li	s4,1
   12b44:	06600413          	li	s0,102
   12b48:	00100c93          	li	s9,1
   12b4c:	a4dff06f          	j	12598 <_vfprintf_r+0x212c>
   12b50:	04813783          	ld	a5,72(sp)
   12b54:	06600413          	li	s0,102
   12b58:	0017879b          	addiw	a5,a5,1
   12b5c:	01778e3b          	addw	t3,a5,s7
   12b60:	000e0c9b          	sext.w	s9,t3
   12b64:	fffcca13          	not	s4,s9
   12b68:	43fa5a13          	srai	s4,s4,0x3f
   12b6c:	014e7e33          	and	t3,t3,s4
   12b70:	000e0a1b          	sext.w	s4,t3
   12b74:	a25ff06f          	j	12598 <_vfprintf_r+0x212c>
   12b78:	01013703          	ld	a4,16(sp)
   12b7c:	00072b83          	lw	s7,0(a4)
   12b80:	00870713          	addi	a4,a4,8
   12b84:	000bd463          	bgez	s7,12b8c <_vfprintf_r+0x2720>
   12b88:	fff00b93          	li	s7,-1
   12b8c:	00194403          	lbu	s0,1(s2)
   12b90:	00e13823          	sd	a4,16(sp)
   12b94:	00078913          	mv	s2,a5
   12b98:	a91fd06f          	j	10628 <_vfprintf_r+0x1bc>
   12b9c:	00013703          	ld	a4,0(sp)
   12ba0:	01075783          	lhu	a5,16(a4)
   12ba4:	0407e793          	ori	a5,a5,64
   12ba8:	00f71823          	sh	a5,16(a4)
   12bac:	b65fd06f          	j	10710 <_vfprintf_r+0x2a4>
   12bb0:	000b8a13          	mv	s4,s7
   12bb4:	014d8a33          	add	s4,s11,s4
   12bb8:	a51ff06f          	j	12608 <_vfprintf_r+0x219c>
   12bbc:	00200793          	li	a5,2
   12bc0:	06f13423          	sd	a5,104(sp)
   12bc4:	f85fd06f          	j	10b48 <_vfprintf_r+0x6dc>

0000000000012bc8 <vfprintf>:
   12bc8:	75818793          	addi	a5,gp,1880 # 23160 <_impure_ptr>
   12bcc:	00060693          	mv	a3,a2
   12bd0:	00058613          	mv	a2,a1
   12bd4:	00050593          	mv	a1,a0
   12bd8:	0007b503          	ld	a0,0(a5)
   12bdc:	891fd06f          	j	1046c <_vfprintf_r>

0000000000012be0 <__sbprintf>:
   12be0:	0105d783          	lhu	a5,16(a1)
   12be4:	0ac5ae03          	lw	t3,172(a1)
   12be8:	0125d303          	lhu	t1,18(a1)
   12bec:	0305b883          	ld	a7,48(a1)
   12bf0:	0405b803          	ld	a6,64(a1)
   12bf4:	b3010113          	addi	sp,sp,-1232
   12bf8:	ffd7f793          	andi	a5,a5,-3
   12bfc:	40000713          	li	a4,1024
   12c00:	4c813023          	sd	s0,1216(sp)
   12c04:	00f11823          	sh	a5,16(sp)
   12c08:	00058413          	mv	s0,a1
   12c0c:	0b010793          	addi	a5,sp,176
   12c10:	00010593          	mv	a1,sp
   12c14:	4a913c23          	sd	s1,1208(sp)
   12c18:	4b213823          	sd	s2,1200(sp)
   12c1c:	4c113423          	sd	ra,1224(sp)
   12c20:	00050913          	mv	s2,a0
   12c24:	0bc12623          	sw	t3,172(sp)
   12c28:	00611923          	sh	t1,18(sp)
   12c2c:	03113823          	sd	a7,48(sp)
   12c30:	05013023          	sd	a6,64(sp)
   12c34:	00f13023          	sd	a5,0(sp)
   12c38:	00f13c23          	sd	a5,24(sp)
   12c3c:	00e12623          	sw	a4,12(sp)
   12c40:	02e12023          	sw	a4,32(sp)
   12c44:	02012423          	sw	zero,40(sp)
   12c48:	825fd0ef          	jal	ra,1046c <_vfprintf_r>
   12c4c:	00050493          	mv	s1,a0
   12c50:	02055c63          	bgez	a0,12c88 <__sbprintf+0xa8>
   12c54:	01015783          	lhu	a5,16(sp)
   12c58:	0407f793          	andi	a5,a5,64
   12c5c:	00078863          	beqz	a5,12c6c <__sbprintf+0x8c>
   12c60:	01045783          	lhu	a5,16(s0)
   12c64:	0407e793          	ori	a5,a5,64
   12c68:	00f41823          	sh	a5,16(s0)
   12c6c:	4c813083          	ld	ra,1224(sp)
   12c70:	4c013403          	ld	s0,1216(sp)
   12c74:	00048513          	mv	a0,s1
   12c78:	4b013903          	ld	s2,1200(sp)
   12c7c:	4b813483          	ld	s1,1208(sp)
   12c80:	4d010113          	addi	sp,sp,1232
   12c84:	00008067          	ret
   12c88:	00010593          	mv	a1,sp
   12c8c:	00090513          	mv	a0,s2
   12c90:	5a4000ef          	jal	ra,13234 <_fflush_r>
   12c94:	fc0500e3          	beqz	a0,12c54 <__sbprintf+0x74>
   12c98:	fff00493          	li	s1,-1
   12c9c:	fb9ff06f          	j	12c54 <__sbprintf+0x74>

0000000000012ca0 <__swsetup_r>:
   12ca0:	75818793          	addi	a5,gp,1880 # 23160 <_impure_ptr>
   12ca4:	0007b783          	ld	a5,0(a5)
   12ca8:	fe010113          	addi	sp,sp,-32
   12cac:	00813823          	sd	s0,16(sp)
   12cb0:	00913423          	sd	s1,8(sp)
   12cb4:	00113c23          	sd	ra,24(sp)
   12cb8:	00050493          	mv	s1,a0
   12cbc:	00058413          	mv	s0,a1
   12cc0:	00078663          	beqz	a5,12ccc <__swsetup_r+0x2c>
   12cc4:	0507a703          	lw	a4,80(a5)
   12cc8:	08070663          	beqz	a4,12d54 <__swsetup_r+0xb4>
   12ccc:	01041703          	lh	a4,16(s0)
   12cd0:	03071793          	slli	a5,a4,0x30
   12cd4:	0307d793          	srli	a5,a5,0x30
   12cd8:	0087f693          	andi	a3,a5,8
   12cdc:	08068a63          	beqz	a3,12d70 <__swsetup_r+0xd0>
   12ce0:	01843683          	ld	a3,24(s0)
   12ce4:	0a068a63          	beqz	a3,12d98 <__swsetup_r+0xf8>
   12ce8:	0017f713          	andi	a4,a5,1
   12cec:	02070863          	beqz	a4,12d1c <__swsetup_r+0x7c>
   12cf0:	02042783          	lw	a5,32(s0)
   12cf4:	00042623          	sw	zero,12(s0)
   12cf8:	00000513          	li	a0,0
   12cfc:	40f007bb          	negw	a5,a5
   12d00:	02f42423          	sw	a5,40(s0)
   12d04:	02068a63          	beqz	a3,12d38 <__swsetup_r+0x98>
   12d08:	01813083          	ld	ra,24(sp)
   12d0c:	01013403          	ld	s0,16(sp)
   12d10:	00813483          	ld	s1,8(sp)
   12d14:	02010113          	addi	sp,sp,32
   12d18:	00008067          	ret
   12d1c:	0027f793          	andi	a5,a5,2
   12d20:	00000713          	li	a4,0
   12d24:	00079463          	bnez	a5,12d2c <__swsetup_r+0x8c>
   12d28:	02042703          	lw	a4,32(s0)
   12d2c:	00e42623          	sw	a4,12(s0)
   12d30:	00000513          	li	a0,0
   12d34:	fc069ae3          	bnez	a3,12d08 <__swsetup_r+0x68>
   12d38:	01041783          	lh	a5,16(s0)
   12d3c:	0807f713          	andi	a4,a5,128
   12d40:	fc0704e3          	beqz	a4,12d08 <__swsetup_r+0x68>
   12d44:	0407e793          	ori	a5,a5,64
   12d48:	00f41823          	sh	a5,16(s0)
   12d4c:	fff00513          	li	a0,-1
   12d50:	fb9ff06f          	j	12d08 <__swsetup_r+0x68>
   12d54:	00078513          	mv	a0,a5
   12d58:	085000ef          	jal	ra,135dc <__sinit>
   12d5c:	01041703          	lh	a4,16(s0)
   12d60:	03071793          	slli	a5,a4,0x30
   12d64:	0307d793          	srli	a5,a5,0x30
   12d68:	0087f693          	andi	a3,a5,8
   12d6c:	f6069ae3          	bnez	a3,12ce0 <__swsetup_r+0x40>
   12d70:	0107f693          	andi	a3,a5,16
   12d74:	06068e63          	beqz	a3,12df0 <__swsetup_r+0x150>
   12d78:	0047f793          	andi	a5,a5,4
   12d7c:	04079063          	bnez	a5,12dbc <__swsetup_r+0x11c>
   12d80:	01843683          	ld	a3,24(s0)
   12d84:	00876793          	ori	a5,a4,8
   12d88:	00f41823          	sh	a5,16(s0)
   12d8c:	03079793          	slli	a5,a5,0x30
   12d90:	0307d793          	srli	a5,a5,0x30
   12d94:	f4069ae3          	bnez	a3,12ce8 <__swsetup_r+0x48>
   12d98:	2807f713          	andi	a4,a5,640
   12d9c:	20000613          	li	a2,512
   12da0:	f4c704e3          	beq	a4,a2,12ce8 <__swsetup_r+0x48>
   12da4:	00040593          	mv	a1,s0
   12da8:	00048513          	mv	a0,s1
   12dac:	3e9030ef          	jal	ra,16994 <__smakebuf_r>
   12db0:	01045783          	lhu	a5,16(s0)
   12db4:	01843683          	ld	a3,24(s0)
   12db8:	f31ff06f          	j	12ce8 <__swsetup_r+0x48>
   12dbc:	05843583          	ld	a1,88(s0)
   12dc0:	00058e63          	beqz	a1,12ddc <__swsetup_r+0x13c>
   12dc4:	07440793          	addi	a5,s0,116
   12dc8:	00f58863          	beq	a1,a5,12dd8 <__swsetup_r+0x138>
   12dcc:	00048513          	mv	a0,s1
   12dd0:	18d000ef          	jal	ra,1375c <_free_r>
   12dd4:	01041703          	lh	a4,16(s0)
   12dd8:	04043c23          	sd	zero,88(s0)
   12ddc:	01843683          	ld	a3,24(s0)
   12de0:	fdb77713          	andi	a4,a4,-37
   12de4:	00042423          	sw	zero,8(s0)
   12de8:	00d43023          	sd	a3,0(s0)
   12dec:	f99ff06f          	j	12d84 <__swsetup_r+0xe4>
   12df0:	00900793          	li	a5,9
   12df4:	00f4a023          	sw	a5,0(s1)
   12df8:	04076713          	ori	a4,a4,64
   12dfc:	00e41823          	sh	a4,16(s0)
   12e00:	fff00513          	li	a0,-1
   12e04:	f05ff06f          	j	12d08 <__swsetup_r+0x68>

0000000000012e08 <__register_exitproc>:
   12e08:	74818793          	addi	a5,gp,1864 # 23150 <_global_impure_ptr>
   12e0c:	0007b703          	ld	a4,0(a5)
   12e10:	1f873783          	ld	a5,504(a4)
   12e14:	06078063          	beqz	a5,12e74 <__register_exitproc+0x6c>
   12e18:	0087a703          	lw	a4,8(a5)
   12e1c:	01f00813          	li	a6,31
   12e20:	08e84663          	blt	a6,a4,12eac <__register_exitproc+0xa4>
   12e24:	02050863          	beqz	a0,12e54 <__register_exitproc+0x4c>
   12e28:	00371813          	slli	a6,a4,0x3
   12e2c:	01078833          	add	a6,a5,a6
   12e30:	10c83823          	sd	a2,272(a6)
   12e34:	3107a883          	lw	a7,784(a5)
   12e38:	00100613          	li	a2,1
   12e3c:	00e6163b          	sllw	a2,a2,a4
   12e40:	00c8e8b3          	or	a7,a7,a2
   12e44:	3117a823          	sw	a7,784(a5)
   12e48:	20d83823          	sd	a3,528(a6)
   12e4c:	00200693          	li	a3,2
   12e50:	02d50863          	beq	a0,a3,12e80 <__register_exitproc+0x78>
   12e54:	00270693          	addi	a3,a4,2
   12e58:	00369693          	slli	a3,a3,0x3
   12e5c:	0017071b          	addiw	a4,a4,1
   12e60:	00e7a423          	sw	a4,8(a5)
   12e64:	00d787b3          	add	a5,a5,a3
   12e68:	00b7b023          	sd	a1,0(a5)
   12e6c:	00000513          	li	a0,0
   12e70:	00008067          	ret
   12e74:	20070793          	addi	a5,a4,512
   12e78:	1ef73c23          	sd	a5,504(a4)
   12e7c:	f9dff06f          	j	12e18 <__register_exitproc+0x10>
   12e80:	3147a683          	lw	a3,788(a5)
   12e84:	00000513          	li	a0,0
   12e88:	00c6e633          	or	a2,a3,a2
   12e8c:	00270693          	addi	a3,a4,2
   12e90:	00369693          	slli	a3,a3,0x3
   12e94:	0017071b          	addiw	a4,a4,1
   12e98:	30c7aa23          	sw	a2,788(a5)
   12e9c:	00e7a423          	sw	a4,8(a5)
   12ea0:	00d787b3          	add	a5,a5,a3
   12ea4:	00b7b023          	sd	a1,0(a5)
   12ea8:	00008067          	ret
   12eac:	fff00513          	li	a0,-1
   12eb0:	00008067          	ret

0000000000012eb4 <__call_exitprocs>:
   12eb4:	fb010113          	addi	sp,sp,-80
   12eb8:	74818793          	addi	a5,gp,1864 # 23150 <_global_impure_ptr>
   12ebc:	01813023          	sd	s8,0(sp)
   12ec0:	0007bc03          	ld	s8,0(a5)
   12ec4:	03313423          	sd	s3,40(sp)
   12ec8:	03413023          	sd	s4,32(sp)
   12ecc:	01513c23          	sd	s5,24(sp)
   12ed0:	01613823          	sd	s6,16(sp)
   12ed4:	04113423          	sd	ra,72(sp)
   12ed8:	04813023          	sd	s0,64(sp)
   12edc:	02913c23          	sd	s1,56(sp)
   12ee0:	03213823          	sd	s2,48(sp)
   12ee4:	01713423          	sd	s7,8(sp)
   12ee8:	00050a93          	mv	s5,a0
   12eec:	00058b13          	mv	s6,a1
   12ef0:	00100a13          	li	s4,1
   12ef4:	fff00993          	li	s3,-1
   12ef8:	1f8c3903          	ld	s2,504(s8)
   12efc:	02090863          	beqz	s2,12f2c <__call_exitprocs+0x78>
   12f00:	00892483          	lw	s1,8(s2)
   12f04:	fff4841b          	addiw	s0,s1,-1
   12f08:	02044263          	bltz	s0,12f2c <__call_exitprocs+0x78>
   12f0c:	00349493          	slli	s1,s1,0x3
   12f10:	009904b3          	add	s1,s2,s1
   12f14:	040b0463          	beqz	s6,12f5c <__call_exitprocs+0xa8>
   12f18:	2084b783          	ld	a5,520(s1)
   12f1c:	05678063          	beq	a5,s6,12f5c <__call_exitprocs+0xa8>
   12f20:	fff4041b          	addiw	s0,s0,-1
   12f24:	ff848493          	addi	s1,s1,-8
   12f28:	ff3416e3          	bne	s0,s3,12f14 <__call_exitprocs+0x60>
   12f2c:	04813083          	ld	ra,72(sp)
   12f30:	04013403          	ld	s0,64(sp)
   12f34:	03813483          	ld	s1,56(sp)
   12f38:	03013903          	ld	s2,48(sp)
   12f3c:	02813983          	ld	s3,40(sp)
   12f40:	02013a03          	ld	s4,32(sp)
   12f44:	01813a83          	ld	s5,24(sp)
   12f48:	01013b03          	ld	s6,16(sp)
   12f4c:	00813b83          	ld	s7,8(sp)
   12f50:	00013c03          	ld	s8,0(sp)
   12f54:	05010113          	addi	sp,sp,80
   12f58:	00008067          	ret
   12f5c:	00892783          	lw	a5,8(s2)
   12f60:	0084b703          	ld	a4,8(s1)
   12f64:	fff7879b          	addiw	a5,a5,-1
   12f68:	04878e63          	beq	a5,s0,12fc4 <__call_exitprocs+0x110>
   12f6c:	0004b423          	sd	zero,8(s1)
   12f70:	fa0708e3          	beqz	a4,12f20 <__call_exitprocs+0x6c>
   12f74:	31092783          	lw	a5,784(s2)
   12f78:	008a16bb          	sllw	a3,s4,s0
   12f7c:	00892b83          	lw	s7,8(s2)
   12f80:	00d7f7b3          	and	a5,a5,a3
   12f84:	0007879b          	sext.w	a5,a5
   12f88:	00079e63          	bnez	a5,12fa4 <__call_exitprocs+0xf0>
   12f8c:	000700e7          	jalr	a4
   12f90:	00892783          	lw	a5,8(s2)
   12f94:	f77792e3          	bne	a5,s7,12ef8 <__call_exitprocs+0x44>
   12f98:	1f8c3783          	ld	a5,504(s8)
   12f9c:	f92782e3          	beq	a5,s2,12f20 <__call_exitprocs+0x6c>
   12fa0:	f59ff06f          	j	12ef8 <__call_exitprocs+0x44>
   12fa4:	31492783          	lw	a5,788(s2)
   12fa8:	1084b583          	ld	a1,264(s1)
   12fac:	00d7f7b3          	and	a5,a5,a3
   12fb0:	0007879b          	sext.w	a5,a5
   12fb4:	00079c63          	bnez	a5,12fcc <__call_exitprocs+0x118>
   12fb8:	000a8513          	mv	a0,s5
   12fbc:	000700e7          	jalr	a4
   12fc0:	fd1ff06f          	j	12f90 <__call_exitprocs+0xdc>
   12fc4:	00892423          	sw	s0,8(s2)
   12fc8:	fa9ff06f          	j	12f70 <__call_exitprocs+0xbc>
   12fcc:	00058513          	mv	a0,a1
   12fd0:	000700e7          	jalr	a4
   12fd4:	fbdff06f          	j	12f90 <__call_exitprocs+0xdc>

0000000000012fd8 <__sflush_r>:
   12fd8:	01059783          	lh	a5,16(a1)
   12fdc:	fd010113          	addi	sp,sp,-48
   12fe0:	02813023          	sd	s0,32(sp)
   12fe4:	03079713          	slli	a4,a5,0x30
   12fe8:	03075713          	srli	a4,a4,0x30
   12fec:	01313423          	sd	s3,8(sp)
   12ff0:	02113423          	sd	ra,40(sp)
   12ff4:	00913c23          	sd	s1,24(sp)
   12ff8:	01213823          	sd	s2,16(sp)
   12ffc:	00877693          	andi	a3,a4,8
   13000:	00058413          	mv	s0,a1
   13004:	00050993          	mv	s3,a0
   13008:	10069a63          	bnez	a3,1311c <__sflush_r+0x144>
   1300c:	00001737          	lui	a4,0x1
   13010:	80070713          	addi	a4,a4,-2048 # 800 <register_fini-0xf8b0>
   13014:	0085a683          	lw	a3,8(a1)
   13018:	00e7e7b3          	or	a5,a5,a4
   1301c:	00f59823          	sh	a5,16(a1)
   13020:	18d05063          	blez	a3,131a0 <__sflush_r+0x1c8>
   13024:	04843703          	ld	a4,72(s0)
   13028:	0c070a63          	beqz	a4,130fc <__sflush_r+0x124>
   1302c:	03079793          	slli	a5,a5,0x30
   13030:	0307d793          	srli	a5,a5,0x30
   13034:	0009a483          	lw	s1,0(s3)
   13038:	03379693          	slli	a3,a5,0x33
   1303c:	0009a023          	sw	zero,0(s3)
   13040:	03043583          	ld	a1,48(s0)
   13044:	1606c463          	bltz	a3,131ac <__sflush_r+0x1d4>
   13048:	00000613          	li	a2,0
   1304c:	00100693          	li	a3,1
   13050:	00098513          	mv	a0,s3
   13054:	000700e7          	jalr	a4
   13058:	fff00793          	li	a5,-1
   1305c:	00050613          	mv	a2,a0
   13060:	18f50663          	beq	a0,a5,131ec <__sflush_r+0x214>
   13064:	01045783          	lhu	a5,16(s0)
   13068:	04843703          	ld	a4,72(s0)
   1306c:	03043583          	ld	a1,48(s0)
   13070:	0047f793          	andi	a5,a5,4
   13074:	00078e63          	beqz	a5,13090 <__sflush_r+0xb8>
   13078:	00842683          	lw	a3,8(s0)
   1307c:	05843783          	ld	a5,88(s0)
   13080:	40d60633          	sub	a2,a2,a3
   13084:	00078663          	beqz	a5,13090 <__sflush_r+0xb8>
   13088:	07042783          	lw	a5,112(s0)
   1308c:	40f60633          	sub	a2,a2,a5
   13090:	00000693          	li	a3,0
   13094:	00098513          	mv	a0,s3
   13098:	000700e7          	jalr	a4
   1309c:	fff00793          	li	a5,-1
   130a0:	10f51a63          	bne	a0,a5,131b4 <__sflush_r+0x1dc>
   130a4:	0009a703          	lw	a4,0(s3)
   130a8:	01041783          	lh	a5,16(s0)
   130ac:	16070263          	beqz	a4,13210 <__sflush_r+0x238>
   130b0:	01d00693          	li	a3,29
   130b4:	00d70663          	beq	a4,a3,130c0 <__sflush_r+0xe8>
   130b8:	01600693          	li	a3,22
   130bc:	16d71463          	bne	a4,a3,13224 <__sflush_r+0x24c>
   130c0:	01843683          	ld	a3,24(s0)
   130c4:	fffff737          	lui	a4,0xfffff
   130c8:	7ff70713          	addi	a4,a4,2047 # fffffffffffff7ff <__BSS_END__+0xfffffffffffdc5f7>
   130cc:	00e7f7b3          	and	a5,a5,a4
   130d0:	00f41823          	sh	a5,16(s0)
   130d4:	00042423          	sw	zero,8(s0)
   130d8:	00d43023          	sd	a3,0(s0)
   130dc:	05843583          	ld	a1,88(s0)
   130e0:	0099a023          	sw	s1,0(s3)
   130e4:	00058c63          	beqz	a1,130fc <__sflush_r+0x124>
   130e8:	07440793          	addi	a5,s0,116
   130ec:	00f58663          	beq	a1,a5,130f8 <__sflush_r+0x120>
   130f0:	00098513          	mv	a0,s3
   130f4:	668000ef          	jal	ra,1375c <_free_r>
   130f8:	04043c23          	sd	zero,88(s0)
   130fc:	00000513          	li	a0,0
   13100:	02813083          	ld	ra,40(sp)
   13104:	02013403          	ld	s0,32(sp)
   13108:	01813483          	ld	s1,24(sp)
   1310c:	01013903          	ld	s2,16(sp)
   13110:	00813983          	ld	s3,8(sp)
   13114:	03010113          	addi	sp,sp,48
   13118:	00008067          	ret
   1311c:	0185b903          	ld	s2,24(a1)
   13120:	fc090ee3          	beqz	s2,130fc <__sflush_r+0x124>
   13124:	0005b483          	ld	s1,0(a1)
   13128:	00377713          	andi	a4,a4,3
   1312c:	0125b023          	sd	s2,0(a1)
   13130:	412484bb          	subw	s1,s1,s2
   13134:	00000793          	li	a5,0
   13138:	00071463          	bnez	a4,13140 <__sflush_r+0x168>
   1313c:	0205a783          	lw	a5,32(a1)
   13140:	00f42623          	sw	a5,12(s0)
   13144:	00904863          	bgtz	s1,13154 <__sflush_r+0x17c>
   13148:	fb5ff06f          	j	130fc <__sflush_r+0x124>
   1314c:	00a90933          	add	s2,s2,a0
   13150:	fa9056e3          	blez	s1,130fc <__sflush_r+0x124>
   13154:	04043783          	ld	a5,64(s0)
   13158:	03043583          	ld	a1,48(s0)
   1315c:	00048693          	mv	a3,s1
   13160:	00090613          	mv	a2,s2
   13164:	00098513          	mv	a0,s3
   13168:	000780e7          	jalr	a5
   1316c:	40a484bb          	subw	s1,s1,a0
   13170:	fca04ee3          	bgtz	a0,1314c <__sflush_r+0x174>
   13174:	01045783          	lhu	a5,16(s0)
   13178:	02813083          	ld	ra,40(sp)
   1317c:	01813483          	ld	s1,24(sp)
   13180:	0407e793          	ori	a5,a5,64
   13184:	00f41823          	sh	a5,16(s0)
   13188:	02013403          	ld	s0,32(sp)
   1318c:	01013903          	ld	s2,16(sp)
   13190:	00813983          	ld	s3,8(sp)
   13194:	fff00513          	li	a0,-1
   13198:	03010113          	addi	sp,sp,48
   1319c:	00008067          	ret
   131a0:	0705a703          	lw	a4,112(a1)
   131a4:	e8e040e3          	bgtz	a4,13024 <__sflush_r+0x4c>
   131a8:	f55ff06f          	j	130fc <__sflush_r+0x124>
   131ac:	09043603          	ld	a2,144(s0)
   131b0:	ec1ff06f          	j	13070 <__sflush_r+0x98>
   131b4:	01045783          	lhu	a5,16(s0)
   131b8:	fffff737          	lui	a4,0xfffff
   131bc:	7ff70713          	addi	a4,a4,2047 # fffffffffffff7ff <__BSS_END__+0xfffffffffffdc5f7>
   131c0:	00e7f7b3          	and	a5,a5,a4
   131c4:	01843683          	ld	a3,24(s0)
   131c8:	0107979b          	slliw	a5,a5,0x10
   131cc:	4107d79b          	sraiw	a5,a5,0x10
   131d0:	00f41823          	sh	a5,16(s0)
   131d4:	00042423          	sw	zero,8(s0)
   131d8:	00d43023          	sd	a3,0(s0)
   131dc:	03379713          	slli	a4,a5,0x33
   131e0:	ee075ee3          	bgez	a4,130dc <__sflush_r+0x104>
   131e4:	08a43823          	sd	a0,144(s0)
   131e8:	ef5ff06f          	j	130dc <__sflush_r+0x104>
   131ec:	0009a783          	lw	a5,0(s3)
   131f0:	e6078ae3          	beqz	a5,13064 <__sflush_r+0x8c>
   131f4:	01d00713          	li	a4,29
   131f8:	00e78663          	beq	a5,a4,13204 <__sflush_r+0x22c>
   131fc:	01600713          	li	a4,22
   13200:	f6e79ae3          	bne	a5,a4,13174 <__sflush_r+0x19c>
   13204:	0099a023          	sw	s1,0(s3)
   13208:	00000513          	li	a0,0
   1320c:	ef5ff06f          	j	13100 <__sflush_r+0x128>
   13210:	fffff737          	lui	a4,0xfffff
   13214:	7ff70713          	addi	a4,a4,2047 # fffffffffffff7ff <__BSS_END__+0xfffffffffffdc5f7>
   13218:	01843683          	ld	a3,24(s0)
   1321c:	00e7f7b3          	and	a5,a5,a4
   13220:	fb1ff06f          	j	131d0 <__sflush_r+0x1f8>
   13224:	0407e793          	ori	a5,a5,64
   13228:	00f41823          	sh	a5,16(s0)
   1322c:	fff00513          	li	a0,-1
   13230:	ed1ff06f          	j	13100 <__sflush_r+0x128>

0000000000013234 <_fflush_r>:
   13234:	fe010113          	addi	sp,sp,-32
   13238:	00813823          	sd	s0,16(sp)
   1323c:	00113c23          	sd	ra,24(sp)
   13240:	00050413          	mv	s0,a0
   13244:	00050663          	beqz	a0,13250 <_fflush_r+0x1c>
   13248:	05052783          	lw	a5,80(a0)
   1324c:	02078063          	beqz	a5,1326c <_fflush_r+0x38>
   13250:	01059783          	lh	a5,16(a1)
   13254:	02079663          	bnez	a5,13280 <_fflush_r+0x4c>
   13258:	01813083          	ld	ra,24(sp)
   1325c:	01013403          	ld	s0,16(sp)
   13260:	00000513          	li	a0,0
   13264:	02010113          	addi	sp,sp,32
   13268:	00008067          	ret
   1326c:	00b13423          	sd	a1,8(sp)
   13270:	36c000ef          	jal	ra,135dc <__sinit>
   13274:	00813583          	ld	a1,8(sp)
   13278:	01059783          	lh	a5,16(a1)
   1327c:	fc078ee3          	beqz	a5,13258 <_fflush_r+0x24>
   13280:	00040513          	mv	a0,s0
   13284:	01013403          	ld	s0,16(sp)
   13288:	01813083          	ld	ra,24(sp)
   1328c:	02010113          	addi	sp,sp,32
   13290:	d49ff06f          	j	12fd8 <__sflush_r>

0000000000013294 <fflush>:
   13294:	00050593          	mv	a1,a0
   13298:	00050863          	beqz	a0,132a8 <fflush+0x14>
   1329c:	75818793          	addi	a5,gp,1880 # 23160 <_impure_ptr>
   132a0:	0007b503          	ld	a0,0(a5)
   132a4:	f91ff06f          	j	13234 <_fflush_r>
   132a8:	74818793          	addi	a5,gp,1864 # 23150 <_global_impure_ptr>
   132ac:	0007b503          	ld	a0,0(a5)
   132b0:	00000597          	auipc	a1,0x0
   132b4:	f8458593          	addi	a1,a1,-124 # 13234 <_fflush_r>
   132b8:	0c10006f          	j	13b78 <_fwalk_reent>

00000000000132bc <__fp_lock>:
   132bc:	00000513          	li	a0,0
   132c0:	00008067          	ret

00000000000132c4 <_cleanup_r>:
   132c4:	00009597          	auipc	a1,0x9
   132c8:	71058593          	addi	a1,a1,1808 # 1c9d4 <_fclose_r>
   132cc:	0ad0006f          	j	13b78 <_fwalk_reent>

00000000000132d0 <__sinit.part.0>:
   132d0:	fc010113          	addi	sp,sp,-64
   132d4:	02113c23          	sd	ra,56(sp)
   132d8:	02813823          	sd	s0,48(sp)
   132dc:	02913423          	sd	s1,40(sp)
   132e0:	03213023          	sd	s2,32(sp)
   132e4:	01313c23          	sd	s3,24(sp)
   132e8:	01413823          	sd	s4,16(sp)
   132ec:	01513423          	sd	s5,8(sp)
   132f0:	01613023          	sd	s6,0(sp)
   132f4:	00853403          	ld	s0,8(a0)
   132f8:	00000717          	auipc	a4,0x0
   132fc:	fcc70713          	addi	a4,a4,-52 # 132c4 <_cleanup_r>
   13300:	04e53c23          	sd	a4,88(a0)
   13304:	53850793          	addi	a5,a0,1336
   13308:	00300713          	li	a4,3
   1330c:	52e52423          	sw	a4,1320(a0)
   13310:	52f53823          	sd	a5,1328(a0)
   13314:	52053023          	sd	zero,1312(a0)
   13318:	00400793          	li	a5,4
   1331c:	00050913          	mv	s2,a0
   13320:	00f42823          	sw	a5,16(s0)
   13324:	00800613          	li	a2,8
   13328:	00000593          	li	a1,0
   1332c:	0a042623          	sw	zero,172(s0)
   13330:	00043023          	sd	zero,0(s0)
   13334:	00043423          	sd	zero,8(s0)
   13338:	00043c23          	sd	zero,24(s0)
   1333c:	02042023          	sw	zero,32(s0)
   13340:	02042423          	sw	zero,40(s0)
   13344:	0a440513          	addi	a0,s0,164
   13348:	fb1fc0ef          	jal	ra,102f8 <memset>
   1334c:	01093483          	ld	s1,16(s2)
   13350:	00005b17          	auipc	s6,0x5
   13354:	498b0b13          	addi	s6,s6,1176 # 187e8 <__sread>
   13358:	00005a97          	auipc	s5,0x5
   1335c:	4f4a8a93          	addi	s5,s5,1268 # 1884c <__swrite>
   13360:	00005a17          	auipc	s4,0x5
   13364:	574a0a13          	addi	s4,s4,1396 # 188d4 <__sseek>
   13368:	00005997          	auipc	s3,0x5
   1336c:	5d498993          	addi	s3,s3,1492 # 1893c <__sclose>
   13370:	000107b7          	lui	a5,0x10
   13374:	03643c23          	sd	s6,56(s0)
   13378:	05543023          	sd	s5,64(s0)
   1337c:	05443423          	sd	s4,72(s0)
   13380:	05343823          	sd	s3,80(s0)
   13384:	02843823          	sd	s0,48(s0)
   13388:	00978793          	addi	a5,a5,9 # 10009 <register_fini-0xa7>
   1338c:	00f4a823          	sw	a5,16(s1)
   13390:	00800613          	li	a2,8
   13394:	00000593          	li	a1,0
   13398:	0a04a623          	sw	zero,172(s1)
   1339c:	0004b023          	sd	zero,0(s1)
   133a0:	0004b423          	sd	zero,8(s1)
   133a4:	0004bc23          	sd	zero,24(s1)
   133a8:	0204a023          	sw	zero,32(s1)
   133ac:	0204a423          	sw	zero,40(s1)
   133b0:	0a448513          	addi	a0,s1,164
   133b4:	f45fc0ef          	jal	ra,102f8 <memset>
   133b8:	01893403          	ld	s0,24(s2)
   133bc:	000207b7          	lui	a5,0x20
   133c0:	0364bc23          	sd	s6,56(s1)
   133c4:	0554b023          	sd	s5,64(s1)
   133c8:	0544b423          	sd	s4,72(s1)
   133cc:	0534b823          	sd	s3,80(s1)
   133d0:	0294b823          	sd	s1,48(s1)
   133d4:	01278793          	addi	a5,a5,18 # 20012 <__multf3+0x282>
   133d8:	00f42823          	sw	a5,16(s0)
   133dc:	0a042623          	sw	zero,172(s0)
   133e0:	00043023          	sd	zero,0(s0)
   133e4:	00043423          	sd	zero,8(s0)
   133e8:	00043c23          	sd	zero,24(s0)
   133ec:	02042023          	sw	zero,32(s0)
   133f0:	02042423          	sw	zero,40(s0)
   133f4:	0a440513          	addi	a0,s0,164
   133f8:	00800613          	li	a2,8
   133fc:	00000593          	li	a1,0
   13400:	ef9fc0ef          	jal	ra,102f8 <memset>
   13404:	03813083          	ld	ra,56(sp)
   13408:	03643c23          	sd	s6,56(s0)
   1340c:	05543023          	sd	s5,64(s0)
   13410:	05443423          	sd	s4,72(s0)
   13414:	05343823          	sd	s3,80(s0)
   13418:	02843823          	sd	s0,48(s0)
   1341c:	03013403          	ld	s0,48(sp)
   13420:	00100793          	li	a5,1
   13424:	04f92823          	sw	a5,80(s2)
   13428:	02813483          	ld	s1,40(sp)
   1342c:	02013903          	ld	s2,32(sp)
   13430:	01813983          	ld	s3,24(sp)
   13434:	01013a03          	ld	s4,16(sp)
   13438:	00813a83          	ld	s5,8(sp)
   1343c:	00013b03          	ld	s6,0(sp)
   13440:	04010113          	addi	sp,sp,64
   13444:	00008067          	ret

0000000000013448 <__fp_unlock>:
   13448:	00000513          	li	a0,0
   1344c:	00008067          	ret

0000000000013450 <__sfmoreglue>:
   13450:	fe010113          	addi	sp,sp,-32
   13454:	fff5861b          	addiw	a2,a1,-1
   13458:	00813823          	sd	s0,16(sp)
   1345c:	00161413          	slli	s0,a2,0x1
   13460:	00c40433          	add	s0,s0,a2
   13464:	00241413          	slli	s0,s0,0x2
   13468:	40c40433          	sub	s0,s0,a2
   1346c:	00441413          	slli	s0,s0,0x4
   13470:	01213023          	sd	s2,0(sp)
   13474:	00058913          	mv	s2,a1
   13478:	0c840593          	addi	a1,s0,200
   1347c:	00913423          	sd	s1,8(sp)
   13480:	00113c23          	sd	ra,24(sp)
   13484:	630030ef          	jal	ra,16ab4 <_malloc_r>
   13488:	00050493          	mv	s1,a0
   1348c:	02050063          	beqz	a0,134ac <__sfmoreglue+0x5c>
   13490:	01850513          	addi	a0,a0,24
   13494:	0004b023          	sd	zero,0(s1)
   13498:	0124a423          	sw	s2,8(s1)
   1349c:	00a4b823          	sd	a0,16(s1)
   134a0:	0b040613          	addi	a2,s0,176
   134a4:	00000593          	li	a1,0
   134a8:	e51fc0ef          	jal	ra,102f8 <memset>
   134ac:	01813083          	ld	ra,24(sp)
   134b0:	01013403          	ld	s0,16(sp)
   134b4:	00048513          	mv	a0,s1
   134b8:	00013903          	ld	s2,0(sp)
   134bc:	00813483          	ld	s1,8(sp)
   134c0:	02010113          	addi	sp,sp,32
   134c4:	00008067          	ret

00000000000134c8 <__sfp>:
   134c8:	fd010113          	addi	sp,sp,-48
   134cc:	74818793          	addi	a5,gp,1864 # 23150 <_global_impure_ptr>
   134d0:	01213823          	sd	s2,16(sp)
   134d4:	0007b903          	ld	s2,0(a5)
   134d8:	01313423          	sd	s3,8(sp)
   134dc:	02113423          	sd	ra,40(sp)
   134e0:	05092783          	lw	a5,80(s2)
   134e4:	02813023          	sd	s0,32(sp)
   134e8:	00913c23          	sd	s1,24(sp)
   134ec:	00050993          	mv	s3,a0
   134f0:	0a078463          	beqz	a5,13598 <__sfp+0xd0>
   134f4:	52090913          	addi	s2,s2,1312
   134f8:	fff00493          	li	s1,-1
   134fc:	00892783          	lw	a5,8(s2)
   13500:	01093403          	ld	s0,16(s2)
   13504:	fff7879b          	addiw	a5,a5,-1
   13508:	0007da63          	bgez	a5,1351c <__sfp+0x54>
   1350c:	07c0006f          	j	13588 <__sfp+0xc0>
   13510:	fff7879b          	addiw	a5,a5,-1
   13514:	0b040413          	addi	s0,s0,176
   13518:	06978863          	beq	a5,s1,13588 <__sfp+0xc0>
   1351c:	01041703          	lh	a4,16(s0)
   13520:	fe0718e3          	bnez	a4,13510 <__sfp+0x48>
   13524:	ffff07b7          	lui	a5,0xffff0
   13528:	00178793          	addi	a5,a5,1 # ffffffffffff0001 <__BSS_END__+0xfffffffffffccdf9>
   1352c:	0a042623          	sw	zero,172(s0)
   13530:	00043023          	sd	zero,0(s0)
   13534:	00043423          	sd	zero,8(s0)
   13538:	00f42823          	sw	a5,16(s0)
   1353c:	00043c23          	sd	zero,24(s0)
   13540:	02042023          	sw	zero,32(s0)
   13544:	02042423          	sw	zero,40(s0)
   13548:	00800613          	li	a2,8
   1354c:	00000593          	li	a1,0
   13550:	0a440513          	addi	a0,s0,164
   13554:	da5fc0ef          	jal	ra,102f8 <memset>
   13558:	04043c23          	sd	zero,88(s0)
   1355c:	06042023          	sw	zero,96(s0)
   13560:	06043c23          	sd	zero,120(s0)
   13564:	08042023          	sw	zero,128(s0)
   13568:	00040513          	mv	a0,s0
   1356c:	02813083          	ld	ra,40(sp)
   13570:	02013403          	ld	s0,32(sp)
   13574:	01813483          	ld	s1,24(sp)
   13578:	01013903          	ld	s2,16(sp)
   1357c:	00813983          	ld	s3,8(sp)
   13580:	03010113          	addi	sp,sp,48
   13584:	00008067          	ret
   13588:	00093403          	ld	s0,0(s2)
   1358c:	00040c63          	beqz	s0,135a4 <__sfp+0xdc>
   13590:	00040913          	mv	s2,s0
   13594:	f69ff06f          	j	134fc <__sfp+0x34>
   13598:	00090513          	mv	a0,s2
   1359c:	d35ff0ef          	jal	ra,132d0 <__sinit.part.0>
   135a0:	f55ff06f          	j	134f4 <__sfp+0x2c>
   135a4:	00400593          	li	a1,4
   135a8:	00098513          	mv	a0,s3
   135ac:	ea5ff0ef          	jal	ra,13450 <__sfmoreglue>
   135b0:	00a93023          	sd	a0,0(s2)
   135b4:	00050413          	mv	s0,a0
   135b8:	fc051ce3          	bnez	a0,13590 <__sfp+0xc8>
   135bc:	00c00793          	li	a5,12
   135c0:	00f9a023          	sw	a5,0(s3)
   135c4:	fa5ff06f          	j	13568 <__sfp+0xa0>

00000000000135c8 <_cleanup>:
   135c8:	74818793          	addi	a5,gp,1864 # 23150 <_global_impure_ptr>
   135cc:	0007b503          	ld	a0,0(a5)
   135d0:	00009597          	auipc	a1,0x9
   135d4:	40458593          	addi	a1,a1,1028 # 1c9d4 <_fclose_r>
   135d8:	5a00006f          	j	13b78 <_fwalk_reent>

00000000000135dc <__sinit>:
   135dc:	05052783          	lw	a5,80(a0)
   135e0:	00078463          	beqz	a5,135e8 <__sinit+0xc>
   135e4:	00008067          	ret
   135e8:	ce9ff06f          	j	132d0 <__sinit.part.0>

00000000000135ec <__sfp_lock_acquire>:
   135ec:	00008067          	ret

00000000000135f0 <__sfp_lock_release>:
   135f0:	00008067          	ret

00000000000135f4 <__sinit_lock_acquire>:
   135f4:	00008067          	ret

00000000000135f8 <__sinit_lock_release>:
   135f8:	00008067          	ret

00000000000135fc <__fp_lock_all>:
   135fc:	75818793          	addi	a5,gp,1880 # 23160 <_impure_ptr>
   13600:	0007b503          	ld	a0,0(a5)
   13604:	00000597          	auipc	a1,0x0
   13608:	cb858593          	addi	a1,a1,-840 # 132bc <__fp_lock>
   1360c:	4980006f          	j	13aa4 <_fwalk>

0000000000013610 <__fp_unlock_all>:
   13610:	75818793          	addi	a5,gp,1880 # 23160 <_impure_ptr>
   13614:	0007b503          	ld	a0,0(a5)
   13618:	00000597          	auipc	a1,0x0
   1361c:	e3058593          	addi	a1,a1,-464 # 13448 <__fp_unlock>
   13620:	4840006f          	j	13aa4 <_fwalk>

0000000000013624 <_malloc_trim_r>:
   13624:	fd010113          	addi	sp,sp,-48
   13628:	02813023          	sd	s0,32(sp)
   1362c:	00913c23          	sd	s1,24(sp)
   13630:	01213823          	sd	s2,16(sp)
   13634:	01313423          	sd	s3,8(sp)
   13638:	00058413          	mv	s0,a1
   1363c:	02113423          	sd	ra,40(sp)
   13640:	0000f997          	auipc	s3,0xf
   13644:	2d098993          	addi	s3,s3,720 # 22910 <__malloc_av_>
   13648:	00050913          	mv	s2,a0
   1364c:	625030ef          	jal	ra,17470 <__malloc_lock>
   13650:	0109b683          	ld	a3,16(s3)
   13654:	00001737          	lui	a4,0x1
   13658:	fdf70793          	addi	a5,a4,-33 # fdf <register_fini-0xf0d1>
   1365c:	0086b483          	ld	s1,8(a3)
   13660:	40878433          	sub	s0,a5,s0
   13664:	ffc4f493          	andi	s1,s1,-4
   13668:	00940433          	add	s0,s0,s1
   1366c:	00c45413          	srli	s0,s0,0xc
   13670:	fff40413          	addi	s0,s0,-1
   13674:	00c41413          	slli	s0,s0,0xc
   13678:	00e44e63          	blt	s0,a4,13694 <_malloc_trim_r+0x70>
   1367c:	00000593          	li	a1,0
   13680:	00090513          	mv	a0,s2
   13684:	75d040ef          	jal	ra,185e0 <_sbrk_r>
   13688:	0109b783          	ld	a5,16(s3)
   1368c:	009787b3          	add	a5,a5,s1
   13690:	02f50663          	beq	a0,a5,136bc <_malloc_trim_r+0x98>
   13694:	00090513          	mv	a0,s2
   13698:	5dd030ef          	jal	ra,17474 <__malloc_unlock>
   1369c:	02813083          	ld	ra,40(sp)
   136a0:	02013403          	ld	s0,32(sp)
   136a4:	01813483          	ld	s1,24(sp)
   136a8:	01013903          	ld	s2,16(sp)
   136ac:	00813983          	ld	s3,8(sp)
   136b0:	00000513          	li	a0,0
   136b4:	03010113          	addi	sp,sp,48
   136b8:	00008067          	ret
   136bc:	408005b3          	neg	a1,s0
   136c0:	00090513          	mv	a0,s2
   136c4:	71d040ef          	jal	ra,185e0 <_sbrk_r>
   136c8:	fff00793          	li	a5,-1
   136cc:	04f50a63          	beq	a0,a5,13720 <_malloc_trim_r+0xfc>
   136d0:	00010797          	auipc	a5,0x10
   136d4:	b0878793          	addi	a5,a5,-1272 # 231d8 <__malloc_current_mallinfo>
   136d8:	0007a783          	lw	a5,0(a5)
   136dc:	0109b703          	ld	a4,16(s3)
   136e0:	408484b3          	sub	s1,s1,s0
   136e4:	0014e493          	ori	s1,s1,1
   136e8:	4087843b          	subw	s0,a5,s0
   136ec:	00090513          	mv	a0,s2
   136f0:	00973423          	sd	s1,8(a4)
   136f4:	00010797          	auipc	a5,0x10
   136f8:	ae87a223          	sw	s0,-1308(a5) # 231d8 <__malloc_current_mallinfo>
   136fc:	579030ef          	jal	ra,17474 <__malloc_unlock>
   13700:	02813083          	ld	ra,40(sp)
   13704:	02013403          	ld	s0,32(sp)
   13708:	01813483          	ld	s1,24(sp)
   1370c:	01013903          	ld	s2,16(sp)
   13710:	00813983          	ld	s3,8(sp)
   13714:	00100513          	li	a0,1
   13718:	03010113          	addi	sp,sp,48
   1371c:	00008067          	ret
   13720:	00000593          	li	a1,0
   13724:	00090513          	mv	a0,s2
   13728:	6b9040ef          	jal	ra,185e0 <_sbrk_r>
   1372c:	0109b703          	ld	a4,16(s3)
   13730:	01f00693          	li	a3,31
   13734:	40e507b3          	sub	a5,a0,a4
   13738:	f4f6dee3          	bge	a3,a5,13694 <_malloc_trim_r+0x70>
   1373c:	76018693          	addi	a3,gp,1888 # 23168 <__malloc_sbrk_base>
   13740:	0006b683          	ld	a3,0(a3)
   13744:	0017e793          	ori	a5,a5,1
   13748:	00f73423          	sd	a5,8(a4)
   1374c:	40d50533          	sub	a0,a0,a3
   13750:	00010797          	auipc	a5,0x10
   13754:	a8a7a423          	sw	a0,-1400(a5) # 231d8 <__malloc_current_mallinfo>
   13758:	f3dff06f          	j	13694 <_malloc_trim_r+0x70>

000000000001375c <_free_r>:
   1375c:	14058263          	beqz	a1,138a0 <_free_r+0x144>
   13760:	fe010113          	addi	sp,sp,-32
   13764:	00813823          	sd	s0,16(sp)
   13768:	00913423          	sd	s1,8(sp)
   1376c:	00058413          	mv	s0,a1
   13770:	00050493          	mv	s1,a0
   13774:	00113c23          	sd	ra,24(sp)
   13778:	4f9030ef          	jal	ra,17470 <__malloc_lock>
   1377c:	ff843583          	ld	a1,-8(s0)
   13780:	ff040713          	addi	a4,s0,-16
   13784:	0000f517          	auipc	a0,0xf
   13788:	18c50513          	addi	a0,a0,396 # 22910 <__malloc_av_>
   1378c:	ffe5f793          	andi	a5,a1,-2
   13790:	00f70633          	add	a2,a4,a5
   13794:	00863683          	ld	a3,8(a2)
   13798:	01053803          	ld	a6,16(a0)
   1379c:	ffc6f693          	andi	a3,a3,-4
   137a0:	1ac80c63          	beq	a6,a2,13958 <_free_r+0x1fc>
   137a4:	00d63423          	sd	a3,8(a2)
   137a8:	0015f593          	andi	a1,a1,1
   137ac:	00d60833          	add	a6,a2,a3
   137b0:	0a059863          	bnez	a1,13860 <_free_r+0x104>
   137b4:	ff043303          	ld	t1,-16(s0)
   137b8:	00883583          	ld	a1,8(a6)
   137bc:	0000f897          	auipc	a7,0xf
   137c0:	16488893          	addi	a7,a7,356 # 22920 <__malloc_av_+0x10>
   137c4:	40670733          	sub	a4,a4,t1
   137c8:	01073803          	ld	a6,16(a4)
   137cc:	006787b3          	add	a5,a5,t1
   137d0:	0015f593          	andi	a1,a1,1
   137d4:	15180c63          	beq	a6,a7,1392c <_free_r+0x1d0>
   137d8:	01873303          	ld	t1,24(a4)
   137dc:	00683c23          	sd	t1,24(a6)
   137e0:	01033823          	sd	a6,16(t1)
   137e4:	1e058c63          	beqz	a1,139dc <_free_r+0x280>
   137e8:	0017e693          	ori	a3,a5,1
   137ec:	00d73423          	sd	a3,8(a4)
   137f0:	00f63023          	sd	a5,0(a2)
   137f4:	1ff00693          	li	a3,511
   137f8:	0cf6e063          	bltu	a3,a5,138b8 <_free_r+0x15c>
   137fc:	0037d793          	srli	a5,a5,0x3
   13800:	0007879b          	sext.w	a5,a5
   13804:	0017869b          	addiw	a3,a5,1
   13808:	0016969b          	slliw	a3,a3,0x1
   1380c:	00369693          	slli	a3,a3,0x3
   13810:	00853583          	ld	a1,8(a0)
   13814:	00d50533          	add	a0,a0,a3
   13818:	00053603          	ld	a2,0(a0)
   1381c:	00100693          	li	a3,1
   13820:	4027d79b          	sraiw	a5,a5,0x2
   13824:	00f697b3          	sll	a5,a3,a5
   13828:	00b7e7b3          	or	a5,a5,a1
   1382c:	ff050693          	addi	a3,a0,-16
   13830:	00d73c23          	sd	a3,24(a4)
   13834:	00c73823          	sd	a2,16(a4)
   13838:	0000f697          	auipc	a3,0xf
   1383c:	0ef6b023          	sd	a5,224(a3) # 22918 <__malloc_av_+0x8>
   13840:	00e53023          	sd	a4,0(a0)
   13844:	00e63c23          	sd	a4,24(a2)
   13848:	01013403          	ld	s0,16(sp)
   1384c:	01813083          	ld	ra,24(sp)
   13850:	00048513          	mv	a0,s1
   13854:	00813483          	ld	s1,8(sp)
   13858:	02010113          	addi	sp,sp,32
   1385c:	4190306f          	j	17474 <__malloc_unlock>
   13860:	00883583          	ld	a1,8(a6)
   13864:	0015f593          	andi	a1,a1,1
   13868:	02059e63          	bnez	a1,138a4 <_free_r+0x148>
   1386c:	00d787b3          	add	a5,a5,a3
   13870:	0000f897          	auipc	a7,0xf
   13874:	0b088893          	addi	a7,a7,176 # 22920 <__malloc_av_+0x10>
   13878:	01063683          	ld	a3,16(a2)
   1387c:	0017e813          	ori	a6,a5,1
   13880:	00f705b3          	add	a1,a4,a5
   13884:	17168c63          	beq	a3,a7,139fc <_free_r+0x2a0>
   13888:	01863603          	ld	a2,24(a2)
   1388c:	00c6bc23          	sd	a2,24(a3)
   13890:	00d63823          	sd	a3,16(a2)
   13894:	01073423          	sd	a6,8(a4)
   13898:	00f5b023          	sd	a5,0(a1)
   1389c:	f59ff06f          	j	137f4 <_free_r+0x98>
   138a0:	00008067          	ret
   138a4:	0017e693          	ori	a3,a5,1
   138a8:	fed43c23          	sd	a3,-8(s0)
   138ac:	00f63023          	sd	a5,0(a2)
   138b0:	1ff00693          	li	a3,511
   138b4:	f4f6f4e3          	bgeu	a3,a5,137fc <_free_r+0xa0>
   138b8:	0097d693          	srli	a3,a5,0x9
   138bc:	00400613          	li	a2,4
   138c0:	0ed66863          	bltu	a2,a3,139b0 <_free_r+0x254>
   138c4:	0067d693          	srli	a3,a5,0x6
   138c8:	0006869b          	sext.w	a3,a3
   138cc:	0396859b          	addiw	a1,a3,57
   138d0:	0015959b          	slliw	a1,a1,0x1
   138d4:	0386861b          	addiw	a2,a3,56
   138d8:	00359593          	slli	a1,a1,0x3
   138dc:	00b505b3          	add	a1,a0,a1
   138e0:	0005b683          	ld	a3,0(a1)
   138e4:	ff058593          	addi	a1,a1,-16
   138e8:	12d58c63          	beq	a1,a3,13a20 <_free_r+0x2c4>
   138ec:	0086b603          	ld	a2,8(a3)
   138f0:	ffc67613          	andi	a2,a2,-4
   138f4:	00c7f663          	bgeu	a5,a2,13900 <_free_r+0x1a4>
   138f8:	0106b683          	ld	a3,16(a3)
   138fc:	fed598e3          	bne	a1,a3,138ec <_free_r+0x190>
   13900:	0186b583          	ld	a1,24(a3)
   13904:	00b73c23          	sd	a1,24(a4)
   13908:	00d73823          	sd	a3,16(a4)
   1390c:	01013403          	ld	s0,16(sp)
   13910:	00e5b823          	sd	a4,16(a1)
   13914:	01813083          	ld	ra,24(sp)
   13918:	00048513          	mv	a0,s1
   1391c:	00813483          	ld	s1,8(sp)
   13920:	00e6bc23          	sd	a4,24(a3)
   13924:	02010113          	addi	sp,sp,32
   13928:	34d0306f          	j	17474 <__malloc_unlock>
   1392c:	16059463          	bnez	a1,13a94 <_free_r+0x338>
   13930:	01063583          	ld	a1,16(a2)
   13934:	01863603          	ld	a2,24(a2)
   13938:	00f687b3          	add	a5,a3,a5
   1393c:	0017e693          	ori	a3,a5,1
   13940:	00c5bc23          	sd	a2,24(a1)
   13944:	00b63823          	sd	a1,16(a2)
   13948:	00d73423          	sd	a3,8(a4)
   1394c:	00f70733          	add	a4,a4,a5
   13950:	00f73023          	sd	a5,0(a4)
   13954:	ef5ff06f          	j	13848 <_free_r+0xec>
   13958:	0015f593          	andi	a1,a1,1
   1395c:	00d787b3          	add	a5,a5,a3
   13960:	02059063          	bnez	a1,13980 <_free_r+0x224>
   13964:	ff043583          	ld	a1,-16(s0)
   13968:	40b70733          	sub	a4,a4,a1
   1396c:	01873683          	ld	a3,24(a4)
   13970:	01073603          	ld	a2,16(a4)
   13974:	00b787b3          	add	a5,a5,a1
   13978:	00d63c23          	sd	a3,24(a2)
   1397c:	00c6b823          	sd	a2,16(a3)
   13980:	76818693          	addi	a3,gp,1896 # 23170 <__malloc_trim_threshold>
   13984:	0017e613          	ori	a2,a5,1
   13988:	0006b683          	ld	a3,0(a3)
   1398c:	00c73423          	sd	a2,8(a4)
   13990:	0000f617          	auipc	a2,0xf
   13994:	f8e63823          	sd	a4,-112(a2) # 22920 <__malloc_av_+0x10>
   13998:	ead7e8e3          	bltu	a5,a3,13848 <_free_r+0xec>
   1399c:	78818793          	addi	a5,gp,1928 # 23190 <__malloc_top_pad>
   139a0:	0007b583          	ld	a1,0(a5)
   139a4:	00048513          	mv	a0,s1
   139a8:	c7dff0ef          	jal	ra,13624 <_malloc_trim_r>
   139ac:	e9dff06f          	j	13848 <_free_r+0xec>
   139b0:	01400613          	li	a2,20
   139b4:	02d67863          	bgeu	a2,a3,139e4 <_free_r+0x288>
   139b8:	05400613          	li	a2,84
   139bc:	08d66263          	bltu	a2,a3,13a40 <_free_r+0x2e4>
   139c0:	00c7d693          	srli	a3,a5,0xc
   139c4:	0006869b          	sext.w	a3,a3
   139c8:	06f6859b          	addiw	a1,a3,111
   139cc:	0015959b          	slliw	a1,a1,0x1
   139d0:	06e6861b          	addiw	a2,a3,110
   139d4:	00359593          	slli	a1,a1,0x3
   139d8:	f05ff06f          	j	138dc <_free_r+0x180>
   139dc:	00d787b3          	add	a5,a5,a3
   139e0:	e99ff06f          	j	13878 <_free_r+0x11c>
   139e4:	0006869b          	sext.w	a3,a3
   139e8:	05c6859b          	addiw	a1,a3,92
   139ec:	0015959b          	slliw	a1,a1,0x1
   139f0:	05b6861b          	addiw	a2,a3,91
   139f4:	00359593          	slli	a1,a1,0x3
   139f8:	ee5ff06f          	j	138dc <_free_r+0x180>
   139fc:	0000f697          	auipc	a3,0xf
   13a00:	f2e6be23          	sd	a4,-196(a3) # 22938 <__malloc_av_+0x28>
   13a04:	0000f697          	auipc	a3,0xf
   13a08:	f2e6b623          	sd	a4,-212(a3) # 22930 <__malloc_av_+0x20>
   13a0c:	01173c23          	sd	a7,24(a4)
   13a10:	01173823          	sd	a7,16(a4)
   13a14:	01073423          	sd	a6,8(a4)
   13a18:	00f5b023          	sd	a5,0(a1)
   13a1c:	e2dff06f          	j	13848 <_free_r+0xec>
   13a20:	00853503          	ld	a0,8(a0)
   13a24:	00100793          	li	a5,1
   13a28:	4026561b          	sraiw	a2,a2,0x2
   13a2c:	00c79633          	sll	a2,a5,a2
   13a30:	00a66633          	or	a2,a2,a0
   13a34:	0000f797          	auipc	a5,0xf
   13a38:	eec7b223          	sd	a2,-284(a5) # 22918 <__malloc_av_+0x8>
   13a3c:	ec9ff06f          	j	13904 <_free_r+0x1a8>
   13a40:	15400613          	li	a2,340
   13a44:	02d66063          	bltu	a2,a3,13a64 <_free_r+0x308>
   13a48:	00f7d693          	srli	a3,a5,0xf
   13a4c:	0006869b          	sext.w	a3,a3
   13a50:	0786859b          	addiw	a1,a3,120
   13a54:	0015959b          	slliw	a1,a1,0x1
   13a58:	0776861b          	addiw	a2,a3,119
   13a5c:	00359593          	slli	a1,a1,0x3
   13a60:	e7dff06f          	j	138dc <_free_r+0x180>
   13a64:	55400613          	li	a2,1364
   13a68:	02d66063          	bltu	a2,a3,13a88 <_free_r+0x32c>
   13a6c:	0127d693          	srli	a3,a5,0x12
   13a70:	0006869b          	sext.w	a3,a3
   13a74:	07d6859b          	addiw	a1,a3,125
   13a78:	0015959b          	slliw	a1,a1,0x1
   13a7c:	07c6861b          	addiw	a2,a3,124
   13a80:	00359593          	slli	a1,a1,0x3
   13a84:	e59ff06f          	j	138dc <_free_r+0x180>
   13a88:	7f000593          	li	a1,2032
   13a8c:	07e00613          	li	a2,126
   13a90:	e4dff06f          	j	138dc <_free_r+0x180>
   13a94:	0017e693          	ori	a3,a5,1
   13a98:	00d73423          	sd	a3,8(a4)
   13a9c:	00f63023          	sd	a5,0(a2)
   13aa0:	da9ff06f          	j	13848 <_free_r+0xec>

0000000000013aa4 <_fwalk>:
   13aa4:	fc010113          	addi	sp,sp,-64
   13aa8:	01313c23          	sd	s3,24(sp)
   13aac:	02113c23          	sd	ra,56(sp)
   13ab0:	02813823          	sd	s0,48(sp)
   13ab4:	02913423          	sd	s1,40(sp)
   13ab8:	03213023          	sd	s2,32(sp)
   13abc:	01413823          	sd	s4,16(sp)
   13ac0:	01513423          	sd	s5,8(sp)
   13ac4:	01613023          	sd	s6,0(sp)
   13ac8:	52050993          	addi	s3,a0,1312
   13acc:	0a098263          	beqz	s3,13b70 <_fwalk+0xcc>
   13ad0:	00058a93          	mv	s5,a1
   13ad4:	00000913          	li	s2,0
   13ad8:	00100b13          	li	s6,1
   13adc:	fff00a13          	li	s4,-1
   13ae0:	0089a783          	lw	a5,8(s3)
   13ae4:	0109b403          	ld	s0,16(s3)
   13ae8:	04f05a63          	blez	a5,13b3c <_fwalk+0x98>
   13aec:	fff7879b          	addiw	a5,a5,-1
   13af0:	02079493          	slli	s1,a5,0x20
   13af4:	0204d493          	srli	s1,s1,0x20
   13af8:	00148793          	addi	a5,s1,1
   13afc:	00179493          	slli	s1,a5,0x1
   13b00:	00f484b3          	add	s1,s1,a5
   13b04:	00249493          	slli	s1,s1,0x2
   13b08:	40f484b3          	sub	s1,s1,a5
   13b0c:	00449493          	slli	s1,s1,0x4
   13b10:	009404b3          	add	s1,s0,s1
   13b14:	01045783          	lhu	a5,16(s0)
   13b18:	00fb7e63          	bgeu	s6,a5,13b34 <_fwalk+0x90>
   13b1c:	01241783          	lh	a5,18(s0)
   13b20:	00040513          	mv	a0,s0
   13b24:	01478863          	beq	a5,s4,13b34 <_fwalk+0x90>
   13b28:	000a80e7          	jalr	s5
   13b2c:	01256933          	or	s2,a0,s2
   13b30:	0009091b          	sext.w	s2,s2
   13b34:	0b040413          	addi	s0,s0,176
   13b38:	fc941ee3          	bne	s0,s1,13b14 <_fwalk+0x70>
   13b3c:	0009b983          	ld	s3,0(s3)
   13b40:	fa0990e3          	bnez	s3,13ae0 <_fwalk+0x3c>
   13b44:	03813083          	ld	ra,56(sp)
   13b48:	03013403          	ld	s0,48(sp)
   13b4c:	00090513          	mv	a0,s2
   13b50:	02813483          	ld	s1,40(sp)
   13b54:	02013903          	ld	s2,32(sp)
   13b58:	01813983          	ld	s3,24(sp)
   13b5c:	01013a03          	ld	s4,16(sp)
   13b60:	00813a83          	ld	s5,8(sp)
   13b64:	00013b03          	ld	s6,0(sp)
   13b68:	04010113          	addi	sp,sp,64
   13b6c:	00008067          	ret
   13b70:	00000913          	li	s2,0
   13b74:	fd1ff06f          	j	13b44 <_fwalk+0xa0>

0000000000013b78 <_fwalk_reent>:
   13b78:	fb010113          	addi	sp,sp,-80
   13b7c:	03213823          	sd	s2,48(sp)
   13b80:	04113423          	sd	ra,72(sp)
   13b84:	04813023          	sd	s0,64(sp)
   13b88:	02913c23          	sd	s1,56(sp)
   13b8c:	03313423          	sd	s3,40(sp)
   13b90:	03413023          	sd	s4,32(sp)
   13b94:	01513c23          	sd	s5,24(sp)
   13b98:	01613823          	sd	s6,16(sp)
   13b9c:	01713423          	sd	s7,8(sp)
   13ba0:	52050913          	addi	s2,a0,1312
   13ba4:	0a090863          	beqz	s2,13c54 <_fwalk_reent+0xdc>
   13ba8:	00058a93          	mv	s5,a1
   13bac:	00050993          	mv	s3,a0
   13bb0:	00000b13          	li	s6,0
   13bb4:	00100b93          	li	s7,1
   13bb8:	fff00a13          	li	s4,-1
   13bbc:	00892783          	lw	a5,8(s2)
   13bc0:	01093403          	ld	s0,16(s2)
   13bc4:	04f05c63          	blez	a5,13c1c <_fwalk_reent+0xa4>
   13bc8:	fff7879b          	addiw	a5,a5,-1
   13bcc:	02079493          	slli	s1,a5,0x20
   13bd0:	0204d493          	srli	s1,s1,0x20
   13bd4:	00148793          	addi	a5,s1,1
   13bd8:	00179493          	slli	s1,a5,0x1
   13bdc:	00f484b3          	add	s1,s1,a5
   13be0:	00249493          	slli	s1,s1,0x2
   13be4:	40f484b3          	sub	s1,s1,a5
   13be8:	00449493          	slli	s1,s1,0x4
   13bec:	009404b3          	add	s1,s0,s1
   13bf0:	01045783          	lhu	a5,16(s0)
   13bf4:	02fbf063          	bgeu	s7,a5,13c14 <_fwalk_reent+0x9c>
   13bf8:	01241783          	lh	a5,18(s0)
   13bfc:	00040593          	mv	a1,s0
   13c00:	00098513          	mv	a0,s3
   13c04:	01478863          	beq	a5,s4,13c14 <_fwalk_reent+0x9c>
   13c08:	000a80e7          	jalr	s5
   13c0c:	01656b33          	or	s6,a0,s6
   13c10:	000b0b1b          	sext.w	s6,s6
   13c14:	0b040413          	addi	s0,s0,176
   13c18:	fc941ce3          	bne	s0,s1,13bf0 <_fwalk_reent+0x78>
   13c1c:	00093903          	ld	s2,0(s2)
   13c20:	f8091ee3          	bnez	s2,13bbc <_fwalk_reent+0x44>
   13c24:	04813083          	ld	ra,72(sp)
   13c28:	04013403          	ld	s0,64(sp)
   13c2c:	000b0513          	mv	a0,s6
   13c30:	03813483          	ld	s1,56(sp)
   13c34:	03013903          	ld	s2,48(sp)
   13c38:	02813983          	ld	s3,40(sp)
   13c3c:	02013a03          	ld	s4,32(sp)
   13c40:	01813a83          	ld	s5,24(sp)
   13c44:	01013b03          	ld	s6,16(sp)
   13c48:	00813b83          	ld	s7,8(sp)
   13c4c:	05010113          	addi	sp,sp,80
   13c50:	00008067          	ret
   13c54:	00000b13          	li	s6,0
   13c58:	fcdff06f          	j	13c24 <_fwalk_reent+0xac>

0000000000013c5c <eshdn1>:
   13c5c:	00450693          	addi	a3,a0,4
   13c60:	00000793          	li	a5,0
   13c64:	01a50513          	addi	a0,a0,26
   13c68:	ffff8837          	lui	a6,0xffff8
   13c6c:	01c0006f          	j	13c88 <eshdn1+0x2c>
   13c70:	0017979b          	slliw	a5,a5,0x1
   13c74:	00e69023          	sh	a4,0(a3)
   13c78:	03079793          	slli	a5,a5,0x30
   13c7c:	00268693          	addi	a3,a3,2
   13c80:	0307d793          	srli	a5,a5,0x30
   13c84:	02d50e63          	beq	a0,a3,13cc0 <eshdn1+0x64>
   13c88:	0006d703          	lhu	a4,0(a3)
   13c8c:	00177613          	andi	a2,a4,1
   13c90:	00060463          	beqz	a2,13c98 <eshdn1+0x3c>
   13c94:	0017e793          	ori	a5,a5,1
   13c98:	00175713          	srli	a4,a4,0x1
   13c9c:	0027f613          	andi	a2,a5,2
   13ca0:	010765b3          	or	a1,a4,a6
   13ca4:	fc0606e3          	beqz	a2,13c70 <eshdn1+0x14>
   13ca8:	0017979b          	slliw	a5,a5,0x1
   13cac:	00b69023          	sh	a1,0(a3)
   13cb0:	03079793          	slli	a5,a5,0x30
   13cb4:	00268693          	addi	a3,a3,2
   13cb8:	0307d793          	srli	a5,a5,0x30
   13cbc:	fcd516e3          	bne	a0,a3,13c88 <eshdn1+0x2c>
   13cc0:	00008067          	ret

0000000000013cc4 <eshup1>:
   13cc4:	01850693          	addi	a3,a0,24
   13cc8:	00000713          	li	a4,0
   13ccc:	00250513          	addi	a0,a0,2
   13cd0:	01c0006f          	j	13cec <eshup1+0x28>
   13cd4:	0017171b          	slliw	a4,a4,0x1
   13cd8:	00f69023          	sh	a5,0(a3)
   13cdc:	03071713          	slli	a4,a4,0x30
   13ce0:	ffe68693          	addi	a3,a3,-2
   13ce4:	03075713          	srli	a4,a4,0x30
   13ce8:	04d50663          	beq	a0,a3,13d34 <eshup1+0x70>
   13cec:	0006d783          	lhu	a5,0(a3)
   13cf0:	0107961b          	slliw	a2,a5,0x10
   13cf4:	4106561b          	sraiw	a2,a2,0x10
   13cf8:	02061593          	slli	a1,a2,0x20
   13cfc:	0017979b          	slliw	a5,a5,0x1
   13d00:	0005d463          	bgez	a1,13d08 <eshup1+0x44>
   13d04:	00176713          	ori	a4,a4,1
   13d08:	03079793          	slli	a5,a5,0x30
   13d0c:	0307d793          	srli	a5,a5,0x30
   13d10:	00277613          	andi	a2,a4,2
   13d14:	0017e593          	ori	a1,a5,1
   13d18:	fa060ee3          	beqz	a2,13cd4 <eshup1+0x10>
   13d1c:	0017171b          	slliw	a4,a4,0x1
   13d20:	00b69023          	sh	a1,0(a3)
   13d24:	03071713          	slli	a4,a4,0x30
   13d28:	ffe68693          	addi	a3,a3,-2
   13d2c:	03075713          	srli	a4,a4,0x30
   13d30:	fad51ee3          	bne	a0,a3,13cec <eshup1+0x28>
   13d34:	00008067          	ret

0000000000013d38 <m16m>:
   13d38:	fa010113          	addi	sp,sp,-96
   13d3c:	03413823          	sd	s4,48(sp)
   13d40:	00010a37          	lui	s4,0x10
   13d44:	04813823          	sd	s0,80(sp)
   13d48:	04913423          	sd	s1,72(sp)
   13d4c:	05213023          	sd	s2,64(sp)
   13d50:	03313c23          	sd	s3,56(sp)
   13d54:	03513423          	sd	s5,40(sp)
   13d58:	04113c23          	sd	ra,88(sp)
   13d5c:	00050a93          	mv	s5,a0
   13d60:	00060493          	mv	s1,a2
   13d64:	00011b23          	sh	zero,22(sp)
   13d68:	00011c23          	sh	zero,24(sp)
   13d6c:	01858913          	addi	s2,a1,24
   13d70:	01810413          	addi	s0,sp,24
   13d74:	00410993          	addi	s3,sp,4
   13d78:	fffa0a13          	addi	s4,s4,-1 # ffff <register_fini-0xb1>
   13d7c:	00095783          	lhu	a5,0(s2)
   13d80:	000a8593          	mv	a1,s5
   13d84:	ffe40413          	addi	s0,s0,-2
   13d88:	ffe90913          	addi	s2,s2,-2
   13d8c:	00078513          	mv	a0,a5
   13d90:	04079663          	bnez	a5,13ddc <m16m+0xa4>
   13d94:	fe041f23          	sh	zero,-2(s0)
   13d98:	ff3412e3          	bne	s0,s3,13d7c <m16m+0x44>
   13d9c:	00448613          	addi	a2,s1,4
   13da0:	01a10713          	addi	a4,sp,26
   13da4:	00045783          	lhu	a5,0(s0)
   13da8:	00260613          	addi	a2,a2,2
   13dac:	00240413          	addi	s0,s0,2
   13db0:	fef61f23          	sh	a5,-2(a2)
   13db4:	fee418e3          	bne	s0,a4,13da4 <m16m+0x6c>
   13db8:	05813083          	ld	ra,88(sp)
   13dbc:	05013403          	ld	s0,80(sp)
   13dc0:	04813483          	ld	s1,72(sp)
   13dc4:	04013903          	ld	s2,64(sp)
   13dc8:	03813983          	ld	s3,56(sp)
   13dcc:	03013a03          	ld	s4,48(sp)
   13dd0:	02813a83          	ld	s5,40(sp)
   13dd4:	06010113          	addi	sp,sp,96
   13dd8:	00008067          	ret
   13ddc:	2480d0ef          	jal	ra,21024 <__muldi3>
   13de0:	00245703          	lhu	a4,2(s0)
   13de4:	00045683          	lhu	a3,0(s0)
   13de8:	014577b3          	and	a5,a0,s4
   13dec:	00e787b3          	add	a5,a5,a4
   13df0:	01055513          	srli	a0,a0,0x10
   13df4:	0107d713          	srli	a4,a5,0x10
   13df8:	00d50533          	add	a0,a0,a3
   13dfc:	00e50533          	add	a0,a0,a4
   13e00:	01055713          	srli	a4,a0,0x10
   13e04:	00f41123          	sh	a5,2(s0)
   13e08:	00a41023          	sh	a0,0(s0)
   13e0c:	fee41f23          	sh	a4,-2(s0)
   13e10:	f73416e3          	bne	s0,s3,13d7c <m16m+0x44>
   13e14:	f89ff06f          	j	13d9c <m16m+0x64>

0000000000013e18 <eisnan.part.0>:
   13e18:	01250713          	addi	a4,a0,18
   13e1c:	00250513          	addi	a0,a0,2
   13e20:	ffe55783          	lhu	a5,-2(a0)
   13e24:	00079863          	bnez	a5,13e34 <eisnan.part.0+0x1c>
   13e28:	fea71ae3          	bne	a4,a0,13e1c <eisnan.part.0+0x4>
   13e2c:	00000513          	li	a0,0
   13e30:	00008067          	ret
   13e34:	00100513          	li	a0,1
   13e38:	00008067          	ret

0000000000013e3c <eneg>:
   13e3c:	fe010113          	addi	sp,sp,-32
   13e40:	00813823          	sd	s0,16(sp)
   13e44:	01255403          	lhu	s0,18(a0)
   13e48:	00913423          	sd	s1,8(sp)
   13e4c:	00113c23          	sd	ra,24(sp)
   13e50:	fff44793          	not	a5,s0
   13e54:	03179713          	slli	a4,a5,0x31
   13e58:	00050493          	mv	s1,a0
   13e5c:	00071663          	bnez	a4,13e68 <eneg+0x2c>
   13e60:	fb9ff0ef          	jal	ra,13e18 <eisnan.part.0>
   13e64:	00051863          	bnez	a0,13e74 <eneg+0x38>
   13e68:	ffff87b7          	lui	a5,0xffff8
   13e6c:	00f44433          	xor	s0,s0,a5
   13e70:	00849923          	sh	s0,18(s1)
   13e74:	01813083          	ld	ra,24(sp)
   13e78:	01013403          	ld	s0,16(sp)
   13e7c:	00813483          	ld	s1,8(sp)
   13e80:	02010113          	addi	sp,sp,32
   13e84:	00008067          	ret

0000000000013e88 <eisneg>:
   13e88:	ff010113          	addi	sp,sp,-16
   13e8c:	00813023          	sd	s0,0(sp)
   13e90:	01255403          	lhu	s0,18(a0)
   13e94:	00113423          	sd	ra,8(sp)
   13e98:	fff44793          	not	a5,s0
   13e9c:	03179713          	slli	a4,a5,0x31
   13ea0:	00071863          	bnez	a4,13eb0 <eisneg+0x28>
   13ea4:	f75ff0ef          	jal	ra,13e18 <eisnan.part.0>
   13ea8:	00000793          	li	a5,0
   13eac:	00051463          	bnez	a0,13eb4 <eisneg+0x2c>
   13eb0:	00f45793          	srli	a5,s0,0xf
   13eb4:	00813083          	ld	ra,8(sp)
   13eb8:	00013403          	ld	s0,0(sp)
   13ebc:	00078513          	mv	a0,a5
   13ec0:	01010113          	addi	sp,sp,16
   13ec4:	00008067          	ret

0000000000013ec8 <emovi>:
   13ec8:	01255783          	lhu	a5,18(a0)
   13ecc:	fe010113          	addi	sp,sp,-32
   13ed0:	00813823          	sd	s0,16(sp)
   13ed4:	00f7d79b          	srliw	a5,a5,0xf
   13ed8:	00913423          	sd	s1,8(sp)
   13edc:	00113c23          	sd	ra,24(sp)
   13ee0:	01213023          	sd	s2,0(sp)
   13ee4:	40f007bb          	negw	a5,a5
   13ee8:	00f59023          	sh	a5,0(a1)
   13eec:	01255783          	lhu	a5,18(a0)
   13ef0:	000086b7          	lui	a3,0x8
   13ef4:	fff68693          	addi	a3,a3,-1 # 7fff <register_fini-0x80b1>
   13ef8:	00f6f7b3          	and	a5,a3,a5
   13efc:	00f59123          	sh	a5,2(a1)
   13f00:	0007879b          	sext.w	a5,a5
   13f04:	00050493          	mv	s1,a0
   13f08:	01050413          	addi	s0,a0,16
   13f0c:	04d78063          	beq	a5,a3,13f4c <emovi+0x84>
   13f10:	00658793          	addi	a5,a1,6
   13f14:	00059223          	sh	zero,4(a1)
   13f18:	ffe50513          	addi	a0,a0,-2
   13f1c:	ffe40413          	addi	s0,s0,-2
   13f20:	00245703          	lhu	a4,2(s0)
   13f24:	00278793          	addi	a5,a5,2 # ffffffffffff8002 <__BSS_END__+0xfffffffffffd4dfa>
   13f28:	fee79f23          	sh	a4,-2(a5)
   13f2c:	fea418e3          	bne	s0,a0,13f1c <emovi+0x54>
   13f30:	00059c23          	sh	zero,24(a1)
   13f34:	01813083          	ld	ra,24(sp)
   13f38:	01013403          	ld	s0,16(sp)
   13f3c:	00813483          	ld	s1,8(sp)
   13f40:	00013903          	ld	s2,0(sp)
   13f44:	02010113          	addi	sp,sp,32
   13f48:	00008067          	ret
   13f4c:	01255703          	lhu	a4,18(a0)
   13f50:	00058913          	mv	s2,a1
   13f54:	00e7f733          	and	a4,a5,a4
   13f58:	02f71863          	bne	a4,a5,13f88 <emovi+0xc0>
   13f5c:	ebdff0ef          	jal	ra,13e18 <eisnan.part.0>
   13f60:	02050463          	beqz	a0,13f88 <emovi+0xc0>
   13f64:	00690713          	addi	a4,s2,6
   13f68:	00091223          	sh	zero,4(s2)
   13f6c:	ffc48793          	addi	a5,s1,-4
   13f70:	ffe40413          	addi	s0,s0,-2
   13f74:	00245683          	lhu	a3,2(s0)
   13f78:	00270713          	addi	a4,a4,2
   13f7c:	fed71f23          	sh	a3,-2(a4)
   13f80:	fe8798e3          	bne	a5,s0,13f70 <emovi+0xa8>
   13f84:	fb1ff06f          	j	13f34 <emovi+0x6c>
   13f88:	00490793          	addi	a5,s2,4
   13f8c:	01a90593          	addi	a1,s2,26
   13f90:	00278793          	addi	a5,a5,2
   13f94:	fe079f23          	sh	zero,-2(a5)
   13f98:	fef59ce3          	bne	a1,a5,13f90 <emovi+0xc8>
   13f9c:	01813083          	ld	ra,24(sp)
   13fa0:	01013403          	ld	s0,16(sp)
   13fa4:	00813483          	ld	s1,8(sp)
   13fa8:	00013903          	ld	s2,0(sp)
   13fac:	02010113          	addi	sp,sp,32
   13fb0:	00008067          	ret

0000000000013fb4 <ecmp>:
   13fb4:	01255783          	lhu	a5,18(a0)
   13fb8:	fa010113          	addi	sp,sp,-96
   13fbc:	04813823          	sd	s0,80(sp)
   13fc0:	fff7c793          	not	a5,a5
   13fc4:	04913423          	sd	s1,72(sp)
   13fc8:	04113c23          	sd	ra,88(sp)
   13fcc:	03179713          	slli	a4,a5,0x31
   13fd0:	00050493          	mv	s1,a0
   13fd4:	00058413          	mv	s0,a1
   13fd8:	00071663          	bnez	a4,13fe4 <ecmp+0x30>
   13fdc:	e3dff0ef          	jal	ra,13e18 <eisnan.part.0>
   13fe0:	08051263          	bnez	a0,14064 <ecmp+0xb0>
   13fe4:	01245783          	lhu	a5,18(s0)
   13fe8:	fff7c793          	not	a5,a5
   13fec:	03179713          	slli	a4,a5,0x31
   13ff0:	06070463          	beqz	a4,14058 <ecmp+0xa4>
   13ff4:	00010593          	mv	a1,sp
   13ff8:	00048513          	mv	a0,s1
   13ffc:	ecdff0ef          	jal	ra,13ec8 <emovi>
   14000:	02010593          	addi	a1,sp,32
   14004:	00040513          	mv	a0,s0
   14008:	ec1ff0ef          	jal	ra,13ec8 <emovi>
   1400c:	00015583          	lhu	a1,0(sp)
   14010:	02015783          	lhu	a5,32(sp)
   14014:	04b78c63          	beq	a5,a1,1406c <ecmp+0xb8>
   14018:	00210793          	addi	a5,sp,2
   1401c:	02210713          	addi	a4,sp,34
   14020:	01810613          	addi	a2,sp,24
   14024:	0007d683          	lhu	a3,0(a5)
   14028:	00278793          	addi	a5,a5,2
   1402c:	08069663          	bnez	a3,140b8 <ecmp+0x104>
   14030:	00075683          	lhu	a3,0(a4)
   14034:	00270713          	addi	a4,a4,2
   14038:	08069063          	bnez	a3,140b8 <ecmp+0x104>
   1403c:	fec794e3          	bne	a5,a2,14024 <ecmp+0x70>
   14040:	00000513          	li	a0,0
   14044:	05813083          	ld	ra,88(sp)
   14048:	05013403          	ld	s0,80(sp)
   1404c:	04813483          	ld	s1,72(sp)
   14050:	06010113          	addi	sp,sp,96
   14054:	00008067          	ret
   14058:	00040513          	mv	a0,s0
   1405c:	dbdff0ef          	jal	ra,13e18 <eisnan.part.0>
   14060:	f8050ae3          	beqz	a0,13ff4 <ecmp+0x40>
   14064:	ffe00513          	li	a0,-2
   14068:	fddff06f          	j	14044 <ecmp+0x90>
   1406c:	00100513          	li	a0,1
   14070:	04059c63          	bnez	a1,140c8 <ecmp+0x114>
   14074:	00210713          	addi	a4,sp,2
   14078:	02210793          	addi	a5,sp,34
   1407c:	00278793          	addi	a5,a5,2
   14080:	00270713          	addi	a4,a4,2
   14084:	ffe75603          	lhu	a2,-2(a4)
   14088:	ffe7d683          	lhu	a3,-2(a5)
   1408c:	03810593          	addi	a1,sp,56
   14090:	00d61e63          	bne	a2,a3,140ac <ecmp+0xf8>
   14094:	fab786e3          	beq	a5,a1,14040 <ecmp+0x8c>
   14098:	00278793          	addi	a5,a5,2
   1409c:	00270713          	addi	a4,a4,2
   140a0:	ffe75603          	lhu	a2,-2(a4)
   140a4:	ffe7d683          	lhu	a3,-2(a5)
   140a8:	fed606e3          	beq	a2,a3,14094 <ecmp+0xe0>
   140ac:	f8c6ece3          	bltu	a3,a2,14044 <ecmp+0x90>
   140b0:	40a0053b          	negw	a0,a0
   140b4:	f91ff06f          	j	14044 <ecmp+0x90>
   140b8:	00100513          	li	a0,1
   140bc:	f80584e3          	beqz	a1,14044 <ecmp+0x90>
   140c0:	fff00513          	li	a0,-1
   140c4:	f81ff06f          	j	14044 <ecmp+0x90>
   140c8:	fff00513          	li	a0,-1
   140cc:	fa9ff06f          	j	14074 <ecmp+0xc0>

00000000000140d0 <eisinf.part.1>:
   140d0:	ff010113          	addi	sp,sp,-16
   140d4:	00113423          	sd	ra,8(sp)
   140d8:	d41ff0ef          	jal	ra,13e18 <eisnan.part.0>
   140dc:	00813083          	ld	ra,8(sp)
   140e0:	00153513          	seqz	a0,a0
   140e4:	01010113          	addi	sp,sp,16
   140e8:	00008067          	ret

00000000000140ec <eshift.part.3>:
   140ec:	fe010113          	addi	sp,sp,-32
   140f0:	00813823          	sd	s0,16(sp)
   140f4:	01213023          	sd	s2,0(sp)
   140f8:	00113c23          	sd	ra,24(sp)
   140fc:	00913423          	sd	s1,8(sp)
   14100:	00058913          	mv	s2,a1
   14104:	00050413          	mv	s0,a0
   14108:	0a05c263          	bltz	a1,141ac <eshift.part.3+0xc0>
   1410c:	00f00793          	li	a5,15
   14110:	00058613          	mv	a2,a1
   14114:	00450513          	addi	a0,a0,4
   14118:	01840693          	addi	a3,s0,24
   1411c:	00f00593          	li	a1,15
   14120:	0327d463          	bge	a5,s2,14148 <eshift.part.3+0x5c>
   14124:	00050793          	mv	a5,a0
   14128:	00278793          	addi	a5,a5,2
   1412c:	0007d703          	lhu	a4,0(a5)
   14130:	fee79f23          	sh	a4,-2(a5)
   14134:	fed79ae3          	bne	a5,a3,14128 <eshift.part.3+0x3c>
   14138:	00041c23          	sh	zero,24(s0)
   1413c:	ff06061b          	addiw	a2,a2,-16
   14140:	fec5c2e3          	blt	a1,a2,14124 <eshift.part.3+0x38>
   14144:	00f97913          	andi	s2,s2,15
   14148:	00700793          	li	a5,7
   1414c:	0327d863          	bge	a5,s2,1417c <eshift.part.3+0x90>
   14150:	01840793          	addi	a5,s0,24
   14154:	00240593          	addi	a1,s0,2
   14158:	00000713          	li	a4,0
   1415c:	0007d683          	lhu	a3,0(a5)
   14160:	ffe78793          	addi	a5,a5,-2
   14164:	00869613          	slli	a2,a3,0x8
   14168:	00c76733          	or	a4,a4,a2
   1416c:	00e79123          	sh	a4,2(a5)
   14170:	0086d713          	srli	a4,a3,0x8
   14174:	feb794e3          	bne	a5,a1,1415c <eshift.part.3+0x70>
   14178:	ff89091b          	addiw	s2,s2,-8
   1417c:	00090a63          	beqz	s2,14190 <eshift.part.3+0xa4>
   14180:	fff9091b          	addiw	s2,s2,-1
   14184:	00040513          	mv	a0,s0
   14188:	b3dff0ef          	jal	ra,13cc4 <eshup1>
   1418c:	fe091ae3          	bnez	s2,14180 <eshift.part.3+0x94>
   14190:	01813083          	ld	ra,24(sp)
   14194:	01013403          	ld	s0,16(sp)
   14198:	00813483          	ld	s1,8(sp)
   1419c:	00013903          	ld	s2,0(sp)
   141a0:	00000513          	li	a0,0
   141a4:	02010113          	addi	sp,sp,32
   141a8:	00008067          	ret
   141ac:	ff100793          	li	a5,-15
   141b0:	40b004bb          	negw	s1,a1
   141b4:	0cf5d463          	bge	a1,a5,1427c <eshift.part.3+0x190>
   141b8:	01850593          	addi	a1,a0,24
   141bc:	00000913          	li	s2,0
   141c0:	00450693          	addi	a3,a0,4
   141c4:	00f00613          	li	a2,15
   141c8:	01845703          	lhu	a4,24(s0)
   141cc:	00058793          	mv	a5,a1
   141d0:	00e96933          	or	s2,s2,a4
   141d4:	ffe78793          	addi	a5,a5,-2
   141d8:	0007d703          	lhu	a4,0(a5)
   141dc:	00e79123          	sh	a4,2(a5)
   141e0:	fed79ae3          	bne	a5,a3,141d4 <eshift.part.3+0xe8>
   141e4:	00041223          	sh	zero,4(s0)
   141e8:	ff04849b          	addiw	s1,s1,-16
   141ec:	fc964ee3          	blt	a2,s1,141c8 <eshift.part.3+0xdc>
   141f0:	00700793          	li	a5,7
   141f4:	0497d663          	bge	a5,s1,14240 <eshift.part.3+0x154>
   141f8:	0109191b          	slliw	s2,s2,0x10
   141fc:	4109591b          	sraiw	s2,s2,0x10
   14200:	01844783          	lbu	a5,24(s0)
   14204:	01a40593          	addi	a1,s0,26
   14208:	00000713          	li	a4,0
   1420c:	00f96933          	or	s2,s2,a5
   14210:	03091913          	slli	s2,s2,0x30
   14214:	03095913          	srli	s2,s2,0x30
   14218:	0006d783          	lhu	a5,0(a3)
   1421c:	00268693          	addi	a3,a3,2
   14220:	0087d61b          	srliw	a2,a5,0x8
   14224:	00c76733          	or	a4,a4,a2
   14228:	0087979b          	slliw	a5,a5,0x8
   1422c:	fee69f23          	sh	a4,-2(a3)
   14230:	03079713          	slli	a4,a5,0x30
   14234:	03075713          	srli	a4,a4,0x30
   14238:	feb690e3          	bne	a3,a1,14218 <eshift.part.3+0x12c>
   1423c:	ff84849b          	addiw	s1,s1,-8
   14240:	02048063          	beqz	s1,14260 <eshift.part.3+0x174>
   14244:	01845783          	lhu	a5,24(s0)
   14248:	fff4849b          	addiw	s1,s1,-1
   1424c:	00040513          	mv	a0,s0
   14250:	0017f793          	andi	a5,a5,1
   14254:	0127e933          	or	s2,a5,s2
   14258:	a05ff0ef          	jal	ra,13c5c <eshdn1>
   1425c:	fe0494e3          	bnez	s1,14244 <eshift.part.3+0x158>
   14260:	01813083          	ld	ra,24(sp)
   14264:	01013403          	ld	s0,16(sp)
   14268:	01203533          	snez	a0,s2
   1426c:	00813483          	ld	s1,8(sp)
   14270:	00013903          	ld	s2,0(sp)
   14274:	02010113          	addi	sp,sp,32
   14278:	00008067          	ret
   1427c:	ff900793          	li	a5,-7
   14280:	00f5c663          	blt	a1,a5,1428c <eshift.part.3+0x1a0>
   14284:	00000913          	li	s2,0
   14288:	fbdff06f          	j	14244 <eshift.part.3+0x158>
   1428c:	00000913          	li	s2,0
   14290:	00440693          	addi	a3,s0,4
   14294:	f6dff06f          	j	14200 <eshift.part.3+0x114>

0000000000014298 <enormlz>:
   14298:	00455783          	lhu	a5,4(a0)
   1429c:	fe010113          	addi	sp,sp,-32
   142a0:	00913423          	sd	s1,8(sp)
   142a4:	00113c23          	sd	ra,24(sp)
   142a8:	00813823          	sd	s0,16(sp)
   142ac:	01213023          	sd	s2,0(sp)
   142b0:	00050493          	mv	s1,a0
   142b4:	0e079063          	bnez	a5,14394 <enormlz+0xfc>
   142b8:	00655703          	lhu	a4,6(a0)
   142bc:	00000413          	li	s0,0
   142c0:	0107179b          	slliw	a5,a4,0x10
   142c4:	4107d79b          	sraiw	a5,a5,0x10
   142c8:	02079693          	slli	a3,a5,0x20
   142cc:	0a06c663          	bltz	a3,14378 <enormlz+0xe0>
   142d0:	01a50693          	addi	a3,a0,26
   142d4:	0a000613          	li	a2,160
   142d8:	02071863          	bnez	a4,14308 <enormlz+0x70>
   142dc:	00648793          	addi	a5,s1,6
   142e0:	0080006f          	j	142e8 <enormlz+0x50>
   142e4:	0007d703          	lhu	a4,0(a5)
   142e8:	00278793          	addi	a5,a5,2
   142ec:	fee79e23          	sh	a4,-4(a5)
   142f0:	fef69ae3          	bne	a3,a5,142e4 <enormlz+0x4c>
   142f4:	00049c23          	sh	zero,24(s1)
   142f8:	0104041b          	addiw	s0,s0,16
   142fc:	06c40e63          	beq	s0,a2,14378 <enormlz+0xe0>
   14300:	0064d703          	lhu	a4,6(s1)
   14304:	fc070ce3          	beqz	a4,142dc <enormlz+0x44>
   14308:	f0077793          	andi	a5,a4,-256
   1430c:	04079063          	bnez	a5,1434c <enormlz+0xb4>
   14310:	01848513          	addi	a0,s1,24
   14314:	00248593          	addi	a1,s1,2
   14318:	00000713          	li	a4,0
   1431c:	00050793          	mv	a5,a0
   14320:	0007d683          	lhu	a3,0(a5)
   14324:	ffe78793          	addi	a5,a5,-2
   14328:	00869613          	slli	a2,a3,0x8
   1432c:	00c76733          	or	a4,a4,a2
   14330:	00e79123          	sh	a4,2(a5)
   14334:	0086d713          	srli	a4,a3,0x8
   14338:	fef594e3          	bne	a1,a5,14320 <enormlz+0x88>
   1433c:	0064d703          	lhu	a4,6(s1)
   14340:	0084041b          	addiw	s0,s0,8
   14344:	f0077793          	andi	a5,a4,-256
   14348:	fc0788e3          	beqz	a5,14318 <enormlz+0x80>
   1434c:	0a000913          	li	s2,160
   14350:	0140006f          	j	14364 <enormlz+0xcc>
   14354:	0014041b          	addiw	s0,s0,1
   14358:	96dff0ef          	jal	ra,13cc4 <eshup1>
   1435c:	00894e63          	blt	s2,s0,14378 <enormlz+0xe0>
   14360:	0064d703          	lhu	a4,6(s1)
   14364:	0107171b          	slliw	a4,a4,0x10
   14368:	4107571b          	sraiw	a4,a4,0x10
   1436c:	02071793          	slli	a5,a4,0x20
   14370:	00048513          	mv	a0,s1
   14374:	fe07d0e3          	bgez	a5,14354 <enormlz+0xbc>
   14378:	00040513          	mv	a0,s0
   1437c:	01813083          	ld	ra,24(sp)
   14380:	01013403          	ld	s0,16(sp)
   14384:	00813483          	ld	s1,8(sp)
   14388:	00013903          	ld	s2,0(sp)
   1438c:	02010113          	addi	sp,sp,32
   14390:	00008067          	ret
   14394:	f007f713          	andi	a4,a5,-256
   14398:	00000413          	li	s0,0
   1439c:	04071063          	bnez	a4,143dc <enormlz+0x144>
   143a0:	f6f00913          	li	s2,-145
   143a4:	0140006f          	j	143b8 <enormlz+0x120>
   143a8:	fff4041b          	addiw	s0,s0,-1
   143ac:	8b1ff0ef          	jal	ra,13c5c <eshdn1>
   143b0:	fd2404e3          	beq	s0,s2,14378 <enormlz+0xe0>
   143b4:	0044d783          	lhu	a5,4(s1)
   143b8:	00048513          	mv	a0,s1
   143bc:	fe0796e3          	bnez	a5,143a8 <enormlz+0x110>
   143c0:	00040513          	mv	a0,s0
   143c4:	01813083          	ld	ra,24(sp)
   143c8:	01013403          	ld	s0,16(sp)
   143cc:	00813483          	ld	s1,8(sp)
   143d0:	00013903          	ld	s2,0(sp)
   143d4:	02010113          	addi	sp,sp,32
   143d8:	00008067          	ret
   143dc:	00450693          	addi	a3,a0,4
   143e0:	01a50593          	addi	a1,a0,26
   143e4:	00000713          	li	a4,0
   143e8:	0080006f          	j	143f0 <enormlz+0x158>
   143ec:	0006d783          	lhu	a5,0(a3)
   143f0:	0087d61b          	srliw	a2,a5,0x8
   143f4:	00c76733          	or	a4,a4,a2
   143f8:	0087979b          	slliw	a5,a5,0x8
   143fc:	00e69023          	sh	a4,0(a3)
   14400:	03079713          	slli	a4,a5,0x30
   14404:	00268693          	addi	a3,a3,2
   14408:	03075713          	srli	a4,a4,0x30
   1440c:	feb690e3          	bne	a3,a1,143ec <enormlz+0x154>
   14410:	0044d783          	lhu	a5,4(s1)
   14414:	ff800413          	li	s0,-8
   14418:	f89ff06f          	j	143a0 <enormlz+0x108>

000000000001441c <emdnorm>:
   1441c:	fc010113          	addi	sp,sp,-64
   14420:	02813823          	sd	s0,48(sp)
   14424:	02913423          	sd	s1,40(sp)
   14428:	03213023          	sd	s2,32(sp)
   1442c:	01313c23          	sd	s3,24(sp)
   14430:	01413823          	sd	s4,16(sp)
   14434:	01513423          	sd	s5,8(sp)
   14438:	00068913          	mv	s2,a3
   1443c:	00078493          	mv	s1,a5
   14440:	02113c23          	sd	ra,56(sp)
   14444:	00050413          	mv	s0,a0
   14448:	00058993          	mv	s3,a1
   1444c:	00060a13          	mv	s4,a2
   14450:	00070a93          	mv	s5,a4
   14454:	e45ff0ef          	jal	ra,14298 <enormlz>
   14458:	09000793          	li	a5,144
   1445c:	40a90933          	sub	s2,s2,a0
   14460:	08a7d063          	bge	a5,a0,144e0 <emdnorm+0xc4>
   14464:	000087b7          	lui	a5,0x8
   14468:	ffe78793          	addi	a5,a5,-2 # 7ffe <register_fini-0x80b2>
   1446c:	2327dc63          	bge	a5,s2,146a4 <emdnorm+0x288>
   14470:	200a8663          	beqz	s5,1467c <emdnorm+0x260>
   14474:	0044a503          	lw	a0,4(s1)
   14478:	0004a783          	lw	a5,0(s1)
   1447c:	0ea78e63          	beq	a5,a0,14578 <emdnorm+0x15c>
   14480:	01a48713          	addi	a4,s1,26
   14484:	03448793          	addi	a5,s1,52
   14488:	00270713          	addi	a4,a4,2
   1448c:	fe071f23          	sh	zero,-2(a4)
   14490:	fef71ce3          	bne	a4,a5,14488 <emdnorm+0x6c>
   14494:	03800793          	li	a5,56
   14498:	38f50263          	beq	a0,a5,1481c <emdnorm+0x400>
   1449c:	06a7d463          	bge	a5,a0,14504 <emdnorm+0xe8>
   144a0:	04000793          	li	a5,64
   144a4:	30f50c63          	beq	a0,a5,147bc <emdnorm+0x3a0>
   144a8:	07100793          	li	a5,113
   144ac:	32f51e63          	bne	a0,a5,147e8 <emdnorm+0x3cc>
   144b0:	00a00793          	li	a5,10
   144b4:	40008737          	lui	a4,0x40008
   144b8:	fff70713          	addi	a4,a4,-1 # 40007fff <__BSS_END__+0x3ffe4df7>
   144bc:	02079793          	slli	a5,a5,0x20
   144c0:	00a78793          	addi	a5,a5,10
   144c4:	00e4aa23          	sw	a4,20(s1)
   144c8:	ffff8737          	lui	a4,0xffff8
   144cc:	00e49c23          	sh	a4,24(s1)
   144d0:	00f4b423          	sd	a5,8(s1)
   144d4:	00008737          	lui	a4,0x8
   144d8:	00a00793          	li	a5,10
   144dc:	0640006f          	j	14540 <emdnorm+0x124>
   144e0:	20095263          	bgez	s2,146e4 <emdnorm+0x2c8>
   144e4:	f7000793          	li	a5,-144
   144e8:	1cf95a63          	bge	s2,a5,146bc <emdnorm+0x2a0>
   144ec:	00240793          	addi	a5,s0,2
   144f0:	01a40413          	addi	s0,s0,26
   144f4:	00278793          	addi	a5,a5,2
   144f8:	fe079f23          	sh	zero,-2(a5)
   144fc:	fe879ce3          	bne	a5,s0,144f4 <emdnorm+0xd8>
   14500:	1580006f          	j	14658 <emdnorm+0x23c>
   14504:	01800793          	li	a5,24
   14508:	28f50463          	beq	a0,a5,14790 <emdnorm+0x374>
   1450c:	03500793          	li	a5,53
   14510:	2cf51c63          	bne	a0,a5,147e8 <emdnorm+0x3cc>
   14514:	040006b7          	lui	a3,0x4000
   14518:	00001737          	lui	a4,0x1
   1451c:	7ff68693          	addi	a3,a3,2047 # 40007ff <__BSS_END__+0x3fdd5f7>
   14520:	00600793          	li	a5,6
   14524:	80070713          	addi	a4,a4,-2048 # 800 <register_fini-0xf8b0>
   14528:	00d4aa23          	sw	a3,20(s1)
   1452c:	02079793          	slli	a5,a5,0x20
   14530:	00678793          	addi	a5,a5,6
   14534:	00f4b423          	sd	a5,8(s1)
   14538:	00e49c23          	sh	a4,24(s1)
   1453c:	00600793          	li	a5,6
   14540:	00878793          	addi	a5,a5,8
   14544:	00179793          	slli	a5,a5,0x1
   14548:	00f487b3          	add	a5,s1,a5
   1454c:	00e79523          	sh	a4,10(a5)
   14550:	00a4a023          	sw	a0,0(s1)
   14554:	03204263          	bgtz	s2,14578 <emdnorm+0x15c>
   14558:	09000793          	li	a5,144
   1455c:	20f50663          	beq	a0,a5,14768 <emdnorm+0x34c>
   14560:	01845783          	lhu	a5,24(s0)
   14564:	00040513          	mv	a0,s0
   14568:	0017f793          	andi	a5,a5,1
   1456c:	00f9e9b3          	or	s3,s3,a5
   14570:	eecff0ef          	jal	ra,13c5c <eshdn1>
   14574:	0044a503          	lw	a0,4(s1)
   14578:	0084a683          	lw	a3,8(s1)
   1457c:	0144d603          	lhu	a2,20(s1)
   14580:	08f00793          	li	a5,143
   14584:	00169713          	slli	a4,a3,0x1
   14588:	00e40833          	add	a6,s0,a4
   1458c:	00085883          	lhu	a7,0(a6) # ffffffffffff8000 <__BSS_END__+0xfffffffffffd4df8>
   14590:	00c8f5b3          	and	a1,a7,a2
   14594:	04a7c863          	blt	a5,a0,145e4 <emdnorm+0x1c8>
   14598:	00b00793          	li	a5,11
   1459c:	04d7c463          	blt	a5,a3,145e4 <emdnorm+0x1c8>
   145a0:	40d787bb          	subw	a5,a5,a3
   145a4:	02079793          	slli	a5,a5,0x20
   145a8:	0207d793          	srli	a5,a5,0x20
   145ac:	00d787b3          	add	a5,a5,a3
   145b0:	00179693          	slli	a3,a5,0x1
   145b4:	00270713          	addi	a4,a4,2
   145b8:	00440793          	addi	a5,s0,4
   145bc:	00e40733          	add	a4,s0,a4
   145c0:	00f687b3          	add	a5,a3,a5
   145c4:	00075683          	lhu	a3,0(a4)
   145c8:	00068463          	beqz	a3,145d0 <emdnorm+0x1b4>
   145cc:	0015e593          	ori	a1,a1,1
   145d0:	00071023          	sh	zero,0(a4)
   145d4:	00270713          	addi	a4,a4,2
   145d8:	fee796e3          	bne	a5,a4,145c4 <emdnorm+0x1a8>
   145dc:	00085883          	lhu	a7,0(a6)
   145e0:	0144d603          	lhu	a2,20(s1)
   145e4:	fff64613          	not	a2,a2
   145e8:	01167633          	and	a2,a2,a7
   145ec:	00c81023          	sh	a2,0(a6)
   145f0:	0164d783          	lhu	a5,22(s1)
   145f4:	00b7f733          	and	a4,a5,a1
   145f8:	04070063          	beqz	a4,14638 <emdnorm+0x21c>
   145fc:	12b78263          	beq	a5,a1,14720 <emdnorm+0x304>
   14600:	03248613          	addi	a2,s1,50
   14604:	01840713          	addi	a4,s0,24
   14608:	01c48493          	addi	s1,s1,28
   1460c:	00000693          	li	a3,0
   14610:	00065783          	lhu	a5,0(a2)
   14614:	00075583          	lhu	a1,0(a4)
   14618:	ffe70713          	addi	a4,a4,-2
   1461c:	ffe60613          	addi	a2,a2,-2
   14620:	00b787b3          	add	a5,a5,a1
   14624:	00d787b3          	add	a5,a5,a3
   14628:	00f71123          	sh	a5,2(a4)
   1462c:	0107d793          	srli	a5,a5,0x10
   14630:	0017f693          	andi	a3,a5,1
   14634:	fc961ee3          	bne	a2,s1,14610 <emdnorm+0x1f4>
   14638:	11205663          	blez	s2,14744 <emdnorm+0x328>
   1463c:	00445783          	lhu	a5,4(s0)
   14640:	0a079c63          	bnez	a5,146f8 <emdnorm+0x2dc>
   14644:	000087b7          	lui	a5,0x8
   14648:	00041c23          	sh	zero,24(s0)
   1464c:	ffe78793          	addi	a5,a5,-2 # 7ffe <register_fini-0x80b2>
   14650:	0327c863          	blt	a5,s2,14680 <emdnorm+0x264>
   14654:	01241123          	sh	s2,2(s0)
   14658:	03813083          	ld	ra,56(sp)
   1465c:	03013403          	ld	s0,48(sp)
   14660:	02813483          	ld	s1,40(sp)
   14664:	02013903          	ld	s2,32(sp)
   14668:	01813983          	ld	s3,24(sp)
   1466c:	01013a03          	ld	s4,16(sp)
   14670:	00813a83          	ld	s5,8(sp)
   14674:	04010113          	addi	sp,sp,64
   14678:	00008067          	ret
   1467c:	00041c23          	sh	zero,24(s0)
   14680:	ffff87b7          	lui	a5,0xffff8
   14684:	fff7c793          	not	a5,a5
   14688:	00f41123          	sh	a5,2(s0)
   1468c:	00440793          	addi	a5,s0,4
   14690:	01840413          	addi	s0,s0,24
   14694:	00079023          	sh	zero,0(a5) # ffffffffffff8000 <__BSS_END__+0xfffffffffffd4df8>
   14698:	00278793          	addi	a5,a5,2
   1469c:	fef41ce3          	bne	s0,a5,14694 <emdnorm+0x278>
   146a0:	fb9ff06f          	j	14658 <emdnorm+0x23c>
   146a4:	00240793          	addi	a5,s0,2
   146a8:	01a40413          	addi	s0,s0,26
   146ac:	00278793          	addi	a5,a5,2
   146b0:	fe079f23          	sh	zero,-2(a5)
   146b4:	fe879ce3          	bne	a5,s0,146ac <emdnorm+0x290>
   146b8:	fa1ff06f          	j	14658 <emdnorm+0x23c>
   146bc:	0009059b          	sext.w	a1,s2
   146c0:	00040513          	mv	a0,s0
   146c4:	a29ff0ef          	jal	ra,140ec <eshift.part.3>
   146c8:	00050463          	beqz	a0,146d0 <emdnorm+0x2b4>
   146cc:	00100993          	li	s3,1
   146d0:	0a0a8a63          	beqz	s5,14784 <emdnorm+0x368>
   146d4:	0044a503          	lw	a0,4(s1)
   146d8:	0004a783          	lw	a5,0(s1)
   146dc:	daa792e3          	bne	a5,a0,14480 <emdnorm+0x64>
   146e0:	e79ff06f          	j	14558 <emdnorm+0x13c>
   146e4:	f60a80e3          	beqz	s5,14644 <emdnorm+0x228>
   146e8:	0044a503          	lw	a0,4(s1)
   146ec:	0004a783          	lw	a5,0(s1)
   146f0:	d8a798e3          	bne	a5,a0,14480 <emdnorm+0x64>
   146f4:	e61ff06f          	j	14554 <emdnorm+0x138>
   146f8:	00040513          	mv	a0,s0
   146fc:	d60ff0ef          	jal	ra,13c5c <eshdn1>
   14700:	000087b7          	lui	a5,0x8
   14704:	00190913          	addi	s2,s2,1
   14708:	00041c23          	sh	zero,24(s0)
   1470c:	ffe78793          	addi	a5,a5,-2 # 7ffe <register_fini-0x80b2>
   14710:	f727c8e3          	blt	a5,s2,14680 <emdnorm+0x264>
   14714:	f40950e3          	bgez	s2,14654 <emdnorm+0x238>
   14718:	00041123          	sh	zero,2(s0)
   1471c:	f3dff06f          	j	14658 <emdnorm+0x23c>
   14720:	0e099a63          	bnez	s3,14814 <emdnorm+0x3f8>
   14724:	00c4a783          	lw	a5,12(s1)
   14728:	0184d703          	lhu	a4,24(s1)
   1472c:	00179793          	slli	a5,a5,0x1
   14730:	00f407b3          	add	a5,s0,a5
   14734:	0007d783          	lhu	a5,0(a5)
   14738:	00e7f7b3          	and	a5,a5,a4
   1473c:	ec0792e3          	bnez	a5,14600 <emdnorm+0x1e4>
   14740:	ef204ee3          	bgtz	s2,1463c <emdnorm+0x220>
   14744:	09000793          	li	a5,144
   14748:	00f50663          	beq	a0,a5,14754 <emdnorm+0x338>
   1474c:	00040513          	mv	a0,s0
   14750:	d74ff0ef          	jal	ra,13cc4 <eshup1>
   14754:	00445783          	lhu	a5,4(s0)
   14758:	fa0790e3          	bnez	a5,146f8 <emdnorm+0x2dc>
   1475c:	00041c23          	sh	zero,24(s0)
   14760:	fa094ce3          	bltz	s2,14718 <emdnorm+0x2fc>
   14764:	ef1ff06f          	j	14654 <emdnorm+0x238>
   14768:	0084a803          	lw	a6,8(s1)
   1476c:	0144d603          	lhu	a2,20(s1)
   14770:	00181813          	slli	a6,a6,0x1
   14774:	01040833          	add	a6,s0,a6
   14778:	00085883          	lhu	a7,0(a6)
   1477c:	011675b3          	and	a1,a2,a7
   14780:	e65ff06f          	j	145e4 <emdnorm+0x1c8>
   14784:	00041c23          	sh	zero,24(s0)
   14788:	00041123          	sh	zero,2(s0)
   1478c:	ecdff06f          	j	14658 <emdnorm+0x23c>
   14790:	00400793          	li	a5,4
   14794:	00800737          	lui	a4,0x800
   14798:	0ff70713          	addi	a4,a4,255 # 8000ff <__BSS_END__+0x7dcef7>
   1479c:	02079793          	slli	a5,a5,0x20
   147a0:	00478793          	addi	a5,a5,4
   147a4:	00e4aa23          	sw	a4,20(s1)
   147a8:	10000713          	li	a4,256
   147ac:	00f4b423          	sd	a5,8(s1)
   147b0:	00e49c23          	sh	a4,24(s1)
   147b4:	00400793          	li	a5,4
   147b8:	d89ff06f          	j	14540 <emdnorm+0x124>
   147bc:	00300793          	li	a5,3
   147c0:	80010737          	lui	a4,0x80010
   147c4:	fff70713          	addi	a4,a4,-1 # ffffffff8000ffff <__BSS_END__+0xffffffff7ffecdf7>
   147c8:	02179793          	slli	a5,a5,0x21
   147cc:	00778793          	addi	a5,a5,7
   147d0:	00e4aa23          	sw	a4,20(s1)
   147d4:	00100713          	li	a4,1
   147d8:	00f4b423          	sd	a5,8(s1)
   147dc:	00e49c23          	sh	a4,24(s1)
   147e0:	00600793          	li	a5,6
   147e4:	d5dff06f          	j	14540 <emdnorm+0x124>
   147e8:	00b00793          	li	a5,11
   147ec:	80010737          	lui	a4,0x80010
   147f0:	fff70713          	addi	a4,a4,-1 # ffffffff8000ffff <__BSS_END__+0xffffffff7ffecdf7>
   147f4:	02079793          	slli	a5,a5,0x20
   147f8:	00c78793          	addi	a5,a5,12
   147fc:	00e4aa23          	sw	a4,20(s1)
   14800:	00100713          	li	a4,1
   14804:	00f4b423          	sd	a5,8(s1)
   14808:	00e49c23          	sh	a4,24(s1)
   1480c:	00b00793          	li	a5,11
   14810:	d31ff06f          	j	14540 <emdnorm+0x124>
   14814:	de0a06e3          	beqz	s4,14600 <emdnorm+0x1e4>
   14818:	e21ff06f          	j	14638 <emdnorm+0x21c>
   1481c:	00800737          	lui	a4,0x800
   14820:	0ff70713          	addi	a4,a4,255 # 8000ff <__BSS_END__+0x7dcef7>
   14824:	00e4aa23          	sw	a4,20(s1)
   14828:	00600793          	li	a5,6
   1482c:	10000713          	li	a4,256
   14830:	cfdff06f          	j	1452c <emdnorm+0x110>

0000000000014834 <eiremain>:
   14834:	fa010113          	addi	sp,sp,-96
   14838:	03313c23          	sd	s3,56(sp)
   1483c:	00255983          	lhu	s3,2(a0)
   14840:	04913423          	sd	s1,72(sp)
   14844:	00058493          	mv	s1,a1
   14848:	04113c23          	sd	ra,88(sp)
   1484c:	04813823          	sd	s0,80(sp)
   14850:	05213023          	sd	s2,64(sp)
   14854:	03413823          	sd	s4,48(sp)
   14858:	00060913          	mv	s2,a2
   1485c:	03513423          	sd	s5,40(sp)
   14860:	03613023          	sd	s6,32(sp)
   14864:	01713c23          	sd	s7,24(sp)
   14868:	01813823          	sd	s8,16(sp)
   1486c:	01913423          	sd	s9,8(sp)
   14870:	01a13023          	sd	s10,0(sp)
   14874:	00050a13          	mv	s4,a0
   14878:	a21ff0ef          	jal	ra,14298 <enormlz>
   1487c:	0024d403          	lhu	s0,2(s1)
   14880:	40a989b3          	sub	s3,s3,a0
   14884:	00048513          	mv	a0,s1
   14888:	a11ff0ef          	jal	ra,14298 <enormlz>
   1488c:	03490a93          	addi	s5,s2,52
   14890:	40a40433          	sub	s0,s0,a0
   14894:	04e90713          	addi	a4,s2,78
   14898:	000a8793          	mv	a5,s5
   1489c:	00278793          	addi	a5,a5,2
   148a0:	fe079f23          	sh	zero,-2(a5)
   148a4:	fee79ce3          	bne	a5,a4,1489c <eiremain+0x68>
   148a8:	09344a63          	blt	s0,s3,1493c <eiremain+0x108>
   148ac:	004a0b93          	addi	s7,s4,4
   148b0:	00448b13          	addi	s6,s1,4
   148b4:	fff98993          	addi	s3,s3,-1
   148b8:	01aa0c93          	addi	s9,s4,26
   148bc:	00248c13          	addi	s8,s1,2
   148c0:	000b0713          	mv	a4,s6
   148c4:	000b8793          	mv	a5,s7
   148c8:	00278793          	addi	a5,a5,2
   148cc:	00270713          	addi	a4,a4,2
   148d0:	ffe7d603          	lhu	a2,-2(a5)
   148d4:	ffe75683          	lhu	a3,-2(a4)
   148d8:	0ad61a63          	bne	a2,a3,1498c <eiremain+0x158>
   148dc:	fefc96e3          	bne	s9,a5,148c8 <eiremain+0x94>
   148e0:	018a0693          	addi	a3,s4,24
   148e4:	01848713          	addi	a4,s1,24
   148e8:	00000613          	li	a2,0
   148ec:	00075783          	lhu	a5,0(a4)
   148f0:	0006d583          	lhu	a1,0(a3)
   148f4:	ffe70713          	addi	a4,a4,-2
   148f8:	40c787b3          	sub	a5,a5,a2
   148fc:	40b787b3          	sub	a5,a5,a1
   14900:	00f71123          	sh	a5,2(a4)
   14904:	0107d793          	srli	a5,a5,0x10
   14908:	ffe68693          	addi	a3,a3,-2
   1490c:	0017f613          	andi	a2,a5,1
   14910:	fcec1ee3          	bne	s8,a4,148ec <eiremain+0xb8>
   14914:	00100d13          	li	s10,1
   14918:	000a8513          	mv	a0,s5
   1491c:	ba8ff0ef          	jal	ra,13cc4 <eshup1>
   14920:	04c95783          	lhu	a5,76(s2)
   14924:	fff40413          	addi	s0,s0,-1
   14928:	00048513          	mv	a0,s1
   1492c:	00fd6d33          	or	s10,s10,a5
   14930:	05a91623          	sh	s10,76(s2)
   14934:	b90ff0ef          	jal	ra,13cc4 <eshup1>
   14938:	f93414e3          	bne	s0,s3,148c0 <eiremain+0x8c>
   1493c:	00040693          	mv	a3,s0
   14940:	05013403          	ld	s0,80(sp)
   14944:	05813083          	ld	ra,88(sp)
   14948:	03813983          	ld	s3,56(sp)
   1494c:	03013a03          	ld	s4,48(sp)
   14950:	02813a83          	ld	s5,40(sp)
   14954:	02013b03          	ld	s6,32(sp)
   14958:	01813b83          	ld	s7,24(sp)
   1495c:	01013c03          	ld	s8,16(sp)
   14960:	00813c83          	ld	s9,8(sp)
   14964:	00013d03          	ld	s10,0(sp)
   14968:	00090793          	mv	a5,s2
   1496c:	00048513          	mv	a0,s1
   14970:	04013903          	ld	s2,64(sp)
   14974:	04813483          	ld	s1,72(sp)
   14978:	00000713          	li	a4,0
   1497c:	00000613          	li	a2,0
   14980:	00000593          	li	a1,0
   14984:	06010113          	addi	sp,sp,96
   14988:	a95ff06f          	j	1441c <emdnorm>
   1498c:	00000d13          	li	s10,0
   14990:	f8c6e4e3          	bltu	a3,a2,14918 <eiremain+0xe4>
   14994:	f4dff06f          	j	148e0 <eiremain+0xac>

0000000000014998 <emovo.isra.6>:
   14998:	00055703          	lhu	a4,0(a0)
   1499c:	00255783          	lhu	a5,2(a0)
   149a0:	00070663          	beqz	a4,149ac <emovo.isra.6+0x14>
   149a4:	00008737          	lui	a4,0x8
   149a8:	00e7e7b3          	or	a5,a5,a4
   149ac:	00f59923          	sh	a5,18(a1)
   149b0:	00255703          	lhu	a4,2(a0)
   149b4:	000087b7          	lui	a5,0x8
   149b8:	fff78793          	addi	a5,a5,-1 # 7fff <register_fini-0x80b1>
   149bc:	02f70463          	beq	a4,a5,149e4 <emovo.isra.6+0x4c>
   149c0:	00650793          	addi	a5,a0,6
   149c4:	01058593          	addi	a1,a1,16
   149c8:	01850513          	addi	a0,a0,24
   149cc:	00278793          	addi	a5,a5,2
   149d0:	ffe7d703          	lhu	a4,-2(a5)
   149d4:	ffe58593          	addi	a1,a1,-2
   149d8:	00e59123          	sh	a4,2(a1)
   149dc:	fea798e3          	bne	a5,a0,149cc <emovo.isra.6+0x34>
   149e0:	00008067          	ret
   149e4:	00650793          	addi	a5,a0,6
   149e8:	01a50513          	addi	a0,a0,26
   149ec:	0007d703          	lhu	a4,0(a5)
   149f0:	00278793          	addi	a5,a5,2
   149f4:	02071a63          	bnez	a4,14a28 <emovo.isra.6+0x90>
   149f8:	fea79ae3          	bne	a5,a0,149ec <emovo.isra.6+0x54>
   149fc:	01258713          	addi	a4,a1,18
   14a00:	00058793          	mv	a5,a1
   14a04:	00278793          	addi	a5,a5,2
   14a08:	fe079f23          	sh	zero,-2(a5)
   14a0c:	fef71ce3          	bne	a4,a5,14a04 <emovo.isra.6+0x6c>
   14a10:	0125d783          	lhu	a5,18(a1)
   14a14:	00008737          	lui	a4,0x8
   14a18:	fff70713          	addi	a4,a4,-1 # 7fff <register_fini-0x80b1>
   14a1c:	00e7e7b3          	or	a5,a5,a4
   14a20:	00f59923          	sh	a5,18(a1)
   14a24:	00008067          	ret
   14a28:	01058713          	addi	a4,a1,16
   14a2c:	00058793          	mv	a5,a1
   14a30:	00278793          	addi	a5,a5,2
   14a34:	fe079f23          	sh	zero,-2(a5)
   14a38:	fef71ce3          	bne	a4,a5,14a30 <emovo.isra.6+0x98>
   14a3c:	7fffc7b7          	lui	a5,0x7fffc
   14a40:	00f5a823          	sw	a5,16(a1)
   14a44:	00008067          	ret

0000000000014a48 <emul>:
   14a48:	f4010113          	addi	sp,sp,-192
   14a4c:	09513423          	sd	s5,136(sp)
   14a50:	01255a83          	lhu	s5,18(a0)
   14a54:	000087b7          	lui	a5,0x8
   14a58:	fff78793          	addi	a5,a5,-1 # 7fff <register_fini-0x80b1>
   14a5c:	0a813823          	sd	s0,176(sp)
   14a60:	0a913423          	sd	s1,168(sp)
   14a64:	0b213023          	sd	s2,160(sp)
   14a68:	09313c23          	sd	s3,152(sp)
   14a6c:	09613023          	sd	s6,128(sp)
   14a70:	0a113c23          	sd	ra,184(sp)
   14a74:	09413823          	sd	s4,144(sp)
   14a78:	07713c23          	sd	s7,120(sp)
   14a7c:	07813823          	sd	s8,112(sp)
   14a80:	07913423          	sd	s9,104(sp)
   14a84:	0157fb33          	and	s6,a5,s5
   14a88:	00050493          	mv	s1,a0
   14a8c:	00058913          	mv	s2,a1
   14a90:	00060413          	mv	s0,a2
   14a94:	00068993          	mv	s3,a3
   14a98:	0afb1863          	bne	s6,a5,14b48 <emul+0x100>
   14a9c:	b7cff0ef          	jal	ra,13e18 <eisnan.part.0>
   14aa0:	20051c63          	bnez	a0,14cb8 <emul+0x270>
   14aa4:	01295a03          	lhu	s4,18(s2)
   14aa8:	014b77b3          	and	a5,s6,s4
   14aac:	23679463          	bne	a5,s6,14cd4 <emul+0x28c>
   14ab0:	00090513          	mv	a0,s2
   14ab4:	b64ff0ef          	jal	ra,13e18 <eisnan.part.0>
   14ab8:	0a051463          	bnez	a0,14b60 <emul+0x118>
   14abc:	00048513          	mv	a0,s1
   14ac0:	e10ff0ef          	jal	ra,140d0 <eisinf.part.1>
   14ac4:	20051e63          	bnez	a0,14ce0 <emul+0x298>
   14ac8:	000087b7          	lui	a5,0x8
   14acc:	fff78793          	addi	a5,a5,-1 # 7fff <register_fini-0x80b1>
   14ad0:	0147fa33          	and	s4,a5,s4
   14ad4:	030a1a13          	slli	s4,s4,0x30
   14ad8:	030a5a13          	srli	s4,s4,0x30
   14adc:	2cfa1663          	bne	s4,a5,14da8 <emul+0x360>
   14ae0:	00090513          	mv	a0,s2
   14ae4:	decff0ef          	jal	ra,140d0 <eisinf.part.1>
   14ae8:	32051263          	bnez	a0,14e0c <emul+0x3c4>
   14aec:	0124d783          	lhu	a5,18(s1)
   14af0:	00fa77b3          	and	a5,s4,a5
   14af4:	21478463          	beq	a5,s4,14cfc <emul+0x2b4>
   14af8:	00048513          	mv	a0,s1
   14afc:	00010593          	mv	a1,sp
   14b00:	bc8ff0ef          	jal	ra,13ec8 <emovi>
   14b04:	00090513          	mv	a0,s2
   14b08:	02010593          	addi	a1,sp,32
   14b0c:	bbcff0ef          	jal	ra,13ec8 <emovi>
   14b10:	00215483          	lhu	s1,2(sp)
   14b14:	02215903          	lhu	s2,34(sp)
   14b18:	08049a63          	bnez	s1,14bac <emul+0x164>
   14b1c:	00410793          	addi	a5,sp,4
   14b20:	01810693          	addi	a3,sp,24
   14b24:	2cd78063          	beq	a5,a3,14de4 <emul+0x39c>
   14b28:	00278793          	addi	a5,a5,2
   14b2c:	ffe7d703          	lhu	a4,-2(a5)
   14b30:	fe070ae3          	beqz	a4,14b24 <emul+0xdc>
   14b34:	00010513          	mv	a0,sp
   14b38:	f60ff0ef          	jal	ra,14298 <enormlz>
   14b3c:	40a004b3          	neg	s1,a0
   14b40:	02215703          	lhu	a4,34(sp)
   14b44:	06c0006f          	j	14bb0 <emul+0x168>
   14b48:	0125da03          	lhu	s4,18(a1)
   14b4c:	0147f733          	and	a4,a5,s4
   14b50:	faf714e3          	bne	a4,a5,14af8 <emul+0xb0>
   14b54:	00058513          	mv	a0,a1
   14b58:	ac0ff0ef          	jal	ra,13e18 <eisnan.part.0>
   14b5c:	f60506e3          	beqz	a0,14ac8 <emul+0x80>
   14b60:	01490713          	addi	a4,s2,20
   14b64:	00290913          	addi	s2,s2,2
   14b68:	ffe95783          	lhu	a5,-2(s2)
   14b6c:	00240413          	addi	s0,s0,2
   14b70:	fef41f23          	sh	a5,-2(s0)
   14b74:	fee918e3          	bne	s2,a4,14b64 <emul+0x11c>
   14b78:	0b813083          	ld	ra,184(sp)
   14b7c:	0b013403          	ld	s0,176(sp)
   14b80:	0a813483          	ld	s1,168(sp)
   14b84:	0a013903          	ld	s2,160(sp)
   14b88:	09813983          	ld	s3,152(sp)
   14b8c:	09013a03          	ld	s4,144(sp)
   14b90:	08813a83          	ld	s5,136(sp)
   14b94:	08013b03          	ld	s6,128(sp)
   14b98:	07813b83          	ld	s7,120(sp)
   14b9c:	07013c03          	ld	s8,112(sp)
   14ba0:	06813c83          	ld	s9,104(sp)
   14ba4:	0c010113          	addi	sp,sp,192
   14ba8:	00008067          	ret
   14bac:	00090713          	mv	a4,s2
   14bb0:	00090b13          	mv	s6,s2
   14bb4:	02410793          	addi	a5,sp,36
   14bb8:	03810693          	addi	a3,sp,56
   14bbc:	02071263          	bnez	a4,14be0 <emul+0x198>
   14bc0:	22f68c63          	beq	a3,a5,14df8 <emul+0x3b0>
   14bc4:	00278793          	addi	a5,a5,2
   14bc8:	ffe7d703          	lhu	a4,-2(a5)
   14bcc:	fe070ae3          	beqz	a4,14bc0 <emul+0x178>
   14bd0:	02010513          	addi	a0,sp,32
   14bd4:	ec4ff0ef          	jal	ra,14298 <enormlz>
   14bd8:	02215703          	lhu	a4,34(sp)
   14bdc:	40a90b33          	sub	s6,s2,a0
   14be0:	02015783          	lhu	a5,32(sp)
   14be4:	03898a93          	addi	s5,s3,56
   14be8:	02e99b23          	sh	a4,54(s3)
   14bec:	02f99a23          	sh	a5,52(s3)
   14bf0:	04e98713          	addi	a4,s3,78
   14bf4:	000a8793          	mv	a5,s5
   14bf8:	00079023          	sh	zero,0(a5)
   14bfc:	00278793          	addi	a5,a5,2
   14c00:	fef71ce3          	bne	a4,a5,14bf8 <emul+0x1b0>
   14c04:	04c98b93          	addi	s7,s3,76
   14c08:	00000a13          	li	s4,0
   14c0c:	01810913          	addi	s2,sp,24
   14c10:	00410c93          	addi	s9,sp,4
   14c14:	04210c13          	addi	s8,sp,66
   14c18:	00095503          	lhu	a0,0(s2)
   14c1c:	ffe90913          	addi	s2,s2,-2
   14c20:	14051263          	bnez	a0,14d64 <emul+0x31c>
   14c24:	04c9d703          	lhu	a4,76(s3)
   14c28:	000b8793          	mv	a5,s7
   14c2c:	00ea6a33          	or	s4,s4,a4
   14c30:	ffe78793          	addi	a5,a5,-2
   14c34:	0007d703          	lhu	a4,0(a5)
   14c38:	00e79123          	sh	a4,2(a5)
   14c3c:	ff579ae3          	bne	a5,s5,14c30 <emul+0x1e8>
   14c40:	02099c23          	sh	zero,56(s3)
   14c44:	fd991ae3          	bne	s2,s9,14c18 <emul+0x1d0>
   14c48:	03498713          	addi	a4,s3,52
   14c4c:	02010793          	addi	a5,sp,32
   14c50:	03a10693          	addi	a3,sp,58
   14c54:	00075603          	lhu	a2,0(a4)
   14c58:	00278793          	addi	a5,a5,2
   14c5c:	00270713          	addi	a4,a4,2
   14c60:	fec79f23          	sh	a2,-2(a5)
   14c64:	fef698e3          	bne	a3,a5,14c54 <emul+0x20c>
   14c68:	ffffc6b7          	lui	a3,0xffffc
   14c6c:	016484b3          	add	s1,s1,s6
   14c70:	00268693          	addi	a3,a3,2 # ffffffffffffc002 <__BSS_END__+0xfffffffffffd8dfa>
   14c74:	000a0593          	mv	a1,s4
   14c78:	02010513          	addi	a0,sp,32
   14c7c:	00098793          	mv	a5,s3
   14c80:	04000713          	li	a4,64
   14c84:	00d486b3          	add	a3,s1,a3
   14c88:	00000613          	li	a2,0
   14c8c:	f90ff0ef          	jal	ra,1441c <emdnorm>
   14c90:	02015703          	lhu	a4,32(sp)
   14c94:	00015783          	lhu	a5,0(sp)
   14c98:	00040593          	mv	a1,s0
   14c9c:	02010513          	addi	a0,sp,32
   14ca0:	40e787b3          	sub	a5,a5,a4
   14ca4:	00f037b3          	snez	a5,a5
   14ca8:	40f007bb          	negw	a5,a5
   14cac:	02f11023          	sh	a5,32(sp)
   14cb0:	ce9ff0ef          	jal	ra,14998 <emovo.isra.6>
   14cb4:	ec5ff06f          	j	14b78 <emul+0x130>
   14cb8:	01448713          	addi	a4,s1,20
   14cbc:	00248493          	addi	s1,s1,2
   14cc0:	ffe4d783          	lhu	a5,-2(s1)
   14cc4:	00240413          	addi	s0,s0,2
   14cc8:	fef41f23          	sh	a5,-2(s0)
   14ccc:	fee498e3          	bne	s1,a4,14cbc <emul+0x274>
   14cd0:	ea9ff06f          	j	14b78 <emul+0x130>
   14cd4:	00048513          	mv	a0,s1
   14cd8:	bf8ff0ef          	jal	ra,140d0 <eisinf.part.1>
   14cdc:	0c050863          	beqz	a0,14dac <emul+0x364>
   14ce0:	0000c597          	auipc	a1,0xc
   14ce4:	70058593          	addi	a1,a1,1792 # 213e0 <ezero>
   14ce8:	00090513          	mv	a0,s2
   14cec:	ac8ff0ef          	jal	ra,13fb4 <ecmp>
   14cf0:	14050063          	beqz	a0,14e30 <emul+0x3e8>
   14cf4:	01295a03          	lhu	s4,18(s2)
   14cf8:	dd1ff06f          	j	14ac8 <emul+0x80>
   14cfc:	00048513          	mv	a0,s1
   14d00:	bd0ff0ef          	jal	ra,140d0 <eisinf.part.1>
   14d04:	00051863          	bnez	a0,14d14 <emul+0x2cc>
   14d08:	00090513          	mv	a0,s2
   14d0c:	bc4ff0ef          	jal	ra,140d0 <eisinf.part.1>
   14d10:	de0504e3          	beqz	a0,14af8 <emul+0xb0>
   14d14:	00048513          	mv	a0,s1
   14d18:	970ff0ef          	jal	ra,13e88 <eisneg>
   14d1c:	00050493          	mv	s1,a0
   14d20:	00090513          	mv	a0,s2
   14d24:	964ff0ef          	jal	ra,13e88 <eisneg>
   14d28:	40a48533          	sub	a0,s1,a0
   14d2c:	00a03533          	snez	a0,a0
   14d30:	00f51513          	slli	a0,a0,0xf
   14d34:	00a41923          	sh	a0,18(s0)
   14d38:	01240713          	addi	a4,s0,18
   14d3c:	00040793          	mv	a5,s0
   14d40:	00278793          	addi	a5,a5,2
   14d44:	fe079f23          	sh	zero,-2(a5)
   14d48:	fee79ce3          	bne	a5,a4,14d40 <emul+0x2f8>
   14d4c:	01245783          	lhu	a5,18(s0)
   14d50:	00008737          	lui	a4,0x8
   14d54:	fff70713          	addi	a4,a4,-1 # 7fff <register_fini-0x80b1>
   14d58:	00e7e7b3          	or	a5,a5,a4
   14d5c:	00f41923          	sh	a5,18(s0)
   14d60:	e19ff06f          	j	14b78 <emul+0x130>
   14d64:	04010613          	addi	a2,sp,64
   14d68:	02010593          	addi	a1,sp,32
   14d6c:	fcdfe0ef          	jal	ra,13d38 <m16m>
   14d70:	000b8613          	mv	a2,s7
   14d74:	00000593          	li	a1,0
   14d78:	05810713          	addi	a4,sp,88
   14d7c:	00065503          	lhu	a0,0(a2)
   14d80:	00075783          	lhu	a5,0(a4)
   14d84:	ffe60613          	addi	a2,a2,-2
   14d88:	ffe70713          	addi	a4,a4,-2
   14d8c:	00a787b3          	add	a5,a5,a0
   14d90:	00b787b3          	add	a5,a5,a1
   14d94:	00f61123          	sh	a5,2(a2)
   14d98:	0107d793          	srli	a5,a5,0x10
   14d9c:	0017f593          	andi	a1,a5,1
   14da0:	fd871ee3          	bne	a4,s8,14d7c <emul+0x334>
   14da4:	e81ff06f          	j	14c24 <emul+0x1dc>
   14da8:	0124da83          	lhu	s5,18(s1)
   14dac:	000087b7          	lui	a5,0x8
   14db0:	fff78793          	addi	a5,a5,-1 # 7fff <register_fini-0x80b1>
   14db4:	0157fab3          	and	s5,a5,s5
   14db8:	030a9a93          	slli	s5,s5,0x30
   14dbc:	030ada93          	srli	s5,s5,0x30
   14dc0:	d2fa9ce3          	bne	s5,a5,14af8 <emul+0xb0>
   14dc4:	00048513          	mv	a0,s1
   14dc8:	b08ff0ef          	jal	ra,140d0 <eisinf.part.1>
   14dcc:	f40514e3          	bnez	a0,14d14 <emul+0x2cc>
   14dd0:	01295783          	lhu	a5,18(s2)
   14dd4:	fff7c793          	not	a5,a5
   14dd8:	03179713          	slli	a4,a5,0x31
   14ddc:	d0071ee3          	bnez	a4,14af8 <emul+0xb0>
   14de0:	f29ff06f          	j	14d08 <emul+0x2c0>
   14de4:	01440793          	addi	a5,s0,20
   14de8:	00240413          	addi	s0,s0,2
   14dec:	fe041f23          	sh	zero,-2(s0)
   14df0:	fe879ce3          	bne	a5,s0,14de8 <emul+0x3a0>
   14df4:	d85ff06f          	j	14b78 <emul+0x130>
   14df8:	01440793          	addi	a5,s0,20
   14dfc:	00240413          	addi	s0,s0,2
   14e00:	fe041f23          	sh	zero,-2(s0)
   14e04:	fef41ce3          	bne	s0,a5,14dfc <emul+0x3b4>
   14e08:	d71ff06f          	j	14b78 <emul+0x130>
   14e0c:	0000c597          	auipc	a1,0xc
   14e10:	5d458593          	addi	a1,a1,1492 # 213e0 <ezero>
   14e14:	00048513          	mv	a0,s1
   14e18:	99cff0ef          	jal	ra,13fb4 <ecmp>
   14e1c:	00050a63          	beqz	a0,14e30 <emul+0x3e8>
   14e20:	0124d783          	lhu	a5,18(s1)
   14e24:	00fa77b3          	and	a5,s4,a5
   14e28:	f9478ee3          	beq	a5,s4,14dc4 <emul+0x37c>
   14e2c:	fa5ff06f          	j	14dd0 <emul+0x388>
   14e30:	01040713          	addi	a4,s0,16
   14e34:	00040793          	mv	a5,s0
   14e38:	00278793          	addi	a5,a5,2
   14e3c:	fe079f23          	sh	zero,-2(a5)
   14e40:	fee79ce3          	bne	a5,a4,14e38 <emul+0x3f0>
   14e44:	7fffc7b7          	lui	a5,0x7fffc
   14e48:	00f42823          	sw	a5,16(s0)
   14e4c:	d2dff06f          	j	14b78 <emul+0x130>

0000000000014e50 <ediv>:
   14e50:	01255783          	lhu	a5,18(a0)
   14e54:	f2010113          	addi	sp,sp,-224
   14e58:	0c813823          	sd	s0,208(sp)
   14e5c:	fff7c793          	not	a5,a5
   14e60:	0c913423          	sd	s1,200(sp)
   14e64:	0d213023          	sd	s2,192(sp)
   14e68:	09813823          	sd	s8,144(sp)
   14e6c:	0c113c23          	sd	ra,216(sp)
   14e70:	0b313c23          	sd	s3,184(sp)
   14e74:	0b413823          	sd	s4,176(sp)
   14e78:	0b513423          	sd	s5,168(sp)
   14e7c:	0b613023          	sd	s6,160(sp)
   14e80:	09713c23          	sd	s7,152(sp)
   14e84:	09913423          	sd	s9,136(sp)
   14e88:	09a13023          	sd	s10,128(sp)
   14e8c:	07b13c23          	sd	s11,120(sp)
   14e90:	03179713          	slli	a4,a5,0x31
   14e94:	00050493          	mv	s1,a0
   14e98:	00058913          	mv	s2,a1
   14e9c:	00060413          	mv	s0,a2
   14ea0:	00068c13          	mv	s8,a3
   14ea4:	00071663          	bnez	a4,14eb0 <ediv+0x60>
   14ea8:	f71fe0ef          	jal	ra,13e18 <eisnan.part.0>
   14eac:	38051463          	bnez	a0,15234 <ediv+0x3e4>
   14eb0:	01295783          	lhu	a5,18(s2)
   14eb4:	fff7c793          	not	a5,a5
   14eb8:	03179713          	slli	a4,a5,0x31
   14ebc:	08070e63          	beqz	a4,14f58 <ediv+0x108>
   14ec0:	0000c597          	auipc	a1,0xc
   14ec4:	52058593          	addi	a1,a1,1312 # 213e0 <ezero>
   14ec8:	00048513          	mv	a0,s1
   14ecc:	8e8ff0ef          	jal	ra,13fb4 <ecmp>
   14ed0:	10050463          	beqz	a0,14fd8 <ediv+0x188>
   14ed4:	0124d983          	lhu	s3,18(s1)
   14ed8:	01295703          	lhu	a4,18(s2)
   14edc:	000087b7          	lui	a5,0x8
   14ee0:	fff78793          	addi	a5,a5,-1 # 7fff <register_fini-0x80b1>
   14ee4:	0137f9b3          	and	s3,a5,s3
   14ee8:	00e7fa33          	and	s4,a5,a4
   14eec:	08f99a63          	bne	s3,a5,14f80 <ediv+0x130>
   14ef0:	00048513          	mv	a0,s1
   14ef4:	9dcff0ef          	jal	ra,140d0 <eisinf.part.1>
   14ef8:	10050a63          	beqz	a0,1500c <ediv+0x1bc>
   14efc:	013a1863          	bne	s4,s3,14f0c <ediv+0xbc>
   14f00:	00090513          	mv	a0,s2
   14f04:	9ccff0ef          	jal	ra,140d0 <eisinf.part.1>
   14f08:	0e051263          	bnez	a0,14fec <ediv+0x19c>
   14f0c:	01440793          	addi	a5,s0,20
   14f10:	00240413          	addi	s0,s0,2
   14f14:	fe041f23          	sh	zero,-2(s0)
   14f18:	fef41ce3          	bne	s0,a5,14f10 <ediv+0xc0>
   14f1c:	0d813083          	ld	ra,216(sp)
   14f20:	0d013403          	ld	s0,208(sp)
   14f24:	0c813483          	ld	s1,200(sp)
   14f28:	0c013903          	ld	s2,192(sp)
   14f2c:	0b813983          	ld	s3,184(sp)
   14f30:	0b013a03          	ld	s4,176(sp)
   14f34:	0a813a83          	ld	s5,168(sp)
   14f38:	0a013b03          	ld	s6,160(sp)
   14f3c:	09813b83          	ld	s7,152(sp)
   14f40:	09013c03          	ld	s8,144(sp)
   14f44:	08813c83          	ld	s9,136(sp)
   14f48:	08013d03          	ld	s10,128(sp)
   14f4c:	07813d83          	ld	s11,120(sp)
   14f50:	0e010113          	addi	sp,sp,224
   14f54:	00008067          	ret
   14f58:	00090513          	mv	a0,s2
   14f5c:	ebdfe0ef          	jal	ra,13e18 <eisnan.part.0>
   14f60:	f60500e3          	beqz	a0,14ec0 <ediv+0x70>
   14f64:	01490713          	addi	a4,s2,20
   14f68:	00290913          	addi	s2,s2,2
   14f6c:	ffe95783          	lhu	a5,-2(s2)
   14f70:	00240413          	addi	s0,s0,2
   14f74:	fef41f23          	sh	a5,-2(s0)
   14f78:	fee918e3          	bne	s2,a4,14f68 <ediv+0x118>
   14f7c:	fa1ff06f          	j	14f1c <ediv+0xcc>
   14f80:	08fa0863          	beq	s4,a5,15010 <ediv+0x1c0>
   14f84:	01010593          	addi	a1,sp,16
   14f88:	00048513          	mv	a0,s1
   14f8c:	f3dfe0ef          	jal	ra,13ec8 <emovi>
   14f90:	00090513          	mv	a0,s2
   14f94:	03010593          	addi	a1,sp,48
   14f98:	f31fe0ef          	jal	ra,13ec8 <emovi>
   14f9c:	03215c83          	lhu	s9,50(sp)
   14fa0:	01215903          	lhu	s2,18(sp)
   14fa4:	0c0c9463          	bnez	s9,1506c <ediv+0x21c>
   14fa8:	03410793          	addi	a5,sp,52
   14fac:	04810493          	addi	s1,sp,72
   14fb0:	34f48a63          	beq	s1,a5,15304 <ediv+0x4b4>
   14fb4:	00278793          	addi	a5,a5,2
   14fb8:	ffe7d703          	lhu	a4,-2(a5)
   14fbc:	fe070ae3          	beqz	a4,14fb0 <ediv+0x160>
   14fc0:	03010513          	addi	a0,sp,48
   14fc4:	ad4ff0ef          	jal	ra,14298 <enormlz>
   14fc8:	40a007b3          	neg	a5,a0
   14fcc:	00f13423          	sd	a5,8(sp)
   14fd0:	01215603          	lhu	a2,18(sp)
   14fd4:	0a00006f          	j	15074 <ediv+0x224>
   14fd8:	0000c597          	auipc	a1,0xc
   14fdc:	40858593          	addi	a1,a1,1032 # 213e0 <ezero>
   14fe0:	00090513          	mv	a0,s2
   14fe4:	fd1fe0ef          	jal	ra,13fb4 <ecmp>
   14fe8:	ee0516e3          	bnez	a0,14ed4 <ediv+0x84>
   14fec:	01040713          	addi	a4,s0,16
   14ff0:	00040793          	mv	a5,s0
   14ff4:	00278793          	addi	a5,a5,2
   14ff8:	fe079f23          	sh	zero,-2(a5)
   14ffc:	fee79ce3          	bne	a5,a4,14ff4 <ediv+0x1a4>
   15000:	7fffc7b7          	lui	a5,0x7fffc
   15004:	00f42823          	sw	a5,16(s0)
   15008:	f15ff06f          	j	14f1c <ediv+0xcc>
   1500c:	f73a1ce3          	bne	s4,s3,14f84 <ediv+0x134>
   15010:	00090513          	mv	a0,s2
   15014:	8bcff0ef          	jal	ra,140d0 <eisinf.part.1>
   15018:	f60506e3          	beqz	a0,14f84 <ediv+0x134>
   1501c:	00048513          	mv	a0,s1
   15020:	e69fe0ef          	jal	ra,13e88 <eisneg>
   15024:	00050493          	mv	s1,a0
   15028:	00090513          	mv	a0,s2
   1502c:	e5dfe0ef          	jal	ra,13e88 <eisneg>
   15030:	40a48533          	sub	a0,s1,a0
   15034:	00a03533          	snez	a0,a0
   15038:	00f51513          	slli	a0,a0,0xf
   1503c:	00a41923          	sh	a0,18(s0)
   15040:	01240713          	addi	a4,s0,18
   15044:	00040793          	mv	a5,s0
   15048:	00278793          	addi	a5,a5,2 # 7fffc002 <__BSS_END__+0x7ffd8dfa>
   1504c:	fe079f23          	sh	zero,-2(a5)
   15050:	fee79ce3          	bne	a5,a4,15048 <ediv+0x1f8>
   15054:	01245783          	lhu	a5,18(s0)
   15058:	00008737          	lui	a4,0x8
   1505c:	fff70713          	addi	a4,a4,-1 # 7fff <register_fini-0x80b1>
   15060:	00e7e7b3          	or	a5,a5,a4
   15064:	00f41923          	sh	a5,18(s0)
   15068:	eb5ff06f          	j	14f1c <ediv+0xcc>
   1506c:	01913423          	sd	s9,8(sp)
   15070:	00090613          	mv	a2,s2
   15074:	01213023          	sd	s2,0(sp)
   15078:	01410793          	addi	a5,sp,20
   1507c:	02810693          	addi	a3,sp,40
   15080:	02061263          	bnez	a2,150a4 <ediv+0x254>
   15084:	28f68a63          	beq	a3,a5,15318 <ediv+0x4c8>
   15088:	00278793          	addi	a5,a5,2
   1508c:	ffe7d703          	lhu	a4,-2(a5)
   15090:	fe070ae3          	beqz	a4,15084 <ediv+0x234>
   15094:	01010513          	addi	a0,sp,16
   15098:	a00ff0ef          	jal	ra,14298 <enormlz>
   1509c:	40a907b3          	sub	a5,s2,a0
   150a0:	00f13023          	sd	a5,0(sp)
   150a4:	03012703          	lw	a4,48(sp)
   150a8:	038c0d93          	addi	s11,s8,56
   150ac:	000d8793          	mv	a5,s11
   150b0:	02ec2a23          	sw	a4,52(s8)
   150b4:	04ec0993          	addi	s3,s8,78
   150b8:	00278793          	addi	a5,a5,2
   150bc:	fe079f23          	sh	zero,-2(a5)
   150c0:	fef99ce3          	bne	s3,a5,150b8 <ediv+0x268>
   150c4:	03010513          	addi	a0,sp,48
   150c8:	b95fe0ef          	jal	ra,13c5c <eshdn1>
   150cc:	01615d03          	lhu	s10,22(sp)
   150d0:	00010ab7          	lui	s5,0x10
   150d4:	04810493          	addi	s1,sp,72
   150d8:	010d1b13          	slli	s6,s10,0x10
   150dc:	41ab0b33          	sub	s6,s6,s10
   150e0:	03210b93          	addi	s7,sp,50
   150e4:	fffa8a93          	addi	s5,s5,-1 # ffff <register_fini-0xb1>
   150e8:	06a10913          	addi	s2,sp,106
   150ec:	05210a13          	addi	s4,sp,82
   150f0:	03415503          	lhu	a0,52(sp)
   150f4:	03615783          	lhu	a5,54(sp)
   150f8:	000a8c93          	mv	s9,s5
   150fc:	01051513          	slli	a0,a0,0x10
   15100:	00f50533          	add	a0,a0,a5
   15104:	00ab6a63          	bltu	s6,a0,15118 <ediv+0x2c8>
   15108:	000d0593          	mv	a1,s10
   1510c:	7850b0ef          	jal	ra,21090 <__udivdi3>
   15110:	03051c93          	slli	s9,a0,0x30
   15114:	030cdc93          	srli	s9,s9,0x30
   15118:	05010613          	addi	a2,sp,80
   1511c:	01010593          	addi	a1,sp,16
   15120:	000c8513          	mv	a0,s9
   15124:	c15fe0ef          	jal	ra,13d38 <m16m>
   15128:	03410613          	addi	a2,sp,52
   1512c:	05410793          	addi	a5,sp,84
   15130:	00278793          	addi	a5,a5,2
   15134:	00260613          	addi	a2,a2,2
   15138:	ffe7d503          	lhu	a0,-2(a5)
   1513c:	ffe65583          	lhu	a1,-2(a2)
   15140:	10b51863          	bne	a0,a1,15250 <ediv+0x400>
   15144:	ff2796e3          	bne	a5,s2,15130 <ediv+0x2e0>
   15148:	00000513          	li	a0,0
   1514c:	06810593          	addi	a1,sp,104
   15150:	00048613          	mv	a2,s1
   15154:	00065783          	lhu	a5,0(a2)
   15158:	0005d803          	lhu	a6,0(a1)
   1515c:	ffe60613          	addi	a2,a2,-2
   15160:	40a787b3          	sub	a5,a5,a0
   15164:	410787b3          	sub	a5,a5,a6
   15168:	00f61123          	sh	a5,2(a2)
   1516c:	0107d793          	srli	a5,a5,0x10
   15170:	ffe58593          	addi	a1,a1,-2
   15174:	0017f513          	andi	a0,a5,1
   15178:	fd761ee3          	bne	a2,s7,15154 <ediv+0x304>
   1517c:	019d9023          	sh	s9,0(s11)
   15180:	03410793          	addi	a5,sp,52
   15184:	00278793          	addi	a5,a5,2
   15188:	0007d683          	lhu	a3,0(a5)
   1518c:	fed79f23          	sh	a3,-2(a5)
   15190:	fe979ae3          	bne	a5,s1,15184 <ediv+0x334>
   15194:	04011423          	sh	zero,72(sp)
   15198:	002d8d93          	addi	s11,s11,2
   1519c:	f5b99ae3          	bne	s3,s11,150f0 <ediv+0x2a0>
   151a0:	00000593          	li	a1,0
   151a4:	03410793          	addi	a5,sp,52
   151a8:	04a10693          	addi	a3,sp,74
   151ac:	00278793          	addi	a5,a5,2
   151b0:	ffe7d703          	lhu	a4,-2(a5)
   151b4:	00e5e5b3          	or	a1,a1,a4
   151b8:	fed79ae3          	bne	a5,a3,151ac <ediv+0x35c>
   151bc:	0005859b          	sext.w	a1,a1
   151c0:	00b035b3          	snez	a1,a1
   151c4:	034c0713          	addi	a4,s8,52
   151c8:	03010793          	addi	a5,sp,48
   151cc:	00075603          	lhu	a2,0(a4)
   151d0:	00278793          	addi	a5,a5,2
   151d4:	00270713          	addi	a4,a4,2
   151d8:	fec79f23          	sh	a2,-2(a5)
   151dc:	fef698e3          	bne	a3,a5,151cc <ediv+0x37c>
   151e0:	00813783          	ld	a5,8(sp)
   151e4:	00013703          	ld	a4,0(sp)
   151e8:	000046b7          	lui	a3,0x4
   151ec:	fff68693          	addi	a3,a3,-1 # 3fff <register_fini-0xc0b1>
   151f0:	40e78cb3          	sub	s9,a5,a4
   151f4:	03010513          	addi	a0,sp,48
   151f8:	000c0793          	mv	a5,s8
   151fc:	04000713          	li	a4,64
   15200:	00dc86b3          	add	a3,s9,a3
   15204:	00000613          	li	a2,0
   15208:	a14ff0ef          	jal	ra,1441c <emdnorm>
   1520c:	03015703          	lhu	a4,48(sp)
   15210:	01015783          	lhu	a5,16(sp)
   15214:	00040593          	mv	a1,s0
   15218:	03010513          	addi	a0,sp,48
   1521c:	40e787b3          	sub	a5,a5,a4
   15220:	00f037b3          	snez	a5,a5
   15224:	40f007bb          	negw	a5,a5
   15228:	02f11823          	sh	a5,48(sp)
   1522c:	f6cff0ef          	jal	ra,14998 <emovo.isra.6>
   15230:	cedff06f          	j	14f1c <ediv+0xcc>
   15234:	01448713          	addi	a4,s1,20
   15238:	00248493          	addi	s1,s1,2
   1523c:	ffe4d783          	lhu	a5,-2(s1)
   15240:	00240413          	addi	s0,s0,2
   15244:	fef41f23          	sh	a5,-2(s0)
   15248:	fee498e3          	bne	s1,a4,15238 <ediv+0x3e8>
   1524c:	cd1ff06f          	j	14f1c <ediv+0xcc>
   15250:	eea5fce3          	bgeu	a1,a0,15148 <ediv+0x2f8>
   15254:	fffc879b          	addiw	a5,s9,-1
   15258:	03079893          	slli	a7,a5,0x30
   1525c:	0308d893          	srli	a7,a7,0x30
   15260:	00000513          	li	a0,0
   15264:	02810593          	addi	a1,sp,40
   15268:	06810613          	addi	a2,sp,104
   1526c:	00065783          	lhu	a5,0(a2)
   15270:	0005d803          	lhu	a6,0(a1)
   15274:	ffe60613          	addi	a2,a2,-2
   15278:	40a787b3          	sub	a5,a5,a0
   1527c:	410787b3          	sub	a5,a5,a6
   15280:	00f61123          	sh	a5,2(a2)
   15284:	0107d793          	srli	a5,a5,0x10
   15288:	ffe58593          	addi	a1,a1,-2
   1528c:	0017f513          	andi	a0,a5,1
   15290:	fd461ee3          	bne	a2,s4,1526c <ediv+0x41c>
   15294:	03410613          	addi	a2,sp,52
   15298:	05410793          	addi	a5,sp,84
   1529c:	00278793          	addi	a5,a5,2
   152a0:	00260613          	addi	a2,a2,2
   152a4:	ffe7d503          	lhu	a0,-2(a5)
   152a8:	ffe65583          	lhu	a1,-2(a2)
   152ac:	00b51863          	bne	a0,a1,152bc <ediv+0x46c>
   152b0:	ff2796e3          	bne	a5,s2,1529c <ediv+0x44c>
   152b4:	00088c93          	mv	s9,a7
   152b8:	e91ff06f          	j	15148 <ediv+0x2f8>
   152bc:	fea5fce3          	bgeu	a1,a0,152b4 <ediv+0x464>
   152c0:	ffec869b          	addiw	a3,s9,-2
   152c4:	03069c93          	slli	s9,a3,0x30
   152c8:	030cdc93          	srli	s9,s9,0x30
   152cc:	00000513          	li	a0,0
   152d0:	02810593          	addi	a1,sp,40
   152d4:	06810613          	addi	a2,sp,104
   152d8:	00065783          	lhu	a5,0(a2)
   152dc:	0005d803          	lhu	a6,0(a1)
   152e0:	ffe60613          	addi	a2,a2,-2
   152e4:	40a787b3          	sub	a5,a5,a0
   152e8:	410787b3          	sub	a5,a5,a6
   152ec:	00f61123          	sh	a5,2(a2)
   152f0:	0107d793          	srli	a5,a5,0x10
   152f4:	ffe58593          	addi	a1,a1,-2
   152f8:	0017f513          	andi	a0,a5,1
   152fc:	fd461ee3          	bne	a2,s4,152d8 <ediv+0x488>
   15300:	e49ff06f          	j	15148 <ediv+0x2f8>
   15304:	01440793          	addi	a5,s0,20
   15308:	00240413          	addi	s0,s0,2
   1530c:	fe041f23          	sh	zero,-2(s0)
   15310:	fe879ce3          	bne	a5,s0,15308 <ediv+0x4b8>
   15314:	c09ff06f          	j	14f1c <ediv+0xcc>
   15318:	01015703          	lhu	a4,16(sp)
   1531c:	03015783          	lhu	a5,48(sp)
   15320:	00f70463          	beq	a4,a5,15328 <ediv+0x4d8>
   15324:	00008637          	lui	a2,0x8
   15328:	00c41923          	sh	a2,18(s0)
   1532c:	01240713          	addi	a4,s0,18
   15330:	00040793          	mv	a5,s0
   15334:	00278793          	addi	a5,a5,2
   15338:	fe079f23          	sh	zero,-2(a5)
   1533c:	fef71ce3          	bne	a4,a5,15334 <ediv+0x4e4>
   15340:	01245783          	lhu	a5,18(s0)
   15344:	00008737          	lui	a4,0x8
   15348:	fff70713          	addi	a4,a4,-1 # 7fff <register_fini-0x80b1>
   1534c:	00e7e7b3          	or	a5,a5,a4
   15350:	00f41923          	sh	a5,18(s0)
   15354:	bc9ff06f          	j	14f1c <ediv+0xcc>

0000000000015358 <e113toe.isra.8>:
   15358:	fd010113          	addi	sp,sp,-48
   1535c:	02813023          	sd	s0,32(sp)
   15360:	02113423          	sd	ra,40(sp)
   15364:	00058413          	mv	s0,a1
   15368:	00010793          	mv	a5,sp
   1536c:	01a10713          	addi	a4,sp,26
   15370:	00278793          	addi	a5,a5,2
   15374:	fe079f23          	sh	zero,-2(a5)
   15378:	fee79ce3          	bne	a5,a4,15370 <e113toe.isra.8+0x18>
   1537c:	00e55603          	lhu	a2,14(a0)
   15380:	0106179b          	slliw	a5,a2,0x10
   15384:	4107d79b          	sraiw	a5,a5,0x10
   15388:	02079713          	slli	a4,a5,0x20
   1538c:	06074a63          	bltz	a4,15400 <e113toe.isra.8+0xa8>
   15390:	000087b7          	lui	a5,0x8
   15394:	fff78793          	addi	a5,a5,-1 # 7fff <register_fini-0x80b1>
   15398:	00011023          	sh	zero,0(sp)
   1539c:	00f67633          	and	a2,a2,a5
   153a0:	06f60c63          	beq	a2,a5,15418 <e113toe.isra.8+0xc0>
   153a4:	00e50793          	addi	a5,a0,14
   153a8:	00c11123          	sh	a2,2(sp)
   153ac:	00610713          	addi	a4,sp,6
   153b0:	ffe78793          	addi	a5,a5,-2
   153b4:	0007d683          	lhu	a3,0(a5)
   153b8:	00270713          	addi	a4,a4,2
   153bc:	fed71f23          	sh	a3,-2(a4)
   153c0:	fef518e3          	bne	a0,a5,153b0 <e113toe.isra.8+0x58>
   153c4:	02061263          	bnez	a2,153e8 <e113toe.isra.8+0x90>
   153c8:	00011223          	sh	zero,4(sp)
   153cc:	00040593          	mv	a1,s0
   153d0:	00010513          	mv	a0,sp
   153d4:	dc4ff0ef          	jal	ra,14998 <emovo.isra.6>
   153d8:	02813083          	ld	ra,40(sp)
   153dc:	02013403          	ld	s0,32(sp)
   153e0:	03010113          	addi	sp,sp,48
   153e4:	00008067          	ret
   153e8:	00100793          	li	a5,1
   153ec:	fff00593          	li	a1,-1
   153f0:	00010513          	mv	a0,sp
   153f4:	00f11223          	sh	a5,4(sp)
   153f8:	cf5fe0ef          	jal	ra,140ec <eshift.part.3>
   153fc:	fd1ff06f          	j	153cc <e113toe.isra.8+0x74>
   15400:	fff00793          	li	a5,-1
   15404:	00f11023          	sh	a5,0(sp)
   15408:	000087b7          	lui	a5,0x8
   1540c:	fff78793          	addi	a5,a5,-1 # 7fff <register_fini-0x80b1>
   15410:	00f67633          	and	a2,a2,a5
   15414:	f8f618e3          	bne	a2,a5,153a4 <e113toe.isra.8+0x4c>
   15418:	00050793          	mv	a5,a0
   1541c:	00e50693          	addi	a3,a0,14
   15420:	0007d703          	lhu	a4,0(a5)
   15424:	00278793          	addi	a5,a5,2
   15428:	04071c63          	bnez	a4,15480 <e113toe.isra.8+0x128>
   1542c:	fef69ae3          	bne	a3,a5,15420 <e113toe.isra.8+0xc8>
   15430:	01440713          	addi	a4,s0,20
   15434:	00040793          	mv	a5,s0
   15438:	00278793          	addi	a5,a5,2
   1543c:	fe079f23          	sh	zero,-2(a5)
   15440:	fee79ce3          	bne	a5,a4,15438 <e113toe.isra.8+0xe0>
   15444:	01240713          	addi	a4,s0,18
   15448:	00040793          	mv	a5,s0
   1544c:	00278793          	addi	a5,a5,2
   15450:	fe079f23          	sh	zero,-2(a5)
   15454:	fee79ce3          	bne	a5,a4,1544c <e113toe.isra.8+0xf4>
   15458:	01245783          	lhu	a5,18(s0)
   1545c:	00008737          	lui	a4,0x8
   15460:	fff70713          	addi	a4,a4,-1 # 7fff <register_fini-0x80b1>
   15464:	00e7e7b3          	or	a5,a5,a4
   15468:	00f41923          	sh	a5,18(s0)
   1546c:	00e51783          	lh	a5,14(a0)
   15470:	f607d4e3          	bgez	a5,153d8 <e113toe.isra.8+0x80>
   15474:	00040513          	mv	a0,s0
   15478:	9c5fe0ef          	jal	ra,13e3c <eneg>
   1547c:	f5dff06f          	j	153d8 <e113toe.isra.8+0x80>
   15480:	01040713          	addi	a4,s0,16
   15484:	00040793          	mv	a5,s0
   15488:	00278793          	addi	a5,a5,2
   1548c:	fe079f23          	sh	zero,-2(a5)
   15490:	fee79ce3          	bne	a5,a4,15488 <e113toe.isra.8+0x130>
   15494:	7fffc7b7          	lui	a5,0x7fffc
   15498:	00f42823          	sw	a5,16(s0)
   1549c:	f3dff06f          	j	153d8 <e113toe.isra.8+0x80>

00000000000154a0 <_ldtoa_r>:
   154a0:	09100313          	li	t1,145
   154a4:	02031313          	slli	t1,t1,0x20
   154a8:	06053e03          	ld	t3,96(a0)
   154ac:	da010113          	addi	sp,sp,-608
   154b0:	fff30313          	addi	t1,t1,-1
   154b4:	24813823          	sd	s0,592(sp)
   154b8:	23613023          	sd	s6,544(sp)
   154bc:	21713c23          	sd	s7,536(sp)
   154c0:	24113c23          	sd	ra,600(sp)
   154c4:	24913423          	sd	s1,584(sp)
   154c8:	25213023          	sd	s2,576(sp)
   154cc:	23313c23          	sd	s3,568(sp)
   154d0:	23413823          	sd	s4,560(sp)
   154d4:	23513423          	sd	s5,552(sp)
   154d8:	21813823          	sd	s8,528(sp)
   154dc:	21913423          	sd	s9,520(sp)
   154e0:	21a13023          	sd	s10,512(sp)
   154e4:	1fb13c23          	sd	s11,504(sp)
   154e8:	04b13823          	sd	a1,80(sp)
   154ec:	04c13c23          	sd	a2,88(sp)
   154f0:	1a613023          	sd	t1,416(sp)
   154f4:	00e13823          	sd	a4,16(sp)
   154f8:	00f13c23          	sd	a5,24(sp)
   154fc:	03113823          	sd	a7,48(sp)
   15500:	00050b13          	mv	s6,a0
   15504:	00068b93          	mv	s7,a3
   15508:	00080413          	mv	s0,a6
   1550c:	020e0263          	beqz	t3,15530 <_ldtoa_r+0x90>
   15510:	06852703          	lw	a4,104(a0)
   15514:	00100793          	li	a5,1
   15518:	000e0593          	mv	a1,t3
   1551c:	00e797bb          	sllw	a5,a5,a4
   15520:	00ee2423          	sw	a4,8(t3)
   15524:	00fe2623          	sw	a5,12(t3)
   15528:	7f9010ef          	jal	ra,17520 <_Bfree>
   1552c:	060b3023          	sd	zero,96(s6)
   15530:	08010593          	addi	a1,sp,128
   15534:	05010513          	addi	a0,sp,80
   15538:	e21ff0ef          	jal	ra,15358 <e113toe.isra.8>
   1553c:	08010513          	addi	a0,sp,128
   15540:	949fe0ef          	jal	ra,13e88 <eisneg>
   15544:	00a03533          	snez	a0,a0
   15548:	00a42023          	sw	a0,0(s0)
   1554c:	00300793          	li	a5,3
   15550:	1cfb80e3          	beq	s7,a5,15f10 <_ldtoa_r+0xa70>
   15554:	01400793          	li	a5,20
   15558:	00f13423          	sd	a5,8(sp)
   1555c:	620b9ee3          	bnez	s7,16398 <_ldtoa_r+0xef8>
   15560:	09215783          	lhu	a5,146(sp)
   15564:	1a412703          	lw	a4,420(sp)
   15568:	fff7c793          	not	a5,a5
   1556c:	02e13423          	sd	a4,40(sp)
   15570:	03179713          	slli	a4,a5,0x31
   15574:	00071863          	bnez	a4,15584 <_ldtoa_r+0xe4>
   15578:	08010513          	addi	a0,sp,128
   1557c:	89dfe0ef          	jal	ra,13e18 <eisnan.part.0>
   15580:	460510e3          	bnez	a0,161e0 <_ldtoa_r+0xd40>
   15584:	09000793          	li	a5,144
   15588:	1af12223          	sw	a5,420(sp)
   1558c:	0a010713          	addi	a4,sp,160
   15590:	08010793          	addi	a5,sp,128
   15594:	09410613          	addi	a2,sp,148
   15598:	00278793          	addi	a5,a5,2 # 7fffc002 <__BSS_END__+0x7ffd8dfa>
   1559c:	ffe7d683          	lhu	a3,-2(a5)
   155a0:	00270713          	addi	a4,a4,2
   155a4:	fed71f23          	sh	a3,-2(a4)
   155a8:	fec798e3          	bne	a5,a2,15598 <_ldtoa_r+0xf8>
   155ac:	0b215603          	lhu	a2,178(sp)
   155b0:	02013023          	sd	zero,32(sp)
   155b4:	0106179b          	slliw	a5,a2,0x10
   155b8:	4107d79b          	sraiw	a5,a5,0x10
   155bc:	02079713          	slli	a4,a5,0x20
   155c0:	00075e63          	bgez	a4,155dc <_ldtoa_r+0x13c>
   155c4:	03161613          	slli	a2,a2,0x31
   155c8:	000107b7          	lui	a5,0x10
   155cc:	03165613          	srli	a2,a2,0x31
   155d0:	fff78793          	addi	a5,a5,-1 # ffff <register_fini-0xb1>
   155d4:	0ac11923          	sh	a2,178(sp)
   155d8:	02f13023          	sd	a5,32(sp)
   155dc:	00000693          	li	a3,0
   155e0:	0c010793          	addi	a5,sp,192
   155e4:	0000c717          	auipc	a4,0xc
   155e8:	e1470713          	addi	a4,a4,-492 # 213f8 <eone>
   155ec:	0d410d93          	addi	s11,sp,212
   155f0:	0080006f          	j	155f8 <_ldtoa_r+0x158>
   155f4:	00075683          	lhu	a3,0(a4)
   155f8:	00278793          	addi	a5,a5,2
   155fc:	fed79f23          	sh	a3,-2(a5)
   15600:	00270713          	addi	a4,a4,2
   15604:	ffb798e3          	bne	a5,s11,155f4 <_ldtoa_r+0x154>
   15608:	16060663          	beqz	a2,15774 <_ldtoa_r+0x2d4>
   1560c:	000087b7          	lui	a5,0x8
   15610:	fff78793          	addi	a5,a5,-1 # 7fff <register_fini-0x80b1>
   15614:	5af60ee3          	beq	a2,a5,163d0 <_ldtoa_r+0xf30>
   15618:	0b011783          	lh	a5,176(sp)
   1561c:	6407d0e3          	bgez	a5,1645c <_ldtoa_r+0xfbc>
   15620:	0a010593          	addi	a1,sp,160
   15624:	0000c517          	auipc	a0,0xc
   15628:	dd450513          	addi	a0,a0,-556 # 213f8 <eone>
   1562c:	989fe0ef          	jal	ra,13fb4 <ecmp>
   15630:	14050e63          	beqz	a0,1578c <_ldtoa_r+0x2ec>
   15634:	100548e3          	bltz	a0,15f44 <_ldtoa_r+0xaa4>
   15638:	0b215783          	lhu	a5,178(sp)
   1563c:	6a079ee3          	bnez	a5,164f8 <_ldtoa_r+0x1058>
   15640:	0b011783          	lh	a5,176(sp)
   15644:	00000493          	li	s1,0
   15648:	1a010993          	addi	s3,sp,416
   1564c:	0207c663          	bltz	a5,15678 <_ldtoa_r+0x1d8>
   15650:	0000c417          	auipc	s0,0xc
   15654:	eb040413          	addi	s0,s0,-336 # 21500 <etens+0xf0>
   15658:	0a010613          	addi	a2,sp,160
   1565c:	00098693          	mv	a3,s3
   15660:	00060593          	mv	a1,a2
   15664:	00040513          	mv	a0,s0
   15668:	be0ff0ef          	jal	ra,14a48 <emul>
   1566c:	0b011783          	lh	a5,176(sp)
   15670:	fff4849b          	addiw	s1,s1,-1
   15674:	fe07d2e3          	bgez	a5,15658 <_ldtoa_r+0x1b8>
   15678:	10010413          	addi	s0,sp,256
   1567c:	11810a13          	addi	s4,sp,280
   15680:	00040713          	mv	a4,s0
   15684:	0a010793          	addi	a5,sp,160
   15688:	0b410613          	addi	a2,sp,180
   1568c:	00278793          	addi	a5,a5,2
   15690:	ffe7d683          	lhu	a3,-2(a5)
   15694:	00270713          	addi	a4,a4,2
   15698:	fed71f23          	sh	a3,-2(a4)
   1569c:	fec798e3          	bne	a5,a2,1568c <_ldtoa_r+0x1ec>
   156a0:	00000693          	li	a3,0
   156a4:	0c010793          	addi	a5,sp,192
   156a8:	0000c717          	auipc	a4,0xc
   156ac:	d5070713          	addi	a4,a4,-688 # 213f8 <eone>
   156b0:	0080006f          	j	156b8 <_ldtoa_r+0x218>
   156b4:	00075683          	lhu	a3,0(a4)
   156b8:	00278793          	addi	a5,a5,2
   156bc:	fed79f23          	sh	a3,-2(a5)
   156c0:	00270713          	addi	a4,a4,2
   156c4:	ffb798e3          	bne	a5,s11,156b4 <_ldtoa_r+0x214>
   156c8:	fffff937          	lui	s2,0xfffff
   156cc:	0000ca97          	auipc	s5,0xc
   156d0:	d44a8a93          	addi	s5,s5,-700 # 21410 <etens>
   156d4:	0000cc97          	auipc	s9,0xc
   156d8:	e44c8c93          	addi	s9,s9,-444 # 21518 <emtens>
   156dc:	0000cd17          	auipc	s10,0xc
   156e0:	d1cd0d13          	addi	s10,s10,-740 # 213f8 <eone>
   156e4:	0000cd97          	auipc	s11,0xc
   156e8:	e1cd8d93          	addi	s11,s11,-484 # 21500 <etens+0xf0>
   156ec:	00c0006f          	j	156f8 <_ldtoa_r+0x258>
   156f0:	014c8c93          	addi	s9,s9,20
   156f4:	014a8a93          	addi	s5,s5,20
   156f8:	00040593          	mv	a1,s0
   156fc:	000d0513          	mv	a0,s10
   15700:	8b5fe0ef          	jal	ra,13fb4 <ecmp>
   15704:	00040593          	mv	a1,s0
   15708:	04a05663          	blez	a0,15754 <_ldtoa_r+0x2b4>
   1570c:	000c8513          	mv	a0,s9
   15710:	8a5fe0ef          	jal	ra,13fb4 <ecmp>
   15714:	00098693          	mv	a3,s3
   15718:	00040613          	mv	a2,s0
   1571c:	00040593          	mv	a1,s0
   15720:	02054263          	bltz	a0,15744 <_ldtoa_r+0x2a4>
   15724:	000a8513          	mv	a0,s5
   15728:	b20ff0ef          	jal	ra,14a48 <emul>
   1572c:	0c010613          	addi	a2,sp,192
   15730:	00098693          	mv	a3,s3
   15734:	00060593          	mv	a1,a2
   15738:	000a8513          	mv	a0,s5
   1573c:	b0cff0ef          	jal	ra,14a48 <emul>
   15740:	009904bb          	addw	s1,s2,s1
   15744:	01f9579b          	srliw	a5,s2,0x1f
   15748:	0127893b          	addw	s2,a5,s2
   1574c:	4019591b          	sraiw	s2,s2,0x1
   15750:	fbba90e3          	bne	s5,s11,156f0 <_ldtoa_r+0x250>
   15754:	0c010613          	addi	a2,sp,192
   15758:	00098693          	mv	a3,s3
   1575c:	0000c597          	auipc	a1,0xc
   15760:	c9c58593          	addi	a1,a1,-868 # 213f8 <eone>
   15764:	00060513          	mv	a0,a2
   15768:	ee8ff0ef          	jal	ra,14e50 <ediv>
   1576c:	16010913          	addi	s2,sp,352
   15770:	0300006f          	j	157a0 <_ldtoa_r+0x300>
   15774:	0a010793          	addi	a5,sp,160
   15778:	0b210693          	addi	a3,sp,178
   1577c:	0007d703          	lhu	a4,0(a5)
   15780:	00278793          	addi	a5,a5,2
   15784:	e8071ee3          	bnez	a4,15620 <_ldtoa_r+0x180>
   15788:	fef69ae3          	bne	a3,a5,1577c <_ldtoa_r+0x2dc>
   1578c:	00000493          	li	s1,0
   15790:	16010913          	addi	s2,sp,352
   15794:	1a010993          	addi	s3,sp,416
   15798:	10010413          	addi	s0,sp,256
   1579c:	11810a13          	addi	s4,sp,280
   157a0:	00040593          	mv	a1,s0
   157a4:	0c010513          	addi	a0,sp,192
   157a8:	f20fe0ef          	jal	ra,13ec8 <emovi>
   157ac:	0c010713          	addi	a4,sp,192
   157b0:	00040793          	mv	a5,s0
   157b4:	00278793          	addi	a5,a5,2
   157b8:	ffe7d683          	lhu	a3,-2(a5)
   157bc:	00270713          	addi	a4,a4,2
   157c0:	fed71f23          	sh	a3,-2(a4)
   157c4:	ff4798e3          	bne	a5,s4,157b4 <_ldtoa_r+0x314>
   157c8:	00040593          	mv	a1,s0
   157cc:	0a010513          	addi	a0,sp,160
   157d0:	0c011c23          	sh	zero,216(sp)
   157d4:	ef4fe0ef          	jal	ra,13ec8 <emovi>
   157d8:	0a010793          	addi	a5,sp,160
   157dc:	00240413          	addi	s0,s0,2
   157e0:	ffe45703          	lhu	a4,-2(s0)
   157e4:	00278793          	addi	a5,a5,2
   157e8:	fee79f23          	sh	a4,-2(a5)
   157ec:	ff4418e3          	bne	s0,s4,157dc <_ldtoa_r+0x33c>
   157f0:	00098613          	mv	a2,s3
   157f4:	0a010593          	addi	a1,sp,160
   157f8:	0c010513          	addi	a0,sp,192
   157fc:	0a011c23          	sh	zero,184(sp)
   15800:	834ff0ef          	jal	ra,14834 <eiremain>
   15804:	1ec15c83          	lhu	s9,492(sp)
   15808:	1e0c9063          	bnez	s9,159e8 <_ldtoa_r+0x548>
   1580c:	0000ca97          	auipc	s5,0xc
   15810:	bd4a8a93          	addi	s5,s5,-1068 # 213e0 <ezero>
   15814:	0b810d93          	addi	s11,sp,184
   15818:	0a210413          	addi	s0,sp,162
   1581c:	0e210d13          	addi	s10,sp,226
   15820:	000a8593          	mv	a1,s5
   15824:	0a010513          	addi	a0,sp,160
   15828:	f8cfe0ef          	jal	ra,13fb4 <ecmp>
   1582c:	1a050e63          	beqz	a0,159e8 <_ldtoa_r+0x548>
   15830:	00000713          	li	a4,0
   15834:	000d8693          	mv	a3,s11
   15838:	01c0006f          	j	15854 <_ldtoa_r+0x3b4>
   1583c:	0017171b          	slliw	a4,a4,0x1
   15840:	00f69023          	sh	a5,0(a3)
   15844:	03071713          	slli	a4,a4,0x30
   15848:	ffe68693          	addi	a3,a3,-2
   1584c:	03075713          	srli	a4,a4,0x30
   15850:	04868663          	beq	a3,s0,1589c <_ldtoa_r+0x3fc>
   15854:	0006d783          	lhu	a5,0(a3)
   15858:	0107961b          	slliw	a2,a5,0x10
   1585c:	4106561b          	sraiw	a2,a2,0x10
   15860:	02061593          	slli	a1,a2,0x20
   15864:	0017979b          	slliw	a5,a5,0x1
   15868:	0005d463          	bgez	a1,15870 <_ldtoa_r+0x3d0>
   1586c:	00176713          	ori	a4,a4,1
   15870:	03079793          	slli	a5,a5,0x30
   15874:	0307d793          	srli	a5,a5,0x30
   15878:	00277613          	andi	a2,a4,2
   1587c:	0017e593          	ori	a1,a5,1
   15880:	fa060ee3          	beqz	a2,1583c <_ldtoa_r+0x39c>
   15884:	0017171b          	slliw	a4,a4,0x1
   15888:	00b69023          	sh	a1,0(a3)
   1588c:	03071713          	slli	a4,a4,0x30
   15890:	ffe68693          	addi	a3,a3,-2
   15894:	03075713          	srli	a4,a4,0x30
   15898:	fa869ee3          	bne	a3,s0,15854 <_ldtoa_r+0x3b4>
   1589c:	0e010713          	addi	a4,sp,224
   158a0:	0a010793          	addi	a5,sp,160
   158a4:	00278793          	addi	a5,a5,2
   158a8:	ffe7d683          	lhu	a3,-2(a5)
   158ac:	00270713          	addi	a4,a4,2
   158b0:	fed71f23          	sh	a3,-2(a4)
   158b4:	ffb798e3          	bne	a5,s11,158a4 <_ldtoa_r+0x404>
   158b8:	0e011c23          	sh	zero,248(sp)
   158bc:	00000713          	li	a4,0
   158c0:	0f810693          	addi	a3,sp,248
   158c4:	01c0006f          	j	158e0 <_ldtoa_r+0x440>
   158c8:	0017171b          	slliw	a4,a4,0x1
   158cc:	00f69023          	sh	a5,0(a3)
   158d0:	03071713          	slli	a4,a4,0x30
   158d4:	ffe68693          	addi	a3,a3,-2
   158d8:	03075713          	srli	a4,a4,0x30
   158dc:	05a68663          	beq	a3,s10,15928 <_ldtoa_r+0x488>
   158e0:	0006d783          	lhu	a5,0(a3)
   158e4:	0107961b          	slliw	a2,a5,0x10
   158e8:	4106561b          	sraiw	a2,a2,0x10
   158ec:	02061593          	slli	a1,a2,0x20
   158f0:	0017979b          	slliw	a5,a5,0x1
   158f4:	0005d463          	bgez	a1,158fc <_ldtoa_r+0x45c>
   158f8:	00176713          	ori	a4,a4,1
   158fc:	03079793          	slli	a5,a5,0x30
   15900:	0307d793          	srli	a5,a5,0x30
   15904:	00277613          	andi	a2,a4,2
   15908:	0017e593          	ori	a1,a5,1
   1590c:	fa060ee3          	beqz	a2,158c8 <_ldtoa_r+0x428>
   15910:	0017171b          	slliw	a4,a4,0x1
   15914:	00b69023          	sh	a1,0(a3)
   15918:	03071713          	slli	a4,a4,0x30
   1591c:	ffe68693          	addi	a3,a3,-2
   15920:	03075713          	srli	a4,a4,0x30
   15924:	fba69ee3          	bne	a3,s10,158e0 <_ldtoa_r+0x440>
   15928:	00000713          	li	a4,0
   1592c:	0f810693          	addi	a3,sp,248
   15930:	01c0006f          	j	1594c <_ldtoa_r+0x4ac>
   15934:	0017171b          	slliw	a4,a4,0x1
   15938:	00f69023          	sh	a5,0(a3)
   1593c:	03071713          	slli	a4,a4,0x30
   15940:	ffe68693          	addi	a3,a3,-2
   15944:	03075713          	srli	a4,a4,0x30
   15948:	05a68663          	beq	a3,s10,15994 <_ldtoa_r+0x4f4>
   1594c:	0006d783          	lhu	a5,0(a3)
   15950:	0107961b          	slliw	a2,a5,0x10
   15954:	4106561b          	sraiw	a2,a2,0x10
   15958:	02061593          	slli	a1,a2,0x20
   1595c:	0017979b          	slliw	a5,a5,0x1
   15960:	0005d463          	bgez	a1,15968 <_ldtoa_r+0x4c8>
   15964:	00176713          	ori	a4,a4,1
   15968:	03079793          	slli	a5,a5,0x30
   1596c:	0307d793          	srli	a5,a5,0x30
   15970:	00277613          	andi	a2,a4,2
   15974:	0017e593          	ori	a1,a5,1
   15978:	fa060ee3          	beqz	a2,15934 <_ldtoa_r+0x494>
   1597c:	0017171b          	slliw	a4,a4,0x1
   15980:	00b69023          	sh	a1,0(a3)
   15984:	03071713          	slli	a4,a4,0x30
   15988:	ffe68693          	addi	a3,a3,-2
   1598c:	03075713          	srli	a4,a4,0x30
   15990:	fba69ee3          	bne	a3,s10,1594c <_ldtoa_r+0x4ac>
   15994:	00000613          	li	a2,0
   15998:	000d8693          	mv	a3,s11
   1599c:	0f810713          	addi	a4,sp,248
   159a0:	0006d583          	lhu	a1,0(a3)
   159a4:	00075783          	lhu	a5,0(a4)
   159a8:	ffe68693          	addi	a3,a3,-2
   159ac:	ffe70713          	addi	a4,a4,-2
   159b0:	00b787b3          	add	a5,a5,a1
   159b4:	00c787b3          	add	a5,a5,a2
   159b8:	00f69123          	sh	a5,2(a3)
   159bc:	0107d793          	srli	a5,a5,0x10
   159c0:	0017f613          	andi	a2,a5,1
   159c4:	fda71ee3          	bne	a4,s10,159a0 <_ldtoa_r+0x500>
   159c8:	00098613          	mv	a2,s3
   159cc:	0a010593          	addi	a1,sp,160
   159d0:	0c010513          	addi	a0,sp,192
   159d4:	e61fe0ef          	jal	ra,14834 <eiremain>
   159d8:	1ec15783          	lhu	a5,492(sp)
   159dc:	fff4849b          	addiw	s1,s1,-1
   159e0:	e40780e3          	beqz	a5,15820 <_ldtoa_r+0x380>
   159e4:	00078c93          	mv	s9,a5
   159e8:	02013703          	ld	a4,32(sp)
   159ec:	02d00793          	li	a5,45
   159f0:	00071463          	bnez	a4,159f8 <_ldtoa_r+0x558>
   159f4:	02000793          	li	a5,32
   159f8:	16f10023          	sb	a5,352(sp)
   159fc:	00300793          	li	a5,3
   15a00:	00813403          	ld	s0,8(sp)
   15a04:	02fb8463          	beq	s7,a5,15a2c <_ldtoa_r+0x58c>
   15a08:	00a00793          	li	a5,10
   15a0c:	20fc8ae3          	beq	s9,a5,16420 <_ldtoa_r+0xf80>
   15a10:	030c8c9b          	addiw	s9,s9,48
   15a14:	02e00793          	li	a5,46
   15a18:	179100a3          	sb	s9,353(sp)
   15a1c:	16f10123          	sb	a5,354(sp)
   15a20:	7a044863          	bltz	s0,161d0 <_ldtoa_r+0xd30>
   15a24:	16310c93          	addi	s9,sp,355
   15a28:	0300006f          	j	15a58 <_ldtoa_r+0x5b8>
   15a2c:	0094043b          	addw	s0,s0,s1
   15a30:	02a00793          	li	a5,42
   15a34:	fc87dae3          	bge	a5,s0,15a08 <_ldtoa_r+0x568>
   15a38:	00a00793          	li	a5,10
   15a3c:	1afc8ee3          	beq	s9,a5,163f8 <_ldtoa_r+0xf58>
   15a40:	030c8c9b          	addiw	s9,s9,48
   15a44:	02e00793          	li	a5,46
   15a48:	179100a3          	sb	s9,353(sp)
   15a4c:	16f10123          	sb	a5,354(sp)
   15a50:	02a00413          	li	s0,42
   15a54:	16310c93          	addi	s9,sp,355
   15a58:	00000c13          	li	s8,0
   15a5c:	0e010a93          	addi	s5,sp,224
   15a60:	0b810d93          	addi	s11,sp,184
   15a64:	0a210a13          	addi	s4,sp,162
   15a68:	0e210d13          	addi	s10,sp,226
   15a6c:	00000713          	li	a4,0
   15a70:	000d8693          	mv	a3,s11
   15a74:	01c0006f          	j	15a90 <_ldtoa_r+0x5f0>
   15a78:	0017171b          	slliw	a4,a4,0x1
   15a7c:	00f69023          	sh	a5,0(a3)
   15a80:	03071713          	slli	a4,a4,0x30
   15a84:	ffe68693          	addi	a3,a3,-2
   15a88:	03075713          	srli	a4,a4,0x30
   15a8c:	05468663          	beq	a3,s4,15ad8 <_ldtoa_r+0x638>
   15a90:	0006d783          	lhu	a5,0(a3)
   15a94:	0107961b          	slliw	a2,a5,0x10
   15a98:	4106561b          	sraiw	a2,a2,0x10
   15a9c:	02061593          	slli	a1,a2,0x20
   15aa0:	0017979b          	slliw	a5,a5,0x1
   15aa4:	0005d463          	bgez	a1,15aac <_ldtoa_r+0x60c>
   15aa8:	00176713          	ori	a4,a4,1
   15aac:	03079793          	slli	a5,a5,0x30
   15ab0:	0307d793          	srli	a5,a5,0x30
   15ab4:	00277613          	andi	a2,a4,2
   15ab8:	0017e593          	ori	a1,a5,1
   15abc:	fa060ee3          	beqz	a2,15a78 <_ldtoa_r+0x5d8>
   15ac0:	0017171b          	slliw	a4,a4,0x1
   15ac4:	00b69023          	sh	a1,0(a3)
   15ac8:	03071713          	slli	a4,a4,0x30
   15acc:	ffe68693          	addi	a3,a3,-2
   15ad0:	03075713          	srli	a4,a4,0x30
   15ad4:	fb469ee3          	bne	a3,s4,15a90 <_ldtoa_r+0x5f0>
   15ad8:	000a8713          	mv	a4,s5
   15adc:	0a010793          	addi	a5,sp,160
   15ae0:	00278793          	addi	a5,a5,2
   15ae4:	ffe7d683          	lhu	a3,-2(a5)
   15ae8:	00270713          	addi	a4,a4,2
   15aec:	fed71f23          	sh	a3,-2(a4)
   15af0:	ffb798e3          	bne	a5,s11,15ae0 <_ldtoa_r+0x640>
   15af4:	0e011c23          	sh	zero,248(sp)
   15af8:	00000713          	li	a4,0
   15afc:	0f810693          	addi	a3,sp,248
   15b00:	01c0006f          	j	15b1c <_ldtoa_r+0x67c>
   15b04:	0017171b          	slliw	a4,a4,0x1
   15b08:	00f69023          	sh	a5,0(a3)
   15b0c:	03071713          	slli	a4,a4,0x30
   15b10:	ffe68693          	addi	a3,a3,-2
   15b14:	03075713          	srli	a4,a4,0x30
   15b18:	05a68663          	beq	a3,s10,15b64 <_ldtoa_r+0x6c4>
   15b1c:	0006d783          	lhu	a5,0(a3)
   15b20:	0107961b          	slliw	a2,a5,0x10
   15b24:	4106561b          	sraiw	a2,a2,0x10
   15b28:	02061593          	slli	a1,a2,0x20
   15b2c:	0017979b          	slliw	a5,a5,0x1
   15b30:	0005d463          	bgez	a1,15b38 <_ldtoa_r+0x698>
   15b34:	00176713          	ori	a4,a4,1
   15b38:	03079793          	slli	a5,a5,0x30
   15b3c:	0307d793          	srli	a5,a5,0x30
   15b40:	00277613          	andi	a2,a4,2
   15b44:	0017e593          	ori	a1,a5,1
   15b48:	fa060ee3          	beqz	a2,15b04 <_ldtoa_r+0x664>
   15b4c:	0017171b          	slliw	a4,a4,0x1
   15b50:	00b69023          	sh	a1,0(a3)
   15b54:	03071713          	slli	a4,a4,0x30
   15b58:	ffe68693          	addi	a3,a3,-2
   15b5c:	03075713          	srli	a4,a4,0x30
   15b60:	fba69ee3          	bne	a3,s10,15b1c <_ldtoa_r+0x67c>
   15b64:	00000713          	li	a4,0
   15b68:	0f810693          	addi	a3,sp,248
   15b6c:	01c0006f          	j	15b88 <_ldtoa_r+0x6e8>
   15b70:	0017171b          	slliw	a4,a4,0x1
   15b74:	00f69023          	sh	a5,0(a3)
   15b78:	03071713          	slli	a4,a4,0x30
   15b7c:	ffe68693          	addi	a3,a3,-2
   15b80:	03075713          	srli	a4,a4,0x30
   15b84:	05a68663          	beq	a3,s10,15bd0 <_ldtoa_r+0x730>
   15b88:	0006d783          	lhu	a5,0(a3)
   15b8c:	0107961b          	slliw	a2,a5,0x10
   15b90:	4106561b          	sraiw	a2,a2,0x10
   15b94:	02061593          	slli	a1,a2,0x20
   15b98:	0017979b          	slliw	a5,a5,0x1
   15b9c:	0005d463          	bgez	a1,15ba4 <_ldtoa_r+0x704>
   15ba0:	00176713          	ori	a4,a4,1
   15ba4:	03079793          	slli	a5,a5,0x30
   15ba8:	0307d793          	srli	a5,a5,0x30
   15bac:	00277613          	andi	a2,a4,2
   15bb0:	0017e593          	ori	a1,a5,1
   15bb4:	fa060ee3          	beqz	a2,15b70 <_ldtoa_r+0x6d0>
   15bb8:	0017171b          	slliw	a4,a4,0x1
   15bbc:	00b69023          	sh	a1,0(a3)
   15bc0:	03071713          	slli	a4,a4,0x30
   15bc4:	ffe68693          	addi	a3,a3,-2
   15bc8:	03075713          	srli	a4,a4,0x30
   15bcc:	fba69ee3          	bne	a3,s10,15b88 <_ldtoa_r+0x6e8>
   15bd0:	00000613          	li	a2,0
   15bd4:	000d8693          	mv	a3,s11
   15bd8:	0f810713          	addi	a4,sp,248
   15bdc:	0006d583          	lhu	a1,0(a3)
   15be0:	00075783          	lhu	a5,0(a4)
   15be4:	ffe68693          	addi	a3,a3,-2
   15be8:	ffe70713          	addi	a4,a4,-2
   15bec:	00b787b3          	add	a5,a5,a1
   15bf0:	00c787b3          	add	a5,a5,a2
   15bf4:	00f69123          	sh	a5,2(a3)
   15bf8:	0107d793          	srli	a5,a5,0x10
   15bfc:	0017f613          	andi	a2,a5,1
   15c00:	fda71ee3          	bne	a4,s10,15bdc <_ldtoa_r+0x73c>
   15c04:	00098613          	mv	a2,s3
   15c08:	0a010593          	addi	a1,sp,160
   15c0c:	0c010513          	addi	a0,sp,192
   15c10:	c25fe0ef          	jal	ra,14834 <eiremain>
   15c14:	1ec15783          	lhu	a5,492(sp)
   15c18:	018c8733          	add	a4,s9,s8
   15c1c:	001c0c13          	addi	s8,s8,1
   15c20:	0307869b          	addiw	a3,a5,48
   15c24:	00d70023          	sb	a3,0(a4)
   15c28:	000c071b          	sext.w	a4,s8
   15c2c:	e4e450e3          	bge	s0,a4,15a6c <_ldtoa_r+0x5cc>
   15c30:	00140993          	addi	s3,s0,1
   15c34:	013c89b3          	add	s3,s9,s3
   15c38:	008c8cb3          	add	s9,s9,s0
   15c3c:	00400713          	li	a4,4
   15c40:	08f75063          	bge	a4,a5,15cc0 <_ldtoa_r+0x820>
   15c44:	00500713          	li	a4,5
   15c48:	02e78ae3          	beq	a5,a4,1647c <_ldtoa_r+0xfdc>
   15c4c:	ffe9c783          	lbu	a5,-2(s3)
   15c50:	ffe98713          	addi	a4,s3,-2
   15c54:	07f7f793          	andi	a5,a5,127
   15c58:	0007881b          	sext.w	a6,a5
   15c5c:	7e044863          	bltz	s0,1644c <_ldtoa_r+0xfac>
   15c60:	02e00693          	li	a3,46
   15c64:	04d78263          	beq	a5,a3,15ca8 <_ldtoa_r+0x808>
   15c68:	0017879b          	addiw	a5,a5,1
   15c6c:	00f70023          	sb	a5,0(a4)
   15c70:	03800793          	li	a5,56
   15c74:	03000593          	li	a1,48
   15c78:	02e00613          	li	a2,46
   15c7c:	03800513          	li	a0,56
   15c80:	0107c863          	blt	a5,a6,15c90 <_ldtoa_r+0x7f0>
   15c84:	03c0006f          	j	15cc0 <_ldtoa_r+0x820>
   15c88:	00d70023          	sb	a3,0(a4)
   15c8c:	02f57a63          	bgeu	a0,a5,15cc0 <_ldtoa_r+0x820>
   15c90:	00b70023          	sb	a1,0(a4)
   15c94:	fff70713          	addi	a4,a4,-1
   15c98:	00074783          	lbu	a5,0(a4)
   15c9c:	07f7f793          	andi	a5,a5,127
   15ca0:	0017869b          	addiw	a3,a5,1
   15ca4:	fec792e3          	bne	a5,a2,15c88 <_ldtoa_r+0x7e8>
   15ca8:	fff74783          	lbu	a5,-1(a4)
   15cac:	03800693          	li	a3,56
   15cb0:	02f6fee3          	bgeu	a3,a5,164ec <_ldtoa_r+0x104c>
   15cb4:	03100793          	li	a5,49
   15cb8:	0014849b          	addiw	s1,s1,1
   15cbc:	fef70fa3          	sb	a5,-1(a4)
   15cc0:	00048613          	mv	a2,s1
   15cc4:	0000c597          	auipc	a1,0xc
   15cc8:	9b458593          	addi	a1,a1,-1612 # 21678 <bmask+0x58>
   15ccc:	000c8513          	mv	a0,s9
   15cd0:	29d020ef          	jal	ra,1876c <sprintf>
   15cd4:	09215783          	lhu	a5,146(sp)
   15cd8:	02813703          	ld	a4,40(sp)
   15cdc:	1a912823          	sw	s1,432(sp)
   15ce0:	fff7c793          	not	a5,a5
   15ce4:	1ae12223          	sw	a4,420(sp)
   15ce8:	03179713          	slli	a4,a5,0x31
   15cec:	00071e63          	bnez	a4,15d08 <_ldtoa_r+0x868>
   15cf0:	08010513          	addi	a0,sp,128
   15cf4:	bdcfe0ef          	jal	ra,140d0 <eisinf.part.1>
   15cf8:	22051c63          	bnez	a0,15f30 <_ldtoa_r+0xa90>
   15cfc:	08010513          	addi	a0,sp,128
   15d00:	918fe0ef          	jal	ra,13e18 <eisnan.part.0>
   15d04:	22051663          	bnez	a0,15f30 <_ldtoa_r+0xa90>
   15d08:	01813683          	ld	a3,24(sp)
   15d0c:	16014783          	lbu	a5,352(sp)
   15d10:	0014871b          	addiw	a4,s1,1
   15d14:	00e6a023          	sw	a4,0(a3)
   15d18:	0e078ce3          	beqz	a5,16610 <_ldtoa_r+0x1170>
   15d1c:	02e00713          	li	a4,46
   15d20:	06e78063          	beq	a5,a4,15d80 <_ldtoa_r+0x8e0>
   15d24:	00090793          	mv	a5,s2
   15d28:	02e00693          	li	a3,46
   15d2c:	0080006f          	j	15d34 <_ldtoa_r+0x894>
   15d30:	04d70a63          	beq	a4,a3,15d84 <_ldtoa_r+0x8e4>
   15d34:	00178793          	addi	a5,a5,1
   15d38:	0007c703          	lbu	a4,0(a5)
   15d3c:	fe071ae3          	bnez	a4,15d30 <_ldtoa_r+0x890>
   15d40:	04500693          	li	a3,69
   15d44:	00f96663          	bltu	s2,a5,15d50 <_ldtoa_r+0x8b0>
   15d48:	0140006f          	j	15d5c <_ldtoa_r+0x8bc>
   15d4c:	01278863          	beq	a5,s2,15d5c <_ldtoa_r+0x8bc>
   15d50:	fff78793          	addi	a5,a5,-1
   15d54:	0007c703          	lbu	a4,0(a5)
   15d58:	fed71ae3          	bne	a4,a3,15d4c <_ldtoa_r+0x8ac>
   15d5c:	00078023          	sb	zero,0(a5)
   15d60:	00090793          	mv	a5,s2
   15d64:	02000693          	li	a3,32
   15d68:	02d00613          	li	a2,45
   15d6c:	0007c703          	lbu	a4,0(a5)
   15d70:	00d70463          	beq	a4,a3,15d78 <_ldtoa_r+0x8d8>
   15d74:	02c71a63          	bne	a4,a2,15da8 <_ldtoa_r+0x908>
   15d78:	00178793          	addi	a5,a5,1
   15d7c:	ff1ff06f          	j	15d6c <_ldtoa_r+0x8cc>
   15d80:	00090793          	mv	a5,s2
   15d84:	0017c703          	lbu	a4,1(a5)
   15d88:	00178793          	addi	a5,a5,1
   15d8c:	fee78fa3          	sb	a4,-1(a5)
   15d90:	fa0708e3          	beqz	a4,15d40 <_ldtoa_r+0x8a0>
   15d94:	0017c703          	lbu	a4,1(a5)
   15d98:	00178793          	addi	a5,a5,1
   15d9c:	fee78fa3          	sb	a4,-1(a5)
   15da0:	fe0712e3          	bnez	a4,15d84 <_ldtoa_r+0x8e4>
   15da4:	f9dff06f          	j	15d40 <_ldtoa_r+0x8a0>
   15da8:	00090413          	mv	s0,s2
   15dac:	00c0006f          	j	15db8 <_ldtoa_r+0x918>
   15db0:	0007c703          	lbu	a4,0(a5)
   15db4:	00068413          	mv	s0,a3
   15db8:	00e40023          	sb	a4,0(s0)
   15dbc:	00140693          	addi	a3,s0,1
   15dc0:	00178793          	addi	a5,a5,1
   15dc4:	fe0716e3          	bnez	a4,15db0 <_ldtoa_r+0x910>
   15dc8:	00200793          	li	a5,2
   15dcc:	fff44703          	lbu	a4,-1(s0)
   15dd0:	12fb8463          	beq	s7,a5,15ef8 <_ldtoa_r+0xa58>
   15dd4:	00813783          	ld	a5,8(sp)
   15dd8:	0007869b          	sext.w	a3,a5
   15ddc:	0097d463          	bge	a5,s1,15de4 <_ldtoa_r+0x944>
   15de0:	0004869b          	sext.w	a3,s1
   15de4:	03000793          	li	a5,48
   15de8:	02f71663          	bne	a4,a5,15e14 <_ldtoa_r+0x974>
   15dec:	412407b3          	sub	a5,s0,s2
   15df0:	02f6d263          	bge	a3,a5,15e14 <_ldtoa_r+0x974>
   15df4:	03000613          	li	a2,48
   15df8:	0080006f          	j	15e00 <_ldtoa_r+0x960>
   15dfc:	00e6dc63          	bge	a3,a4,15e14 <_ldtoa_r+0x974>
   15e00:	fff40413          	addi	s0,s0,-1
   15e04:	fff44783          	lbu	a5,-1(s0)
   15e08:	00040023          	sb	zero,0(s0)
   15e0c:	41240733          	sub	a4,s0,s2
   15e10:	fec786e3          	beq	a5,a2,15dfc <_ldtoa_r+0x95c>
   15e14:	00300793          	li	a5,3
   15e18:	0afb8263          	beq	s7,a5,15ebc <_ldtoa_r+0xa1c>
   15e1c:	01013783          	ld	a5,16(sp)
   15e20:	060b2423          	sw	zero,104(s6)
   15e24:	00978a1b          	addiw	s4,a5,9
   15e28:	01f00793          	li	a5,31
   15e2c:	0d47f263          	bgeu	a5,s4,15ef0 <_ldtoa_r+0xa50>
   15e30:	00100713          	li	a4,1
   15e34:	00400793          	li	a5,4
   15e38:	0017979b          	slliw	a5,a5,0x1
   15e3c:	01c78693          	addi	a3,a5,28
   15e40:	0007059b          	sext.w	a1,a4
   15e44:	0017071b          	addiw	a4,a4,1
   15e48:	feda78e3          	bgeu	s4,a3,15e38 <_ldtoa_r+0x998>
   15e4c:	06bb2423          	sw	a1,104(s6)
   15e50:	000b0513          	mv	a0,s6
   15e54:	624010ef          	jal	ra,17478 <_Balloc>
   15e58:	06ab3023          	sd	a0,96(s6)
   15e5c:	00090593          	mv	a1,s2
   15e60:	00050493          	mv	s1,a0
   15e64:	40d020ef          	jal	ra,18a70 <strcpy>
   15e68:	03013783          	ld	a5,48(sp)
   15e6c:	00078863          	beqz	a5,15e7c <_ldtoa_r+0x9dc>
   15e70:	41240433          	sub	s0,s0,s2
   15e74:	00848433          	add	s0,s1,s0
   15e78:	0087b023          	sd	s0,0(a5)
   15e7c:	25813083          	ld	ra,600(sp)
   15e80:	25013403          	ld	s0,592(sp)
   15e84:	00048513          	mv	a0,s1
   15e88:	24013903          	ld	s2,576(sp)
   15e8c:	24813483          	ld	s1,584(sp)
   15e90:	23813983          	ld	s3,568(sp)
   15e94:	23013a03          	ld	s4,560(sp)
   15e98:	22813a83          	ld	s5,552(sp)
   15e9c:	22013b03          	ld	s6,544(sp)
   15ea0:	21813b83          	ld	s7,536(sp)
   15ea4:	21013c03          	ld	s8,528(sp)
   15ea8:	20813c83          	ld	s9,520(sp)
   15eac:	20013d03          	ld	s10,512(sp)
   15eb0:	1f813d83          	ld	s11,504(sp)
   15eb4:	26010113          	addi	sp,sp,608
   15eb8:	00008067          	ret
   15ebc:	00813783          	ld	a5,8(sp)
   15ec0:	009784bb          	addw	s1,a5,s1
   15ec4:	4e04c063          	bltz	s1,163a4 <_ldtoa_r+0xf04>
   15ec8:	01813783          	ld	a5,24(sp)
   15ecc:	01013703          	ld	a4,16(sp)
   15ed0:	0007a783          	lw	a5,0(a5)
   15ed4:	00e787bb          	addw	a5,a5,a4
   15ed8:	00f13823          	sd	a5,16(sp)
   15edc:	01013783          	ld	a5,16(sp)
   15ee0:	060b2423          	sw	zero,104(s6)
   15ee4:	00378a1b          	addiw	s4,a5,3
   15ee8:	01f00793          	li	a5,31
   15eec:	f547e2e3          	bltu	a5,s4,15e30 <_ldtoa_r+0x990>
   15ef0:	00000593          	li	a1,0
   15ef4:	f5dff06f          	j	15e50 <_ldtoa_r+0x9b0>
   15ef8:	03000793          	li	a5,48
   15efc:	f2f710e3          	bne	a4,a5,15e1c <_ldtoa_r+0x97c>
   15f00:	412407b3          	sub	a5,s0,s2
   15f04:	00100693          	li	a3,1
   15f08:	eef6c6e3          	blt	a3,a5,15df4 <_ldtoa_r+0x954>
   15f0c:	f11ff06f          	j	15e1c <_ldtoa_r+0x97c>
   15f10:	01013783          	ld	a5,16(sp)
   15f14:	02a00713          	li	a4,42
   15f18:	00078c13          	mv	s8,a5
   15f1c:	00f75463          	bge	a4,a5,15f24 <_ldtoa_r+0xa84>
   15f20:	02a00c13          	li	s8,42
   15f24:	000c079b          	sext.w	a5,s8
   15f28:	00f13423          	sd	a5,8(sp)
   15f2c:	e34ff06f          	j	15560 <_ldtoa_r+0xc0>
   15f30:	01813703          	ld	a4,24(sp)
   15f34:	000027b7          	lui	a5,0x2
   15f38:	70f78793          	addi	a5,a5,1807 # 270f <register_fini-0xd9a1>
   15f3c:	00f72023          	sw	a5,0(a4)
   15f40:	e21ff06f          	j	15d60 <_ldtoa_r+0x8c0>
   15f44:	0e010a93          	addi	s5,sp,224
   15f48:	000a8713          	mv	a4,s5
   15f4c:	0a010793          	addi	a5,sp,160
   15f50:	0b410613          	addi	a2,sp,180
   15f54:	00278793          	addi	a5,a5,2
   15f58:	ffe7d683          	lhu	a3,-2(a5)
   15f5c:	00270713          	addi	a4,a4,2
   15f60:	fed71f23          	sh	a3,-2(a4)
   15f64:	fec798e3          	bne	a5,a2,15f54 <_ldtoa_r+0xab4>
   15f68:	000047b7          	lui	a5,0x4
   15f6c:	08e78793          	addi	a5,a5,142 # 408e <register_fini-0xc022>
   15f70:	0ef11923          	sh	a5,242(sp)
   15f74:	000087b7          	lui	a5,0x8
   15f78:	fff78793          	addi	a5,a5,-1 # 7fff <register_fini-0x80b1>
   15f7c:	02f13c23          	sd	a5,56(sp)
   15f80:	ffffc7b7          	lui	a5,0xffffc
   15f84:	0027879b          	addiw	a5,a5,2
   15f88:	01000d13          	li	s10,16
   15f8c:	00000493          	li	s1,0
   15f90:	0000bc17          	auipc	s8,0xb
   15f94:	520c0c13          	addi	s8,s8,1312 # 214b0 <etens+0xa0>
   15f98:	16010913          	addi	s2,sp,352
   15f9c:	1a010993          	addi	s3,sp,416
   15fa0:	10010413          	addi	s0,sp,256
   15fa4:	0d210a13          	addi	s4,sp,210
   15fa8:	04f12223          	sw	a5,68(sp)
   15fac:	07a10c93          	addi	s9,sp,122
   15fb0:	00098693          	mv	a3,s3
   15fb4:	0c010613          	addi	a2,sp,192
   15fb8:	000a8593          	mv	a1,s5
   15fbc:	000c0513          	mv	a0,s8
   15fc0:	e91fe0ef          	jal	ra,14e50 <ediv>
   15fc4:	06810713          	addi	a4,sp,104
   15fc8:	0c010793          	addi	a5,sp,192
   15fcc:	00278793          	addi	a5,a5,2 # ffffffffffffc002 <__BSS_END__+0xfffffffffffd8dfa>
   15fd0:	ffe7d683          	lhu	a3,-2(a5)
   15fd4:	00270713          	addi	a4,a4,2
   15fd8:	fed71f23          	sh	a3,-2(a4)
   15fdc:	ffb798e3          	bne	a5,s11,15fcc <_ldtoa_r+0xb2c>
   15fe0:	03813783          	ld	a5,56(sp)
   15fe4:	07a15503          	lhu	a0,122(sp)
   15fe8:	00f57833          	and	a6,a0,a5
   15fec:	04412783          	lw	a5,68(sp)
   15ff0:	00f807bb          	addw	a5,a6,a5
   15ff4:	00078893          	mv	a7,a5
   15ff8:	3cf05063          	blez	a5,163b8 <_ldtoa_r+0xf18>
   15ffc:	09000593          	li	a1,144
   16000:	40f5883b          	subw	a6,a1,a5
   16004:	00080593          	mv	a1,a6
   16008:	00040713          	mv	a4,s0
   1600c:	06810793          	addi	a5,sp,104
   16010:	07c10613          	addi	a2,sp,124
   16014:	00278793          	addi	a5,a5,2
   16018:	ffe7d683          	lhu	a3,-2(a5)
   1601c:	00270713          	addi	a4,a4,2
   16020:	fed71f23          	sh	a3,-2(a4)
   16024:	fec798e3          	bne	a5,a2,16014 <_ldtoa_r+0xb74>
   16028:	07005e63          	blez	a6,160a4 <_ldtoa_r+0xc04>
   1602c:	00f00793          	li	a5,15
   16030:	00040713          	mv	a4,s0
   16034:	0507d063          	bge	a5,a6,16074 <_ldtoa_r+0xbd4>
   16038:	ff05859b          	addiw	a1,a1,-16
   1603c:	0045d59b          	srliw	a1,a1,0x4
   16040:	02059713          	slli	a4,a1,0x20
   16044:	02075713          	srli	a4,a4,0x20
   16048:	00170713          	addi	a4,a4,1
   1604c:	00171713          	slli	a4,a4,0x1
   16050:	00e40733          	add	a4,s0,a4
   16054:	00040793          	mv	a5,s0
   16058:	00278793          	addi	a5,a5,2
   1605c:	fe079f23          	sh	zero,-2(a5)
   16060:	fee79ce3          	bne	a5,a4,16058 <_ldtoa_r+0xbb8>
   16064:	08000813          	li	a6,128
   16068:	4118083b          	subw	a6,a6,a7
   1606c:	0045959b          	slliw	a1,a1,0x4
   16070:	40b8083b          	subw	a6,a6,a1
   16074:	00181593          	slli	a1,a6,0x1
   16078:	0000b817          	auipc	a6,0xb
   1607c:	36880813          	addi	a6,a6,872 # 213e0 <ezero>
   16080:	00b805b3          	add	a1,a6,a1
   16084:	00075783          	lhu	a5,0(a4)
   16088:	2405d683          	lhu	a3,576(a1)
   1608c:	00d7f7b3          	and	a5,a5,a3
   16090:	00f71023          	sh	a5,0(a4)
   16094:	0105151b          	slliw	a0,a0,0x10
   16098:	4105551b          	sraiw	a0,a0,0x10
   1609c:	02051793          	slli	a5,a0,0x20
   160a0:	1607c063          	bltz	a5,16200 <_ldtoa_r+0xd60>
   160a4:	0c010793          	addi	a5,sp,192
   160a8:	00040713          	mv	a4,s0
   160ac:	0007d603          	lhu	a2,0(a5)
   160b0:	00075683          	lhu	a3,0(a4)
   160b4:	00278793          	addi	a5,a5,2
   160b8:	00270713          	addi	a4,a4,2
   160bc:	02d61463          	bne	a2,a3,160e4 <_ldtoa_r+0xc44>
   160c0:	fefa16e3          	bne	s4,a5,160ac <_ldtoa_r+0xc0c>
   160c4:	000a8713          	mv	a4,s5
   160c8:	0c010793          	addi	a5,sp,192
   160cc:	00278793          	addi	a5,a5,2
   160d0:	ffe7d683          	lhu	a3,-2(a5)
   160d4:	00270713          	addi	a4,a4,2
   160d8:	fed71f23          	sh	a3,-2(a4)
   160dc:	ffb798e3          	bne	a5,s11,160cc <_ldtoa_r+0xc2c>
   160e0:	009d04bb          	addw	s1,s10,s1
   160e4:	014c0c13          	addi	s8,s8,20
   160e8:	0000b797          	auipc	a5,0xb
   160ec:	42c78793          	addi	a5,a5,1068 # 21514 <etens+0x104>
   160f0:	001d5d13          	srli	s10,s10,0x1
   160f4:	eafc1ee3          	bne	s8,a5,15fb0 <_ldtoa_r+0xb10>
   160f8:	0f215783          	lhu	a5,242(sp)
   160fc:	0b215703          	lhu	a4,178(sp)
   16100:	0f410613          	addi	a2,sp,244
   16104:	00e787bb          	addw	a5,a5,a4
   16108:	ffffc737          	lui	a4,0xffffc
   1610c:	f727071b          	addiw	a4,a4,-142
   16110:	00e787bb          	addw	a5,a5,a4
   16114:	0ef11923          	sh	a5,242(sp)
   16118:	0a010713          	addi	a4,sp,160
   1611c:	000a8793          	mv	a5,s5
   16120:	00278793          	addi	a5,a5,2
   16124:	ffe7d683          	lhu	a3,-2(a5)
   16128:	00270713          	addi	a4,a4,2 # ffffffffffffc002 <__BSS_END__+0xfffffffffffd8dfa>
   1612c:	fed71f23          	sh	a3,-2(a4)
   16130:	fec798e3          	bne	a5,a2,16120 <_ldtoa_r+0xc80>
   16134:	00000693          	li	a3,0
   16138:	0c010793          	addi	a5,sp,192
   1613c:	0000b717          	auipc	a4,0xb
   16140:	2bc70713          	addi	a4,a4,700 # 213f8 <eone>
   16144:	0080006f          	j	1614c <_ldtoa_r+0xcac>
   16148:	00075683          	lhu	a3,0(a4)
   1614c:	00278793          	addi	a5,a5,2
   16150:	fed79f23          	sh	a3,-2(a5)
   16154:	00270713          	addi	a4,a4,2
   16158:	ffb798e3          	bne	a5,s11,16148 <_ldtoa_r+0xca8>
   1615c:	00001d37          	lui	s10,0x1
   16160:	0000bc97          	auipc	s9,0xb
   16164:	2b0c8c93          	addi	s9,s9,688 # 21410 <etens>
   16168:	0000bd97          	auipc	s11,0xb
   1616c:	398d8d93          	addi	s11,s11,920 # 21500 <etens+0xf0>
   16170:	0100006f          	j	16180 <_ldtoa_r+0xce0>
   16174:	001d5d13          	srli	s10,s10,0x1
   16178:	2dbc8663          	beq	s9,s11,16444 <_ldtoa_r+0xfa4>
   1617c:	014c8c93          	addi	s9,s9,20
   16180:	000a8593          	mv	a1,s5
   16184:	000d8513          	mv	a0,s11
   16188:	e2dfd0ef          	jal	ra,13fb4 <ecmp>
   1618c:	000a8593          	mv	a1,s5
   16190:	2aa04a63          	bgtz	a0,16444 <_ldtoa_r+0xfa4>
   16194:	000c8513          	mv	a0,s9
   16198:	e1dfd0ef          	jal	ra,13fb4 <ecmp>
   1619c:	fca04ce3          	bgtz	a0,16174 <_ldtoa_r+0xcd4>
   161a0:	00098693          	mv	a3,s3
   161a4:	000a8613          	mv	a2,s5
   161a8:	000a8593          	mv	a1,s5
   161ac:	000c8513          	mv	a0,s9
   161b0:	ca1fe0ef          	jal	ra,14e50 <ediv>
   161b4:	0c010613          	addi	a2,sp,192
   161b8:	00098693          	mv	a3,s3
   161bc:	00060593          	mv	a1,a2
   161c0:	000c8513          	mv	a0,s9
   161c4:	885fe0ef          	jal	ra,14a48 <emul>
   161c8:	009d04bb          	addw	s1,s10,s1
   161cc:	fa9ff06f          	j	16174 <_ldtoa_r+0xcd4>
   161d0:	1ec15783          	lhu	a5,492(sp)
   161d4:	16210c93          	addi	s9,sp,354
   161d8:	16310993          	addi	s3,sp,355
   161dc:	a61ff06f          	j	15c3c <_ldtoa_r+0x79c>
   161e0:	16010913          	addi	s2,sp,352
   161e4:	0000b597          	auipc	a1,0xb
   161e8:	46458593          	addi	a1,a1,1124 # 21648 <bmask+0x28>
   161ec:	00090513          	mv	a0,s2
   161f0:	000024b7          	lui	s1,0x2
   161f4:	578020ef          	jal	ra,1876c <sprintf>
   161f8:	70f48493          	addi	s1,s1,1807 # 270f <register_fini-0xd9a1>
   161fc:	ad9ff06f          	j	15cd4 <_ldtoa_r+0x834>
   16200:	06810793          	addi	a5,sp,104
   16204:	00040713          	mv	a4,s0
   16208:	0080006f          	j	16210 <_ldtoa_r+0xd70>
   1620c:	e8fc8ce3          	beq	s9,a5,160a4 <_ldtoa_r+0xc04>
   16210:	0007d603          	lhu	a2,0(a5)
   16214:	00075683          	lhu	a3,0(a4)
   16218:	00278793          	addi	a5,a5,2
   1621c:	00270713          	addi	a4,a4,2
   16220:	fed606e3          	beq	a2,a3,1620c <_ldtoa_r+0xd6c>
   16224:	11215783          	lhu	a5,274(sp)
   16228:	03813703          	ld	a4,56(sp)
   1622c:	00f777b3          	and	a5,a4,a5
   16230:	00e79e63          	bne	a5,a4,1624c <_ldtoa_r+0xdac>
   16234:	00040513          	mv	a0,s0
   16238:	be1fd0ef          	jal	ra,13e18 <eisnan.part.0>
   1623c:	e60514e3          	bnez	a0,160a4 <_ldtoa_r+0xc04>
   16240:	00040513          	mv	a0,s0
   16244:	e8dfd0ef          	jal	ra,140d0 <eisinf.part.1>
   16248:	e4051ee3          	bnez	a0,160a4 <_ldtoa_r+0xc04>
   1624c:	12010593          	addi	a1,sp,288
   16250:	0000b517          	auipc	a0,0xb
   16254:	1a850513          	addi	a0,a0,424 # 213f8 <eone>
   16258:	c71fd0ef          	jal	ra,13ec8 <emovi>
   1625c:	14010593          	addi	a1,sp,320
   16260:	00040513          	mv	a0,s0
   16264:	c65fd0ef          	jal	ra,13ec8 <emovi>
   16268:	12015503          	lhu	a0,288(sp)
   1626c:	14215803          	lhu	a6,322(sp)
   16270:	12215883          	lhu	a7,290(sp)
   16274:	fff54513          	not	a0,a0
   16278:	03051513          	slli	a0,a0,0x30
   1627c:	03055513          	srli	a0,a0,0x30
   16280:	12a11023          	sh	a0,288(sp)
   16284:	410885b3          	sub	a1,a7,a6
   16288:	00080693          	mv	a3,a6
   1628c:	06b05e63          	blez	a1,16308 <_ldtoa_r+0xe68>
   16290:	00090713          	mv	a4,s2
   16294:	14010793          	addi	a5,sp,320
   16298:	15810613          	addi	a2,sp,344
   1629c:	00278793          	addi	a5,a5,2
   162a0:	ffe7d683          	lhu	a3,-2(a5)
   162a4:	00270713          	addi	a4,a4,2
   162a8:	fed71f23          	sh	a3,-2(a4)
   162ac:	fec798e3          	bne	a5,a2,1629c <_ldtoa_r+0xdfc>
   162b0:	16011c23          	sh	zero,376(sp)
   162b4:	14010793          	addi	a5,sp,320
   162b8:	12010713          	addi	a4,sp,288
   162bc:	0080006f          	j	162c4 <_ldtoa_r+0xe24>
   162c0:	00075503          	lhu	a0,0(a4)
   162c4:	00278793          	addi	a5,a5,2
   162c8:	fea79f23          	sh	a0,-2(a5)
   162cc:	00270713          	addi	a4,a4,2
   162d0:	fec798e3          	bne	a5,a2,162c0 <_ldtoa_r+0xe20>
   162d4:	14011c23          	sh	zero,344(sp)
   162d8:	12010713          	addi	a4,sp,288
   162dc:	00090793          	mv	a5,s2
   162e0:	17810593          	addi	a1,sp,376
   162e4:	00278793          	addi	a5,a5,2
   162e8:	ffe7d683          	lhu	a3,-2(a5)
   162ec:	00270713          	addi	a4,a4,2
   162f0:	fed71f23          	sh	a3,-2(a4)
   162f4:	feb798e3          	bne	a5,a1,162e4 <_ldtoa_r+0xe44>
   162f8:	14215683          	lhu	a3,322(sp)
   162fc:	411805b3          	sub	a1,a6,a7
   16300:	12011c23          	sh	zero,312(sp)
   16304:	00068813          	mv	a6,a3
   16308:	30058c63          	beqz	a1,16620 <_ldtoa_r+0x1180>
   1630c:	04d13423          	sd	a3,72(sp)
   16310:	f6f00793          	li	a5,-145
   16314:	06f5ca63          	blt	a1,a5,16388 <_ldtoa_r+0xee8>
   16318:	0005859b          	sext.w	a1,a1
   1631c:	12010513          	addi	a0,sp,288
   16320:	dcdfd0ef          	jal	ra,140ec <eshift.part.3>
   16324:	04813683          	ld	a3,72(sp)
   16328:	00050593          	mv	a1,a0
   1632c:	15810613          	addi	a2,sp,344
   16330:	13810813          	addi	a6,sp,312
   16334:	12015703          	lhu	a4,288(sp)
   16338:	14015783          	lhu	a5,320(sp)
   1633c:	34f70063          	beq	a4,a5,1667c <_ldtoa_r+0x11dc>
   16340:	00000793          	li	a5,0
   16344:	00078713          	mv	a4,a5
   16348:	00065783          	lhu	a5,0(a2) # 8000 <register_fini-0x80b0>
   1634c:	00085503          	lhu	a0,0(a6)
   16350:	ffe60613          	addi	a2,a2,-2
   16354:	40e787b3          	sub	a5,a5,a4
   16358:	40a787b3          	sub	a5,a5,a0
   1635c:	00f61123          	sh	a5,2(a2)
   16360:	0107d793          	srli	a5,a5,0x10
   16364:	0017f713          	andi	a4,a5,1
   16368:	14210793          	addi	a5,sp,322
   1636c:	ffe80813          	addi	a6,a6,-2
   16370:	fcf61ce3          	bne	a2,a5,16348 <_ldtoa_r+0xea8>
   16374:	00100613          	li	a2,1
   16378:	00098793          	mv	a5,s3
   1637c:	04000713          	li	a4,64
   16380:	14010513          	addi	a0,sp,320
   16384:	898fe0ef          	jal	ra,1441c <emdnorm>
   16388:	00040593          	mv	a1,s0
   1638c:	14010513          	addi	a0,sp,320
   16390:	e08fe0ef          	jal	ra,14998 <emovo.isra.6>
   16394:	d11ff06f          	j	160a4 <_ldtoa_r+0xc04>
   16398:	01013783          	ld	a5,16(sp)
   1639c:	fff7879b          	addiw	a5,a5,-1
   163a0:	b75ff06f          	j	15f14 <_ldtoa_r+0xa74>
   163a4:	01813783          	ld	a5,24(sp)
   163a8:	16010023          	sb	zero,352(sp)
   163ac:	00090413          	mv	s0,s2
   163b0:	0007a023          	sw	zero,0(a5)
   163b4:	b29ff06f          	j	15edc <_ldtoa_r+0xa3c>
   163b8:	00040793          	mv	a5,s0
   163bc:	11410713          	addi	a4,sp,276
   163c0:	00278793          	addi	a5,a5,2
   163c4:	fe079f23          	sh	zero,-2(a5)
   163c8:	fee79ce3          	bne	a5,a4,163c0 <_ldtoa_r+0xf20>
   163cc:	cc9ff06f          	j	16094 <_ldtoa_r+0xbf4>
   163d0:	02013783          	ld	a5,32(sp)
   163d4:	16010913          	addi	s2,sp,352
   163d8:	0e078c63          	beqz	a5,164d0 <_ldtoa_r+0x1030>
   163dc:	0000b597          	auipc	a1,0xb
   163e0:	27458593          	addi	a1,a1,628 # 21650 <bmask+0x30>
   163e4:	00090513          	mv	a0,s2
   163e8:	000024b7          	lui	s1,0x2
   163ec:	380020ef          	jal	ra,1876c <sprintf>
   163f0:	70f48493          	addi	s1,s1,1807 # 270f <register_fini-0xd9a1>
   163f4:	8e1ff06f          	j	15cd4 <_ldtoa_r+0x834>
   163f8:	03100793          	li	a5,49
   163fc:	16f100a3          	sb	a5,353(sp)
   16400:	02e00793          	li	a5,46
   16404:	16f10123          	sb	a5,354(sp)
   16408:	0014849b          	addiw	s1,s1,1
   1640c:	02900413          	li	s0,41
   16410:	03000793          	li	a5,48
   16414:	16f101a3          	sb	a5,355(sp)
   16418:	16410c93          	addi	s9,sp,356
   1641c:	e3cff06f          	j	15a58 <_ldtoa_r+0x5b8>
   16420:	03100793          	li	a5,49
   16424:	16f100a3          	sb	a5,353(sp)
   16428:	02e00793          	li	a5,46
   1642c:	16f10123          	sb	a5,354(sp)
   16430:	0014849b          	addiw	s1,s1,1
   16434:	1e804263          	bgtz	s0,16618 <_ldtoa_r+0x1178>
   16438:	16310c93          	addi	s9,sp,355
   1643c:	880412e3          	bnez	s0,15cc0 <_ldtoa_r+0x820>
   16440:	e18ff06f          	j	15a58 <_ldtoa_r+0x5b8>
   16444:	11810a13          	addi	s4,sp,280
   16448:	b58ff06f          	j	157a0 <_ldtoa_r+0x300>
   1644c:	03100793          	li	a5,49
   16450:	fef98f23          	sb	a5,-2(s3)
   16454:	0014849b          	addiw	s1,s1,1
   16458:	869ff06f          	j	15cc0 <_ldtoa_r+0x820>
   1645c:	16010913          	addi	s2,sp,352
   16460:	0000b597          	auipc	a1,0xb
   16464:	21058593          	addi	a1,a1,528 # 21670 <bmask+0x50>
   16468:	00090513          	mv	a0,s2
   1646c:	000024b7          	lui	s1,0x2
   16470:	2fc020ef          	jal	ra,1876c <sprintf>
   16474:	70f48493          	addi	s1,s1,1807 # 270f <register_fini-0xd9a1>
   16478:	85dff06f          	j	15cd4 <_ldtoa_r+0x834>
   1647c:	0c010593          	addi	a1,sp,192
   16480:	0a010513          	addi	a0,sp,160
   16484:	d14fe0ef          	jal	ra,14998 <emovo.isra.6>
   16488:	0000b597          	auipc	a1,0xb
   1648c:	f5858593          	addi	a1,a1,-168 # 213e0 <ezero>
   16490:	0c010513          	addi	a0,sp,192
   16494:	b21fd0ef          	jal	ra,13fb4 <ecmp>
   16498:	fa051a63          	bnez	a0,15c4c <_ldtoa_r+0x7ac>
   1649c:	820442e3          	bltz	s0,15cc0 <_ldtoa_r+0x820>
   164a0:	ffe9c783          	lbu	a5,-2(s3)
   164a4:	fd278713          	addi	a4,a5,-46
   164a8:	00173713          	seqz	a4,a4
   164ac:	fff74713          	not	a4,a4
   164b0:	00ec8733          	add	a4,s9,a4
   164b4:	00074703          	lbu	a4,0(a4)
   164b8:	00177713          	andi	a4,a4,1
   164bc:	800702e3          	beqz	a4,15cc0 <_ldtoa_r+0x820>
   164c0:	07f7f793          	andi	a5,a5,127
   164c4:	ffe98713          	addi	a4,s3,-2
   164c8:	0007881b          	sext.w	a6,a5
   164cc:	f94ff06f          	j	15c60 <_ldtoa_r+0x7c0>
   164d0:	0000b597          	auipc	a1,0xb
   164d4:	19058593          	addi	a1,a1,400 # 21660 <bmask+0x40>
   164d8:	00090513          	mv	a0,s2
   164dc:	000024b7          	lui	s1,0x2
   164e0:	28c020ef          	jal	ra,1876c <sprintf>
   164e4:	70f48493          	addi	s1,s1,1807 # 270f <register_fini-0xd9a1>
   164e8:	fecff06f          	j	15cd4 <_ldtoa_r+0x834>
   164ec:	0017879b          	addiw	a5,a5,1
   164f0:	fef70fa3          	sb	a5,-1(a4)
   164f4:	fccff06f          	j	15cc0 <_ldtoa_r+0x820>
   164f8:	10010413          	addi	s0,sp,256
   164fc:	00040593          	mv	a1,s0
   16500:	0a010513          	addi	a0,sp,160
   16504:	00004ab7          	lui	s5,0x4
   16508:	9c1fd0ef          	jal	ra,13ec8 <emovi>
   1650c:	00000493          	li	s1,0
   16510:	11810a13          	addi	s4,sp,280
   16514:	0f810913          	addi	s2,sp,248
   16518:	10210993          	addi	s3,sp,258
   1651c:	ffea8a93          	addi	s5,s5,-2 # 3ffe <register_fini-0xc0b2>
   16520:	fd500c93          	li	s9,-43
   16524:	11815783          	lhu	a5,280(sp)
   16528:	0077f793          	andi	a5,a5,7
   1652c:	0c079863          	bnez	a5,165fc <_ldtoa_r+0x115c>
   16530:	0e010713          	addi	a4,sp,224
   16534:	00040793          	mv	a5,s0
   16538:	00278793          	addi	a5,a5,2
   1653c:	ffe7d683          	lhu	a3,-2(a5)
   16540:	00270713          	addi	a4,a4,2
   16544:	fed71f23          	sh	a3,-2(a4)
   16548:	ff4798e3          	bne	a5,s4,16538 <_ldtoa_r+0x1098>
   1654c:	0e010513          	addi	a0,sp,224
   16550:	0e011c23          	sh	zero,248(sp)
   16554:	f08fd0ef          	jal	ra,13c5c <eshdn1>
   16558:	0e010513          	addi	a0,sp,224
   1655c:	f00fd0ef          	jal	ra,13c5c <eshdn1>
   16560:	00000613          	li	a2,0
   16564:	00090693          	mv	a3,s2
   16568:	000a0713          	mv	a4,s4
   1656c:	0006d583          	lhu	a1,0(a3)
   16570:	00075783          	lhu	a5,0(a4)
   16574:	ffe68693          	addi	a3,a3,-2
   16578:	ffe70713          	addi	a4,a4,-2
   1657c:	00b787b3          	add	a5,a5,a1
   16580:	00c787b3          	add	a5,a5,a2
   16584:	00f69123          	sh	a5,2(a3)
   16588:	0107d793          	srli	a5,a5,0x10
   1658c:	0017f613          	andi	a2,a5,1
   16590:	fd371ee3          	bne	a4,s3,1656c <_ldtoa_r+0x10cc>
   16594:	0e215783          	lhu	a5,226(sp)
   16598:	0e415703          	lhu	a4,228(sp)
   1659c:	0037879b          	addiw	a5,a5,3
   165a0:	0ef11123          	sh	a5,226(sp)
   165a4:	02070063          	beqz	a4,165c4 <_ldtoa_r+0x1124>
   165a8:	0e010513          	addi	a0,sp,224
   165ac:	eb0fd0ef          	jal	ra,13c5c <eshdn1>
   165b0:	0e215783          	lhu	a5,226(sp)
   165b4:	0e415703          	lhu	a4,228(sp)
   165b8:	0017879b          	addiw	a5,a5,1
   165bc:	0ef11123          	sh	a5,226(sp)
   165c0:	fe0714e3          	bnez	a4,165a8 <_ldtoa_r+0x1108>
   165c4:	0f815783          	lhu	a5,248(sp)
   165c8:	02079a63          	bnez	a5,165fc <_ldtoa_r+0x115c>
   165cc:	0e215783          	lhu	a5,226(sp)
   165d0:	02fae663          	bltu	s5,a5,165fc <_ldtoa_r+0x115c>
   165d4:	00040713          	mv	a4,s0
   165d8:	0e010793          	addi	a5,sp,224
   165dc:	00278793          	addi	a5,a5,2
   165e0:	ffe7d683          	lhu	a3,-2(a5)
   165e4:	00270713          	addi	a4,a4,2
   165e8:	fed71f23          	sh	a3,-2(a4)
   165ec:	ff2798e3          	bne	a5,s2,165dc <_ldtoa_r+0x113c>
   165f0:	10011c23          	sh	zero,280(sp)
   165f4:	fff4849b          	addiw	s1,s1,-1
   165f8:	f39496e3          	bne	s1,s9,16524 <_ldtoa_r+0x1084>
   165fc:	0a010593          	addi	a1,sp,160
   16600:	00040513          	mv	a0,s0
   16604:	b94fe0ef          	jal	ra,14998 <emovo.isra.6>
   16608:	1a010993          	addi	s3,sp,416
   1660c:	874ff06f          	j	15680 <_ldtoa_r+0x1e0>
   16610:	00090793          	mv	a5,s2
   16614:	f48ff06f          	j	15d5c <_ldtoa_r+0x8bc>
   16618:	fff4041b          	addiw	s0,s0,-1
   1661c:	df5ff06f          	j	16410 <_ldtoa_r+0xf70>
   16620:	14410713          	addi	a4,sp,324
   16624:	12410793          	addi	a5,sp,292
   16628:	00278793          	addi	a5,a5,2
   1662c:	00270713          	addi	a4,a4,2
   16630:	ffe7d583          	lhu	a1,-2(a5)
   16634:	ffe75603          	lhu	a2,-2(a4)
   16638:	02c59863          	bne	a1,a2,16668 <_ldtoa_r+0x11c8>
   1663c:	13a10613          	addi	a2,sp,314
   16640:	fec794e3          	bne	a5,a2,16628 <_ldtoa_r+0x1188>
   16644:	12015703          	lhu	a4,288(sp)
   16648:	14015783          	lhu	a5,320(sp)
   1664c:	06f70663          	beq	a4,a5,166b8 <_ldtoa_r+0x1218>
   16650:	00040793          	mv	a5,s0
   16654:	11410713          	addi	a4,sp,276
   16658:	00278793          	addi	a5,a5,2
   1665c:	fe079f23          	sh	zero,-2(a5)
   16660:	fee79ce3          	bne	a5,a4,16658 <_ldtoa_r+0x11b8>
   16664:	a41ff06f          	j	160a4 <_ldtoa_r+0xc04>
   16668:	0cb66c63          	bltu	a2,a1,16740 <_ldtoa_r+0x12a0>
   1666c:	00000593          	li	a1,0
   16670:	15810613          	addi	a2,sp,344
   16674:	13810813          	addi	a6,sp,312
   16678:	cbdff06f          	j	16334 <_ldtoa_r+0xe94>
   1667c:	00000713          	li	a4,0
   16680:	00080793          	mv	a5,a6
   16684:	12210893          	addi	a7,sp,290
   16688:	00065803          	lhu	a6,0(a2)
   1668c:	0007d503          	lhu	a0,0(a5)
   16690:	ffe60613          	addi	a2,a2,-2
   16694:	ffe78793          	addi	a5,a5,-2
   16698:	01050533          	add	a0,a0,a6
   1669c:	00e50733          	add	a4,a0,a4
   166a0:	00e61123          	sh	a4,2(a2)
   166a4:	01075713          	srli	a4,a4,0x10
   166a8:	00177713          	andi	a4,a4,1
   166ac:	fd179ee3          	bne	a5,a7,16688 <_ldtoa_r+0x11e8>
   166b0:	00000613          	li	a2,0
   166b4:	cc5ff06f          	j	16378 <_ldtoa_r+0xed8>
   166b8:	00068793          	mv	a5,a3
   166bc:	06069463          	bnez	a3,16724 <_ldtoa_r+0x1284>
   166c0:	14611703          	lh	a4,326(sp)
   166c4:	06074063          	bltz	a4,16724 <_ldtoa_r+0x1284>
   166c8:	15810693          	addi	a3,sp,344
   166cc:	0200006f          	j	166ec <_ldtoa_r+0x124c>
   166d0:	00e69023          	sh	a4,0(a3)
   166d4:	0017979b          	slliw	a5,a5,0x1
   166d8:	03079793          	slli	a5,a5,0x30
   166dc:	ffe68693          	addi	a3,a3,-2
   166e0:	14210713          	addi	a4,sp,322
   166e4:	0307d793          	srli	a5,a5,0x30
   166e8:	cae680e3          	beq	a3,a4,16388 <_ldtoa_r+0xee8>
   166ec:	0006d703          	lhu	a4,0(a3)
   166f0:	0107161b          	slliw	a2,a4,0x10
   166f4:	4106561b          	sraiw	a2,a2,0x10
   166f8:	02061593          	slli	a1,a2,0x20
   166fc:	0017171b          	slliw	a4,a4,0x1
   16700:	0005d463          	bgez	a1,16708 <_ldtoa_r+0x1268>
   16704:	0017e793          	ori	a5,a5,1
   16708:	03071713          	slli	a4,a4,0x30
   1670c:	03075713          	srli	a4,a4,0x30
   16710:	0027f613          	andi	a2,a5,2
   16714:	00176593          	ori	a1,a4,1
   16718:	fa060ce3          	beqz	a2,166d0 <_ldtoa_r+0x1230>
   1671c:	00b69023          	sh	a1,0(a3)
   16720:	fb5ff06f          	j	166d4 <_ldtoa_r+0x1234>
   16724:	14410713          	addi	a4,sp,324
   16728:	15810613          	addi	a2,sp,344
   1672c:	08079463          	bnez	a5,167b4 <_ldtoa_r+0x1314>
   16730:	08e60463          	beq	a2,a4,167b8 <_ldtoa_r+0x1318>
   16734:	00075783          	lhu	a5,0(a4)
   16738:	00270713          	addi	a4,a4,2
   1673c:	ff1ff06f          	j	1672c <_ldtoa_r+0x128c>
   16740:	00090713          	mv	a4,s2
   16744:	14010793          	addi	a5,sp,320
   16748:	15810613          	addi	a2,sp,344
   1674c:	00278793          	addi	a5,a5,2
   16750:	ffe7d583          	lhu	a1,-2(a5)
   16754:	00270713          	addi	a4,a4,2
   16758:	feb71f23          	sh	a1,-2(a4)
   1675c:	fec798e3          	bne	a5,a2,1674c <_ldtoa_r+0x12ac>
   16760:	16011c23          	sh	zero,376(sp)
   16764:	14010713          	addi	a4,sp,320
   16768:	12010793          	addi	a5,sp,288
   1676c:	13810813          	addi	a6,sp,312
   16770:	00278793          	addi	a5,a5,2
   16774:	ffe7d583          	lhu	a1,-2(a5)
   16778:	00270713          	addi	a4,a4,2
   1677c:	feb71f23          	sh	a1,-2(a4)
   16780:	ff0798e3          	bne	a5,a6,16770 <_ldtoa_r+0x12d0>
   16784:	14011c23          	sh	zero,344(sp)
   16788:	12010713          	addi	a4,sp,288
   1678c:	00090793          	mv	a5,s2
   16790:	17810593          	addi	a1,sp,376
   16794:	00278793          	addi	a5,a5,2
   16798:	ffe7d503          	lhu	a0,-2(a5)
   1679c:	00270713          	addi	a4,a4,2
   167a0:	fea71f23          	sh	a0,-2(a4)
   167a4:	feb798e3          	bne	a5,a1,16794 <_ldtoa_r+0x12f4>
   167a8:	12011c23          	sh	zero,312(sp)
   167ac:	00000593          	li	a1,0
   167b0:	b85ff06f          	j	16334 <_ldtoa_r+0xe94>
   167b4:	00168813          	addi	a6,a3,1
   167b8:	15011123          	sh	a6,322(sp)
   167bc:	bcdff06f          	j	16388 <_ldtoa_r+0xee8>

00000000000167c0 <_ldcheck>:
   167c0:	00053703          	ld	a4,0(a0)
   167c4:	00853783          	ld	a5,8(a0)
   167c8:	fc010113          	addi	sp,sp,-64
   167cc:	00010513          	mv	a0,sp
   167d0:	01010593          	addi	a1,sp,16
   167d4:	00e13023          	sd	a4,0(sp)
   167d8:	00f13423          	sd	a5,8(sp)
   167dc:	02113c23          	sd	ra,56(sp)
   167e0:	b79fe0ef          	jal	ra,15358 <e113toe.isra.8>
   167e4:	02215783          	lhu	a5,34(sp)
   167e8:	00000513          	li	a0,0
   167ec:	fff7c793          	not	a5,a5
   167f0:	03179713          	slli	a4,a5,0x31
   167f4:	00071a63          	bnez	a4,16808 <_ldcheck+0x48>
   167f8:	01010513          	addi	a0,sp,16
   167fc:	e1cfd0ef          	jal	ra,13e18 <eisnan.part.0>
   16800:	00153513          	seqz	a0,a0
   16804:	00150513          	addi	a0,a0,1
   16808:	03813083          	ld	ra,56(sp)
   1680c:	04010113          	addi	sp,sp,64
   16810:	00008067          	ret

0000000000016814 <__localeconv_l>:
   16814:	10050513          	addi	a0,a0,256
   16818:	00008067          	ret

000000000001681c <_localeconv_r>:
   1681c:	e6018513          	addi	a0,gp,-416 # 22868 <__global_locale+0x100>
   16820:	00008067          	ret

0000000000016824 <localeconv>:
   16824:	e6018513          	addi	a0,gp,-416 # 22868 <__global_locale+0x100>
   16828:	00008067          	ret

000000000001682c <_setlocale_r>:
   1682c:	04060063          	beqz	a2,1686c <_setlocale_r+0x40>
   16830:	ff010113          	addi	sp,sp,-16
   16834:	0000b597          	auipc	a1,0xb
   16838:	e5458593          	addi	a1,a1,-428 # 21688 <bmask+0x68>
   1683c:	00060513          	mv	a0,a2
   16840:	00813023          	sd	s0,0(sp)
   16844:	00113423          	sd	ra,8(sp)
   16848:	00060413          	mv	s0,a2
   1684c:	0f8020ef          	jal	ra,18944 <strcmp>
   16850:	02051463          	bnez	a0,16878 <_setlocale_r+0x4c>
   16854:	0000b517          	auipc	a0,0xb
   16858:	e2c50513          	addi	a0,a0,-468 # 21680 <bmask+0x60>
   1685c:	00813083          	ld	ra,8(sp)
   16860:	00013403          	ld	s0,0(sp)
   16864:	01010113          	addi	sp,sp,16
   16868:	00008067          	ret
   1686c:	0000b517          	auipc	a0,0xb
   16870:	e1450513          	addi	a0,a0,-492 # 21680 <bmask+0x60>
   16874:	00008067          	ret
   16878:	0000b597          	auipc	a1,0xb
   1687c:	e0858593          	addi	a1,a1,-504 # 21680 <bmask+0x60>
   16880:	00040513          	mv	a0,s0
   16884:	0c0020ef          	jal	ra,18944 <strcmp>
   16888:	fc0506e3          	beqz	a0,16854 <_setlocale_r+0x28>
   1688c:	0000b597          	auipc	a1,0xb
   16890:	b3c58593          	addi	a1,a1,-1220 # 213c8 <zeroes.4539+0x90>
   16894:	00040513          	mv	a0,s0
   16898:	0ac020ef          	jal	ra,18944 <strcmp>
   1689c:	fa050ce3          	beqz	a0,16854 <_setlocale_r+0x28>
   168a0:	00000513          	li	a0,0
   168a4:	fb9ff06f          	j	1685c <_setlocale_r+0x30>

00000000000168a8 <__locale_mb_cur_max>:
   168a8:	ec01c503          	lbu	a0,-320(gp) # 228c8 <__global_locale+0x160>
   168ac:	00008067          	ret

00000000000168b0 <setlocale>:
   168b0:	75818793          	addi	a5,gp,1880 # 23160 <_impure_ptr>
   168b4:	00058613          	mv	a2,a1
   168b8:	00050593          	mv	a1,a0
   168bc:	0007b503          	ld	a0,0(a5)
   168c0:	f6dff06f          	j	1682c <_setlocale_r>

00000000000168c4 <__swhatbuf_r>:
   168c4:	f7010113          	addi	sp,sp,-144
   168c8:	08813023          	sd	s0,128(sp)
   168cc:	00058413          	mv	s0,a1
   168d0:	01259583          	lh	a1,18(a1)
   168d4:	06913c23          	sd	s1,120(sp)
   168d8:	07213823          	sd	s2,112(sp)
   168dc:	08113423          	sd	ra,136(sp)
   168e0:	00060493          	mv	s1,a2
   168e4:	00068913          	mv	s2,a3
   168e8:	0405ca63          	bltz	a1,1693c <__swhatbuf_r+0x78>
   168ec:	00810613          	addi	a2,sp,8
   168f0:	3e0060ef          	jal	ra,1ccd0 <_fstat_r>
   168f4:	04054463          	bltz	a0,1693c <__swhatbuf_r+0x78>
   168f8:	00c12783          	lw	a5,12(sp)
   168fc:	0000f737          	lui	a4,0xf
   16900:	08813083          	ld	ra,136(sp)
   16904:	00e7f7b3          	and	a5,a5,a4
   16908:	00002737          	lui	a4,0x2
   1690c:	40e787b3          	sub	a5,a5,a4
   16910:	0017b793          	seqz	a5,a5
   16914:	08013403          	ld	s0,128(sp)
   16918:	00f92023          	sw	a5,0(s2) # fffffffffffff000 <__BSS_END__+0xfffffffffffdbdf8>
   1691c:	40000793          	li	a5,1024
   16920:	00f4b023          	sd	a5,0(s1)
   16924:	00001537          	lui	a0,0x1
   16928:	07813483          	ld	s1,120(sp)
   1692c:	07013903          	ld	s2,112(sp)
   16930:	80050513          	addi	a0,a0,-2048 # 800 <register_fini-0xf8b0>
   16934:	09010113          	addi	sp,sp,144
   16938:	00008067          	ret
   1693c:	01045783          	lhu	a5,16(s0)
   16940:	00092023          	sw	zero,0(s2)
   16944:	0807f793          	andi	a5,a5,128
   16948:	02078463          	beqz	a5,16970 <__swhatbuf_r+0xac>
   1694c:	08813083          	ld	ra,136(sp)
   16950:	08013403          	ld	s0,128(sp)
   16954:	04000793          	li	a5,64
   16958:	00f4b023          	sd	a5,0(s1)
   1695c:	07013903          	ld	s2,112(sp)
   16960:	07813483          	ld	s1,120(sp)
   16964:	00000513          	li	a0,0
   16968:	09010113          	addi	sp,sp,144
   1696c:	00008067          	ret
   16970:	08813083          	ld	ra,136(sp)
   16974:	08013403          	ld	s0,128(sp)
   16978:	40000793          	li	a5,1024
   1697c:	00f4b023          	sd	a5,0(s1)
   16980:	07013903          	ld	s2,112(sp)
   16984:	07813483          	ld	s1,120(sp)
   16988:	00000513          	li	a0,0
   1698c:	09010113          	addi	sp,sp,144
   16990:	00008067          	ret

0000000000016994 <__smakebuf_r>:
   16994:	0105d703          	lhu	a4,16(a1)
   16998:	fd010113          	addi	sp,sp,-48
   1699c:	02813023          	sd	s0,32(sp)
   169a0:	02113423          	sd	ra,40(sp)
   169a4:	00913c23          	sd	s1,24(sp)
   169a8:	01213823          	sd	s2,16(sp)
   169ac:	00277713          	andi	a4,a4,2
   169b0:	00058413          	mv	s0,a1
   169b4:	02070863          	beqz	a4,169e4 <__smakebuf_r+0x50>
   169b8:	07758713          	addi	a4,a1,119
   169bc:	00e5b023          	sd	a4,0(a1)
   169c0:	00e5bc23          	sd	a4,24(a1)
   169c4:	00100713          	li	a4,1
   169c8:	02e5a023          	sw	a4,32(a1)
   169cc:	02813083          	ld	ra,40(sp)
   169d0:	02013403          	ld	s0,32(sp)
   169d4:	01813483          	ld	s1,24(sp)
   169d8:	01013903          	ld	s2,16(sp)
   169dc:	03010113          	addi	sp,sp,48
   169e0:	00008067          	ret
   169e4:	00410693          	addi	a3,sp,4
   169e8:	00810613          	addi	a2,sp,8
   169ec:	00050493          	mv	s1,a0
   169f0:	ed5ff0ef          	jal	ra,168c4 <__swhatbuf_r>
   169f4:	00813583          	ld	a1,8(sp)
   169f8:	00050913          	mv	s2,a0
   169fc:	00048513          	mv	a0,s1
   16a00:	0b4000ef          	jal	ra,16ab4 <_malloc_r>
   16a04:	01041783          	lh	a5,16(s0)
   16a08:	04050863          	beqz	a0,16a58 <__smakebuf_r+0xc4>
   16a0c:	ffffd697          	auipc	a3,0xffffd
   16a10:	8b868693          	addi	a3,a3,-1864 # 132c4 <_cleanup_r>
   16a14:	04d4bc23          	sd	a3,88(s1)
   16a18:	00813683          	ld	a3,8(sp)
   16a1c:	00412703          	lw	a4,4(sp)
   16a20:	0807e793          	ori	a5,a5,128
   16a24:	00f41823          	sh	a5,16(s0)
   16a28:	00a43023          	sd	a0,0(s0)
   16a2c:	00a43c23          	sd	a0,24(s0)
   16a30:	02d42023          	sw	a3,32(s0)
   16a34:	04071863          	bnez	a4,16a84 <__smakebuf_r+0xf0>
   16a38:	0127e7b3          	or	a5,a5,s2
   16a3c:	00f41823          	sh	a5,16(s0)
   16a40:	02813083          	ld	ra,40(sp)
   16a44:	02013403          	ld	s0,32(sp)
   16a48:	01813483          	ld	s1,24(sp)
   16a4c:	01013903          	ld	s2,16(sp)
   16a50:	03010113          	addi	sp,sp,48
   16a54:	00008067          	ret
   16a58:	2007f713          	andi	a4,a5,512
   16a5c:	f60718e3          	bnez	a4,169cc <__smakebuf_r+0x38>
   16a60:	ffc7f793          	andi	a5,a5,-4
   16a64:	0027e793          	ori	a5,a5,2
   16a68:	07740713          	addi	a4,s0,119
   16a6c:	00f41823          	sh	a5,16(s0)
   16a70:	00100793          	li	a5,1
   16a74:	00e43023          	sd	a4,0(s0)
   16a78:	00e43c23          	sd	a4,24(s0)
   16a7c:	02f42023          	sw	a5,32(s0)
   16a80:	f4dff06f          	j	169cc <__smakebuf_r+0x38>
   16a84:	01241583          	lh	a1,18(s0)
   16a88:	00048513          	mv	a0,s1
   16a8c:	770060ef          	jal	ra,1d1fc <_isatty_r>
   16a90:	00051663          	bnez	a0,16a9c <__smakebuf_r+0x108>
   16a94:	01041783          	lh	a5,16(s0)
   16a98:	fa1ff06f          	j	16a38 <__smakebuf_r+0xa4>
   16a9c:	01045783          	lhu	a5,16(s0)
   16aa0:	ffc7f793          	andi	a5,a5,-4
   16aa4:	0017e793          	ori	a5,a5,1
   16aa8:	0107979b          	slliw	a5,a5,0x10
   16aac:	4107d79b          	sraiw	a5,a5,0x10
   16ab0:	f89ff06f          	j	16a38 <__smakebuf_r+0xa4>

0000000000016ab4 <_malloc_r>:
   16ab4:	fa010113          	addi	sp,sp,-96
   16ab8:	04913423          	sd	s1,72(sp)
   16abc:	05213023          	sd	s2,64(sp)
   16ac0:	04113c23          	sd	ra,88(sp)
   16ac4:	04813823          	sd	s0,80(sp)
   16ac8:	03313c23          	sd	s3,56(sp)
   16acc:	03413823          	sd	s4,48(sp)
   16ad0:	03513423          	sd	s5,40(sp)
   16ad4:	03613023          	sd	s6,32(sp)
   16ad8:	01713c23          	sd	s7,24(sp)
   16adc:	01813823          	sd	s8,16(sp)
   16ae0:	01913423          	sd	s9,8(sp)
   16ae4:	01758493          	addi	s1,a1,23
   16ae8:	02e00793          	li	a5,46
   16aec:	00050913          	mv	s2,a0
   16af0:	0a97e663          	bltu	a5,s1,16b9c <_malloc_r+0xe8>
   16af4:	02000793          	li	a5,32
   16af8:	06b7e263          	bltu	a5,a1,16b5c <_malloc_r+0xa8>
   16afc:	175000ef          	jal	ra,17470 <__malloc_lock>
   16b00:	02000493          	li	s1,32
   16b04:	05000793          	li	a5,80
   16b08:	00400613          	li	a2,4
   16b0c:	0000c997          	auipc	s3,0xc
   16b10:	e0498993          	addi	s3,s3,-508 # 22910 <__malloc_av_>
   16b14:	00f987b3          	add	a5,s3,a5
   16b18:	0087b403          	ld	s0,8(a5)
   16b1c:	ff078713          	addi	a4,a5,-16
   16b20:	2ae40063          	beq	s0,a4,16dc0 <_malloc_r+0x30c>
   16b24:	00843783          	ld	a5,8(s0)
   16b28:	01843683          	ld	a3,24(s0)
   16b2c:	01043603          	ld	a2,16(s0)
   16b30:	ffc7f793          	andi	a5,a5,-4
   16b34:	00f407b3          	add	a5,s0,a5
   16b38:	0087b703          	ld	a4,8(a5)
   16b3c:	00d63c23          	sd	a3,24(a2)
   16b40:	00c6b823          	sd	a2,16(a3)
   16b44:	00176713          	ori	a4,a4,1
   16b48:	00090513          	mv	a0,s2
   16b4c:	00e7b423          	sd	a4,8(a5)
   16b50:	125000ef          	jal	ra,17474 <__malloc_unlock>
   16b54:	01040513          	addi	a0,s0,16
   16b58:	0100006f          	j	16b68 <_malloc_r+0xb4>
   16b5c:	00c00793          	li	a5,12
   16b60:	00f92023          	sw	a5,0(s2)
   16b64:	00000513          	li	a0,0
   16b68:	05813083          	ld	ra,88(sp)
   16b6c:	05013403          	ld	s0,80(sp)
   16b70:	04813483          	ld	s1,72(sp)
   16b74:	04013903          	ld	s2,64(sp)
   16b78:	03813983          	ld	s3,56(sp)
   16b7c:	03013a03          	ld	s4,48(sp)
   16b80:	02813a83          	ld	s5,40(sp)
   16b84:	02013b03          	ld	s6,32(sp)
   16b88:	01813b83          	ld	s7,24(sp)
   16b8c:	01013c03          	ld	s8,16(sp)
   16b90:	00813c83          	ld	s9,8(sp)
   16b94:	06010113          	addi	sp,sp,96
   16b98:	00008067          	ret
   16b9c:	800007b7          	lui	a5,0x80000
   16ba0:	ff04f493          	andi	s1,s1,-16
   16ba4:	fff7c793          	not	a5,a5
   16ba8:	fa97eae3          	bltu	a5,s1,16b5c <_malloc_r+0xa8>
   16bac:	fab4e8e3          	bltu	s1,a1,16b5c <_malloc_r+0xa8>
   16bb0:	0c1000ef          	jal	ra,17470 <__malloc_lock>
   16bb4:	1f700793          	li	a5,503
   16bb8:	4c97f263          	bgeu	a5,s1,1707c <_malloc_r+0x5c8>
   16bbc:	0094d793          	srli	a5,s1,0x9
   16bc0:	36078863          	beqz	a5,16f30 <_malloc_r+0x47c>
   16bc4:	00400713          	li	a4,4
   16bc8:	42f76c63          	bltu	a4,a5,17000 <_malloc_r+0x54c>
   16bcc:	0064d513          	srli	a0,s1,0x6
   16bd0:	0005051b          	sext.w	a0,a0
   16bd4:	0395061b          	addiw	a2,a0,57
   16bd8:	0016169b          	slliw	a3,a2,0x1
   16bdc:	0385051b          	addiw	a0,a0,56
   16be0:	00369693          	slli	a3,a3,0x3
   16be4:	0000c997          	auipc	s3,0xc
   16be8:	d2c98993          	addi	s3,s3,-724 # 22910 <__malloc_av_>
   16bec:	00d986b3          	add	a3,s3,a3
   16bf0:	0086b403          	ld	s0,8(a3)
   16bf4:	ff068693          	addi	a3,a3,-16
   16bf8:	1c868a63          	beq	a3,s0,16dcc <_malloc_r+0x318>
   16bfc:	00843783          	ld	a5,8(s0)
   16c00:	01f00593          	li	a1,31
   16c04:	ffc7f793          	andi	a5,a5,-4
   16c08:	40978733          	sub	a4,a5,s1
   16c0c:	02e5c063          	blt	a1,a4,16c2c <_malloc_r+0x178>
   16c10:	36075e63          	bgez	a4,16f8c <_malloc_r+0x4d8>
   16c14:	01843403          	ld	s0,24(s0)
   16c18:	1a868a63          	beq	a3,s0,16dcc <_malloc_r+0x318>
   16c1c:	00843783          	ld	a5,8(s0)
   16c20:	ffc7f793          	andi	a5,a5,-4
   16c24:	40978733          	sub	a4,a5,s1
   16c28:	fee5d4e3          	bge	a1,a4,16c10 <_malloc_r+0x15c>
   16c2c:	0209b403          	ld	s0,32(s3)
   16c30:	0000c817          	auipc	a6,0xc
   16c34:	cf080813          	addi	a6,a6,-784 # 22920 <__malloc_av_+0x10>
   16c38:	00050613          	mv	a2,a0
   16c3c:	1b041063          	bne	s0,a6,16ddc <_malloc_r+0x328>
   16c40:	0089b783          	ld	a5,8(s3)
   16c44:	4026571b          	sraiw	a4,a2,0x2
   16c48:	00100693          	li	a3,1
   16c4c:	00e696b3          	sll	a3,a3,a4
   16c50:	20d7fc63          	bgeu	a5,a3,16e68 <_malloc_r+0x3b4>
   16c54:	0109b403          	ld	s0,16(s3)
   16c58:	00843a03          	ld	s4,8(s0)
   16c5c:	ffca7a93          	andi	s5,s4,-4
   16c60:	009ae863          	bltu	s5,s1,16c70 <_malloc_r+0x1bc>
   16c64:	409a87b3          	sub	a5,s5,s1
   16c68:	01f00713          	li	a4,31
   16c6c:	2ef74a63          	blt	a4,a5,16f60 <_malloc_r+0x4ac>
   16c70:	78818793          	addi	a5,gp,1928 # 23190 <__malloc_top_pad>
   16c74:	76018c13          	addi	s8,gp,1888 # 23168 <__malloc_sbrk_base>
   16c78:	0007ba03          	ld	s4,0(a5) # ffffffff80000000 <__BSS_END__+0xffffffff7ffdcdf8>
   16c7c:	000c3703          	ld	a4,0(s8)
   16c80:	fff00793          	li	a5,-1
   16c84:	01540bb3          	add	s7,s0,s5
   16c88:	01448a33          	add	s4,s1,s4
   16c8c:	4cf70263          	beq	a4,a5,17150 <_malloc_r+0x69c>
   16c90:	000017b7          	lui	a5,0x1
   16c94:	01f78793          	addi	a5,a5,31 # 101f <register_fini-0xf091>
   16c98:	00fa0a33          	add	s4,s4,a5
   16c9c:	fffff7b7          	lui	a5,0xfffff
   16ca0:	00fa7a33          	and	s4,s4,a5
   16ca4:	000a0593          	mv	a1,s4
   16ca8:	00090513          	mv	a0,s2
   16cac:	135010ef          	jal	ra,185e0 <_sbrk_r>
   16cb0:	fff00793          	li	a5,-1
   16cb4:	00050b13          	mv	s6,a0
   16cb8:	3ef50e63          	beq	a0,a5,170b4 <_malloc_r+0x600>
   16cbc:	3f756a63          	bltu	a0,s7,170b0 <_malloc_r+0x5fc>
   16cc0:	7d018c93          	addi	s9,gp,2000 # 231d8 <__malloc_current_mallinfo>
   16cc4:	000ca703          	lw	a4,0(s9)
   16cc8:	014707bb          	addw	a5,a4,s4
   16ccc:	7cf1a823          	sw	a5,2000(gp) # 231d8 <__malloc_current_mallinfo>
   16cd0:	00078693          	mv	a3,a5
   16cd4:	54ab8063          	beq	s7,a0,17214 <_malloc_r+0x760>
   16cd8:	000c3703          	ld	a4,0(s8)
   16cdc:	fff00793          	li	a5,-1
   16ce0:	54f70863          	beq	a4,a5,17230 <_malloc_r+0x77c>
   16ce4:	417b07b3          	sub	a5,s6,s7
   16ce8:	00d787bb          	addw	a5,a5,a3
   16cec:	7cf1a823          	sw	a5,2000(gp) # 231d8 <__malloc_current_mallinfo>
   16cf0:	00fb7b93          	andi	s7,s6,15
   16cf4:	480b8263          	beqz	s7,17178 <_malloc_r+0x6c4>
   16cf8:	417b0b33          	sub	s6,s6,s7
   16cfc:	000017b7          	lui	a5,0x1
   16d00:	010b0b13          	addi	s6,s6,16
   16d04:	fff78713          	addi	a4,a5,-1 # fff <register_fini-0xf0b1>
   16d08:	014b0c33          	add	s8,s6,s4
   16d0c:	01078793          	addi	a5,a5,16
   16d10:	41778a33          	sub	s4,a5,s7
   16d14:	00ec77b3          	and	a5,s8,a4
   16d18:	40fa0a33          	sub	s4,s4,a5
   16d1c:	00ea7a33          	and	s4,s4,a4
   16d20:	000a0593          	mv	a1,s4
   16d24:	00090513          	mv	a0,s2
   16d28:	0b9010ef          	jal	ra,185e0 <_sbrk_r>
   16d2c:	fff00793          	li	a5,-1
   16d30:	56f50263          	beq	a0,a5,17294 <_malloc_r+0x7e0>
   16d34:	41650533          	sub	a0,a0,s6
   16d38:	000a071b          	sext.w	a4,s4
   16d3c:	01450a33          	add	s4,a0,s4
   16d40:	000ca783          	lw	a5,0(s9)
   16d44:	0000c697          	auipc	a3,0xc
   16d48:	bd66be23          	sd	s6,-1060(a3) # 22920 <__malloc_av_+0x10>
   16d4c:	001a6a13          	ori	s4,s4,1
   16d50:	00e787bb          	addw	a5,a5,a4
   16d54:	7cf1a823          	sw	a5,2000(gp) # 231d8 <__malloc_current_mallinfo>
   16d58:	014b3423          	sd	s4,8(s6)
   16d5c:	4d340e63          	beq	s0,s3,17238 <_malloc_r+0x784>
   16d60:	01f00613          	li	a2,31
   16d64:	4d567e63          	bgeu	a2,s5,17240 <_malloc_r+0x78c>
   16d68:	00843683          	ld	a3,8(s0)
   16d6c:	fe8a8713          	addi	a4,s5,-24
   16d70:	ff077713          	andi	a4,a4,-16
   16d74:	0016f693          	andi	a3,a3,1
   16d78:	00e6e6b3          	or	a3,a3,a4
   16d7c:	00d43423          	sd	a3,8(s0)
   16d80:	00900593          	li	a1,9
   16d84:	00e406b3          	add	a3,s0,a4
   16d88:	00b6b423          	sd	a1,8(a3)
   16d8c:	00b6b823          	sd	a1,16(a3)
   16d90:	50e66c63          	bltu	a2,a4,172a8 <_malloc_r+0x7f4>
   16d94:	008b3a03          	ld	s4,8(s6)
   16d98:	000b0413          	mv	s0,s6
   16d9c:	78018713          	addi	a4,gp,1920 # 23188 <__malloc_max_sbrked_mem>
   16da0:	00073703          	ld	a4,0(a4) # 2000 <register_fini-0xe0b0>
   16da4:	00f77463          	bgeu	a4,a5,16dac <_malloc_r+0x2f8>
   16da8:	78f1b023          	sd	a5,1920(gp) # 23188 <__malloc_max_sbrked_mem>
   16dac:	77818713          	addi	a4,gp,1912 # 23180 <__malloc_max_total_mem>
   16db0:	00073703          	ld	a4,0(a4)
   16db4:	30f77463          	bgeu	a4,a5,170bc <_malloc_r+0x608>
   16db8:	76f1bc23          	sd	a5,1912(gp) # 23180 <__malloc_max_total_mem>
   16dbc:	3000006f          	j	170bc <_malloc_r+0x608>
   16dc0:	0187b403          	ld	s0,24(a5)
   16dc4:	0026061b          	addiw	a2,a2,2
   16dc8:	d4879ee3          	bne	a5,s0,16b24 <_malloc_r+0x70>
   16dcc:	0209b403          	ld	s0,32(s3)
   16dd0:	0000c817          	auipc	a6,0xc
   16dd4:	b5080813          	addi	a6,a6,-1200 # 22920 <__malloc_av_+0x10>
   16dd8:	e70404e3          	beq	s0,a6,16c40 <_malloc_r+0x18c>
   16ddc:	00843783          	ld	a5,8(s0)
   16de0:	01f00693          	li	a3,31
   16de4:	ffc7f793          	andi	a5,a5,-4
   16de8:	40978733          	sub	a4,a5,s1
   16dec:	28e6c263          	blt	a3,a4,17070 <_malloc_r+0x5bc>
   16df0:	0000c697          	auipc	a3,0xc
   16df4:	b506b423          	sd	a6,-1208(a3) # 22938 <__malloc_av_+0x28>
   16df8:	0000c697          	auipc	a3,0xc
   16dfc:	b306bc23          	sd	a6,-1224(a3) # 22930 <__malloc_av_+0x20>
   16e00:	14075063          	bgez	a4,16f40 <_malloc_r+0x48c>
   16e04:	1ff00713          	li	a4,511
   16e08:	18f76863          	bltu	a4,a5,16f98 <_malloc_r+0x4e4>
   16e0c:	0037d793          	srli	a5,a5,0x3
   16e10:	0007879b          	sext.w	a5,a5
   16e14:	0017871b          	addiw	a4,a5,1
   16e18:	0017171b          	slliw	a4,a4,0x1
   16e1c:	00371713          	slli	a4,a4,0x3
   16e20:	0089b503          	ld	a0,8(s3)
   16e24:	00e98733          	add	a4,s3,a4
   16e28:	00073583          	ld	a1,0(a4)
   16e2c:	4027d69b          	sraiw	a3,a5,0x2
   16e30:	00100793          	li	a5,1
   16e34:	00d797b3          	sll	a5,a5,a3
   16e38:	00a7e7b3          	or	a5,a5,a0
   16e3c:	ff070693          	addi	a3,a4,-16
   16e40:	00d43c23          	sd	a3,24(s0)
   16e44:	00b43823          	sd	a1,16(s0)
   16e48:	0000c697          	auipc	a3,0xc
   16e4c:	acf6b823          	sd	a5,-1328(a3) # 22918 <__malloc_av_+0x8>
   16e50:	00873023          	sd	s0,0(a4)
   16e54:	0085bc23          	sd	s0,24(a1)
   16e58:	4026571b          	sraiw	a4,a2,0x2
   16e5c:	00100693          	li	a3,1
   16e60:	00e696b3          	sll	a3,a3,a4
   16e64:	ded7e8e3          	bltu	a5,a3,16c54 <_malloc_r+0x1a0>
   16e68:	00f6f733          	and	a4,a3,a5
   16e6c:	02071463          	bnez	a4,16e94 <_malloc_r+0x3e0>
   16e70:	00169693          	slli	a3,a3,0x1
   16e74:	ffc67613          	andi	a2,a2,-4
   16e78:	00f6f733          	and	a4,a3,a5
   16e7c:	0046061b          	addiw	a2,a2,4
   16e80:	00071a63          	bnez	a4,16e94 <_malloc_r+0x3e0>
   16e84:	00169693          	slli	a3,a3,0x1
   16e88:	00f6f733          	and	a4,a3,a5
   16e8c:	0046061b          	addiw	a2,a2,4
   16e90:	fe070ae3          	beqz	a4,16e84 <_malloc_r+0x3d0>
   16e94:	01f00513          	li	a0,31
   16e98:	0016089b          	addiw	a7,a2,1
   16e9c:	0018989b          	slliw	a7,a7,0x1
   16ea0:	00389893          	slli	a7,a7,0x3
   16ea4:	ff088893          	addi	a7,a7,-16
   16ea8:	011988b3          	add	a7,s3,a7
   16eac:	00088593          	mv	a1,a7
   16eb0:	00060313          	mv	t1,a2
   16eb4:	0185b403          	ld	s0,24(a1)
   16eb8:	00859a63          	bne	a1,s0,16ecc <_malloc_r+0x418>
   16ebc:	1700006f          	j	1702c <_malloc_r+0x578>
   16ec0:	18075063          	bgez	a4,17040 <_malloc_r+0x58c>
   16ec4:	01843403          	ld	s0,24(s0)
   16ec8:	16858263          	beq	a1,s0,1702c <_malloc_r+0x578>
   16ecc:	00843783          	ld	a5,8(s0)
   16ed0:	ffc7f793          	andi	a5,a5,-4
   16ed4:	40978733          	sub	a4,a5,s1
   16ed8:	fee554e3          	bge	a0,a4,16ec0 <_malloc_r+0x40c>
   16edc:	01843683          	ld	a3,24(s0)
   16ee0:	01043603          	ld	a2,16(s0)
   16ee4:	0014e593          	ori	a1,s1,1
   16ee8:	00b43423          	sd	a1,8(s0)
   16eec:	00d63c23          	sd	a3,24(a2)
   16ef0:	00c6b823          	sd	a2,16(a3)
   16ef4:	009404b3          	add	s1,s0,s1
   16ef8:	0000c697          	auipc	a3,0xc
   16efc:	a496b023          	sd	s1,-1472(a3) # 22938 <__malloc_av_+0x28>
   16f00:	0000c697          	auipc	a3,0xc
   16f04:	a296b823          	sd	s1,-1488(a3) # 22930 <__malloc_av_+0x20>
   16f08:	00176693          	ori	a3,a4,1
   16f0c:	0104bc23          	sd	a6,24(s1)
   16f10:	0104b823          	sd	a6,16(s1)
   16f14:	00d4b423          	sd	a3,8(s1)
   16f18:	00f407b3          	add	a5,s0,a5
   16f1c:	00090513          	mv	a0,s2
   16f20:	00e7b023          	sd	a4,0(a5)
   16f24:	550000ef          	jal	ra,17474 <__malloc_unlock>
   16f28:	01040513          	addi	a0,s0,16
   16f2c:	c3dff06f          	j	16b68 <_malloc_r+0xb4>
   16f30:	40000693          	li	a3,1024
   16f34:	04000613          	li	a2,64
   16f38:	03f00513          	li	a0,63
   16f3c:	ca9ff06f          	j	16be4 <_malloc_r+0x130>
   16f40:	00f407b3          	add	a5,s0,a5
   16f44:	0087b703          	ld	a4,8(a5)
   16f48:	00090513          	mv	a0,s2
   16f4c:	00176713          	ori	a4,a4,1
   16f50:	00e7b423          	sd	a4,8(a5)
   16f54:	520000ef          	jal	ra,17474 <__malloc_unlock>
   16f58:	01040513          	addi	a0,s0,16
   16f5c:	c0dff06f          	j	16b68 <_malloc_r+0xb4>
   16f60:	0014e713          	ori	a4,s1,1
   16f64:	00e43423          	sd	a4,8(s0)
   16f68:	009404b3          	add	s1,s0,s1
   16f6c:	0000c717          	auipc	a4,0xc
   16f70:	9a973a23          	sd	s1,-1612(a4) # 22920 <__malloc_av_+0x10>
   16f74:	0017e793          	ori	a5,a5,1
   16f78:	00090513          	mv	a0,s2
   16f7c:	00f4b423          	sd	a5,8(s1)
   16f80:	4f4000ef          	jal	ra,17474 <__malloc_unlock>
   16f84:	01040513          	addi	a0,s0,16
   16f88:	be1ff06f          	j	16b68 <_malloc_r+0xb4>
   16f8c:	01843683          	ld	a3,24(s0)
   16f90:	01043603          	ld	a2,16(s0)
   16f94:	ba1ff06f          	j	16b34 <_malloc_r+0x80>
   16f98:	0097d713          	srli	a4,a5,0x9
   16f9c:	00400693          	li	a3,4
   16fa0:	0ee6fa63          	bgeu	a3,a4,17094 <_malloc_r+0x5e0>
   16fa4:	01400693          	li	a3,20
   16fa8:	20e6e863          	bltu	a3,a4,171b8 <_malloc_r+0x704>
   16fac:	0007071b          	sext.w	a4,a4
   16fb0:	05c7059b          	addiw	a1,a4,92
   16fb4:	0015959b          	slliw	a1,a1,0x1
   16fb8:	05b7069b          	addiw	a3,a4,91
   16fbc:	00359593          	slli	a1,a1,0x3
   16fc0:	00b985b3          	add	a1,s3,a1
   16fc4:	0005b703          	ld	a4,0(a1)
   16fc8:	ff058593          	addi	a1,a1,-16
   16fcc:	18e58663          	beq	a1,a4,17158 <_malloc_r+0x6a4>
   16fd0:	00873683          	ld	a3,8(a4)
   16fd4:	ffc6f693          	andi	a3,a3,-4
   16fd8:	00d7f663          	bgeu	a5,a3,16fe4 <_malloc_r+0x530>
   16fdc:	01073703          	ld	a4,16(a4)
   16fe0:	fee598e3          	bne	a1,a4,16fd0 <_malloc_r+0x51c>
   16fe4:	01873583          	ld	a1,24(a4)
   16fe8:	0089b783          	ld	a5,8(s3)
   16fec:	00b43c23          	sd	a1,24(s0)
   16ff0:	00e43823          	sd	a4,16(s0)
   16ff4:	0085b823          	sd	s0,16(a1)
   16ff8:	00873c23          	sd	s0,24(a4)
   16ffc:	e5dff06f          	j	16e58 <_malloc_r+0x3a4>
   17000:	01400713          	li	a4,20
   17004:	0cf77e63          	bgeu	a4,a5,170e0 <_malloc_r+0x62c>
   17008:	05400713          	li	a4,84
   1700c:	1cf76863          	bltu	a4,a5,171dc <_malloc_r+0x728>
   17010:	00c4d513          	srli	a0,s1,0xc
   17014:	0005051b          	sext.w	a0,a0
   17018:	06f5061b          	addiw	a2,a0,111
   1701c:	0016169b          	slliw	a3,a2,0x1
   17020:	06e5051b          	addiw	a0,a0,110
   17024:	00369693          	slli	a3,a3,0x3
   17028:	bbdff06f          	j	16be4 <_malloc_r+0x130>
   1702c:	0013031b          	addiw	t1,t1,1
   17030:	00337793          	andi	a5,t1,3
   17034:	01058593          	addi	a1,a1,16
   17038:	e6079ee3          	bnez	a5,16eb4 <_malloc_r+0x400>
   1703c:	0c80006f          	j	17104 <_malloc_r+0x650>
   17040:	00f407b3          	add	a5,s0,a5
   17044:	0087b703          	ld	a4,8(a5)
   17048:	01843683          	ld	a3,24(s0)
   1704c:	01043603          	ld	a2,16(s0)
   17050:	00176713          	ori	a4,a4,1
   17054:	00e7b423          	sd	a4,8(a5)
   17058:	00d63c23          	sd	a3,24(a2)
   1705c:	00090513          	mv	a0,s2
   17060:	00c6b823          	sd	a2,16(a3)
   17064:	410000ef          	jal	ra,17474 <__malloc_unlock>
   17068:	01040513          	addi	a0,s0,16
   1706c:	afdff06f          	j	16b68 <_malloc_r+0xb4>
   17070:	0014e693          	ori	a3,s1,1
   17074:	00d43423          	sd	a3,8(s0)
   17078:	e7dff06f          	j	16ef4 <_malloc_r+0x440>
   1707c:	0034d613          	srli	a2,s1,0x3
   17080:	0006061b          	sext.w	a2,a2
   17084:	0016079b          	addiw	a5,a2,1
   17088:	0017979b          	slliw	a5,a5,0x1
   1708c:	00379793          	slli	a5,a5,0x3
   17090:	a7dff06f          	j	16b0c <_malloc_r+0x58>
   17094:	0067d713          	srli	a4,a5,0x6
   17098:	0007071b          	sext.w	a4,a4
   1709c:	0397059b          	addiw	a1,a4,57
   170a0:	0015959b          	slliw	a1,a1,0x1
   170a4:	0387069b          	addiw	a3,a4,56
   170a8:	00359593          	slli	a1,a1,0x3
   170ac:	f15ff06f          	j	16fc0 <_malloc_r+0x50c>
   170b0:	15340863          	beq	s0,s3,17200 <_malloc_r+0x74c>
   170b4:	0109b403          	ld	s0,16(s3)
   170b8:	00843a03          	ld	s4,8(s0)
   170bc:	ffca7a13          	andi	s4,s4,-4
   170c0:	409a07b3          	sub	a5,s4,s1
   170c4:	009a6663          	bltu	s4,s1,170d0 <_malloc_r+0x61c>
   170c8:	01f00713          	li	a4,31
   170cc:	e8f74ae3          	blt	a4,a5,16f60 <_malloc_r+0x4ac>
   170d0:	00090513          	mv	a0,s2
   170d4:	3a0000ef          	jal	ra,17474 <__malloc_unlock>
   170d8:	00000513          	li	a0,0
   170dc:	a8dff06f          	j	16b68 <_malloc_r+0xb4>
   170e0:	0007879b          	sext.w	a5,a5
   170e4:	05c7861b          	addiw	a2,a5,92
   170e8:	0016169b          	slliw	a3,a2,0x1
   170ec:	05b7851b          	addiw	a0,a5,91
   170f0:	00369693          	slli	a3,a3,0x3
   170f4:	af1ff06f          	j	16be4 <_malloc_r+0x130>
   170f8:	0108b783          	ld	a5,16(a7)
   170fc:	fff6061b          	addiw	a2,a2,-1
   17100:	21179263          	bne	a5,a7,17304 <_malloc_r+0x850>
   17104:	00367793          	andi	a5,a2,3
   17108:	ff088893          	addi	a7,a7,-16
   1710c:	fe0796e3          	bnez	a5,170f8 <_malloc_r+0x644>
   17110:	0089b703          	ld	a4,8(s3)
   17114:	fff6c793          	not	a5,a3
   17118:	00e7f7b3          	and	a5,a5,a4
   1711c:	0000b717          	auipc	a4,0xb
   17120:	7ef73e23          	sd	a5,2044(a4) # 22918 <__malloc_av_+0x8>
   17124:	00169693          	slli	a3,a3,0x1
   17128:	b2d7e6e3          	bltu	a5,a3,16c54 <_malloc_r+0x1a0>
   1712c:	b20684e3          	beqz	a3,16c54 <_malloc_r+0x1a0>
   17130:	00f6f733          	and	a4,a3,a5
   17134:	00071a63          	bnez	a4,17148 <_malloc_r+0x694>
   17138:	00169693          	slli	a3,a3,0x1
   1713c:	00f6f733          	and	a4,a3,a5
   17140:	0043031b          	addiw	t1,t1,4
   17144:	fe070ae3          	beqz	a4,17138 <_malloc_r+0x684>
   17148:	00030613          	mv	a2,t1
   1714c:	d4dff06f          	j	16e98 <_malloc_r+0x3e4>
   17150:	020a0a13          	addi	s4,s4,32
   17154:	b51ff06f          	j	16ca4 <_malloc_r+0x1f0>
   17158:	0089b503          	ld	a0,8(s3)
   1715c:	4026d69b          	sraiw	a3,a3,0x2
   17160:	00100793          	li	a5,1
   17164:	00d797b3          	sll	a5,a5,a3
   17168:	00a7e7b3          	or	a5,a5,a0
   1716c:	0000b697          	auipc	a3,0xb
   17170:	7af6b623          	sd	a5,1964(a3) # 22918 <__malloc_av_+0x8>
   17174:	e79ff06f          	j	16fec <_malloc_r+0x538>
   17178:	000017b7          	lui	a5,0x1
   1717c:	fff78713          	addi	a4,a5,-1 # fff <register_fini-0xf0b1>
   17180:	014b0bb3          	add	s7,s6,s4
   17184:	00ebfbb3          	and	s7,s7,a4
   17188:	417787b3          	sub	a5,a5,s7
   1718c:	00e7fbb3          	and	s7,a5,a4
   17190:	000b8593          	mv	a1,s7
   17194:	00090513          	mv	a0,s2
   17198:	448010ef          	jal	ra,185e0 <_sbrk_r>
   1719c:	fff00793          	li	a5,-1
   171a0:	00000713          	li	a4,0
   171a4:	b8f50ee3          	beq	a0,a5,16d40 <_malloc_r+0x28c>
   171a8:	41650533          	sub	a0,a0,s6
   171ac:	000b871b          	sext.w	a4,s7
   171b0:	01750a33          	add	s4,a0,s7
   171b4:	b8dff06f          	j	16d40 <_malloc_r+0x28c>
   171b8:	05400693          	li	a3,84
   171bc:	08e6e863          	bltu	a3,a4,1724c <_malloc_r+0x798>
   171c0:	00c7d713          	srli	a4,a5,0xc
   171c4:	0007071b          	sext.w	a4,a4
   171c8:	06f7059b          	addiw	a1,a4,111
   171cc:	0015959b          	slliw	a1,a1,0x1
   171d0:	06e7069b          	addiw	a3,a4,110
   171d4:	00359593          	slli	a1,a1,0x3
   171d8:	de9ff06f          	j	16fc0 <_malloc_r+0x50c>
   171dc:	15400713          	li	a4,340
   171e0:	08f76863          	bltu	a4,a5,17270 <_malloc_r+0x7bc>
   171e4:	00f4d513          	srli	a0,s1,0xf
   171e8:	0005051b          	sext.w	a0,a0
   171ec:	0785061b          	addiw	a2,a0,120
   171f0:	0016169b          	slliw	a3,a2,0x1
   171f4:	0775051b          	addiw	a0,a0,119
   171f8:	00369693          	slli	a3,a3,0x3
   171fc:	9e9ff06f          	j	16be4 <_malloc_r+0x130>
   17200:	7d018c93          	addi	s9,gp,2000 # 231d8 <__malloc_current_mallinfo>
   17204:	000ca783          	lw	a5,0(s9)
   17208:	014786bb          	addw	a3,a5,s4
   1720c:	7cd1a823          	sw	a3,2000(gp) # 231d8 <__malloc_current_mallinfo>
   17210:	ac9ff06f          	j	16cd8 <_malloc_r+0x224>
   17214:	034b9713          	slli	a4,s7,0x34
   17218:	ac0710e3          	bnez	a4,16cd8 <_malloc_r+0x224>
   1721c:	0109b403          	ld	s0,16(s3)
   17220:	014a8a33          	add	s4,s5,s4
   17224:	001a6a13          	ori	s4,s4,1
   17228:	01443423          	sd	s4,8(s0)
   1722c:	b71ff06f          	j	16d9c <_malloc_r+0x2e8>
   17230:	7761b023          	sd	s6,1888(gp) # 23168 <__malloc_sbrk_base>
   17234:	abdff06f          	j	16cf0 <_malloc_r+0x23c>
   17238:	000b0413          	mv	s0,s6
   1723c:	b61ff06f          	j	16d9c <_malloc_r+0x2e8>
   17240:	00100793          	li	a5,1
   17244:	00fb3423          	sd	a5,8(s6)
   17248:	e89ff06f          	j	170d0 <_malloc_r+0x61c>
   1724c:	15400693          	li	a3,340
   17250:	06e6ea63          	bltu	a3,a4,172c4 <_malloc_r+0x810>
   17254:	00f7d713          	srli	a4,a5,0xf
   17258:	0007071b          	sext.w	a4,a4
   1725c:	0787059b          	addiw	a1,a4,120
   17260:	0015959b          	slliw	a1,a1,0x1
   17264:	0777069b          	addiw	a3,a4,119
   17268:	00359593          	slli	a1,a1,0x3
   1726c:	d55ff06f          	j	16fc0 <_malloc_r+0x50c>
   17270:	55400713          	li	a4,1364
   17274:	06f76a63          	bltu	a4,a5,172e8 <_malloc_r+0x834>
   17278:	0124d513          	srli	a0,s1,0x12
   1727c:	0005051b          	sext.w	a0,a0
   17280:	07d5061b          	addiw	a2,a0,125
   17284:	0016169b          	slliw	a3,a2,0x1
   17288:	07c5051b          	addiw	a0,a0,124
   1728c:	00369693          	slli	a3,a3,0x3
   17290:	955ff06f          	j	16be4 <_malloc_r+0x130>
   17294:	ff0b8b93          	addi	s7,s7,-16
   17298:	017c0a33          	add	s4,s8,s7
   1729c:	416a0a33          	sub	s4,s4,s6
   172a0:	00000713          	li	a4,0
   172a4:	a9dff06f          	j	16d40 <_malloc_r+0x28c>
   172a8:	01040593          	addi	a1,s0,16
   172ac:	00090513          	mv	a0,s2
   172b0:	cacfc0ef          	jal	ra,1375c <_free_r>
   172b4:	0109b403          	ld	s0,16(s3)
   172b8:	000ca783          	lw	a5,0(s9)
   172bc:	00843a03          	ld	s4,8(s0)
   172c0:	addff06f          	j	16d9c <_malloc_r+0x2e8>
   172c4:	55400693          	li	a3,1364
   172c8:	02e6e863          	bltu	a3,a4,172f8 <_malloc_r+0x844>
   172cc:	0127d713          	srli	a4,a5,0x12
   172d0:	0007071b          	sext.w	a4,a4
   172d4:	07d7059b          	addiw	a1,a4,125
   172d8:	0015959b          	slliw	a1,a1,0x1
   172dc:	07c7069b          	addiw	a3,a4,124
   172e0:	00359593          	slli	a1,a1,0x3
   172e4:	cddff06f          	j	16fc0 <_malloc_r+0x50c>
   172e8:	7f000693          	li	a3,2032
   172ec:	07f00613          	li	a2,127
   172f0:	07e00513          	li	a0,126
   172f4:	8f1ff06f          	j	16be4 <_malloc_r+0x130>
   172f8:	7f000593          	li	a1,2032
   172fc:	07e00693          	li	a3,126
   17300:	cc1ff06f          	j	16fc0 <_malloc_r+0x50c>
   17304:	0089b783          	ld	a5,8(s3)
   17308:	e1dff06f          	j	17124 <_malloc_r+0x670>

000000000001730c <_mbtowc_r>:
   1730c:	d6018793          	addi	a5,gp,-672 # 22768 <__global_locale>
   17310:	0e87b303          	ld	t1,232(a5)
   17314:	00030067          	jr	t1

0000000000017318 <__ascii_mbtowc>:
   17318:	02058063          	beqz	a1,17338 <__ascii_mbtowc+0x20>
   1731c:	04060263          	beqz	a2,17360 <__ascii_mbtowc+0x48>
   17320:	04068863          	beqz	a3,17370 <__ascii_mbtowc+0x58>
   17324:	00064783          	lbu	a5,0(a2)
   17328:	00f5a023          	sw	a5,0(a1)
   1732c:	00064503          	lbu	a0,0(a2)
   17330:	00a03533          	snez	a0,a0
   17334:	00008067          	ret
   17338:	ff010113          	addi	sp,sp,-16
   1733c:	00c10593          	addi	a1,sp,12
   17340:	02060463          	beqz	a2,17368 <__ascii_mbtowc+0x50>
   17344:	02068a63          	beqz	a3,17378 <__ascii_mbtowc+0x60>
   17348:	00064783          	lbu	a5,0(a2)
   1734c:	00f5a023          	sw	a5,0(a1)
   17350:	00064503          	lbu	a0,0(a2)
   17354:	00a03533          	snez	a0,a0
   17358:	01010113          	addi	sp,sp,16
   1735c:	00008067          	ret
   17360:	00000513          	li	a0,0
   17364:	00008067          	ret
   17368:	00000513          	li	a0,0
   1736c:	fedff06f          	j	17358 <__ascii_mbtowc+0x40>
   17370:	ffe00513          	li	a0,-2
   17374:	00008067          	ret
   17378:	ffe00513          	li	a0,-2
   1737c:	fddff06f          	j	17358 <__ascii_mbtowc+0x40>

0000000000017380 <memchr>:
   17380:	00757793          	andi	a5,a0,7
   17384:	0ff5f813          	andi	a6,a1,255
   17388:	0e078063          	beqz	a5,17468 <memchr+0xe8>
   1738c:	fff60793          	addi	a5,a2,-1
   17390:	04060e63          	beqz	a2,173ec <memchr+0x6c>
   17394:	00054703          	lbu	a4,0(a0)
   17398:	05070c63          	beq	a4,a6,173f0 <memchr+0x70>
   1739c:	fff00693          	li	a3,-1
   173a0:	0140006f          	j	173b4 <memchr+0x34>
   173a4:	fff78793          	addi	a5,a5,-1
   173a8:	04d78263          	beq	a5,a3,173ec <memchr+0x6c>
   173ac:	00054703          	lbu	a4,0(a0)
   173b0:	05070063          	beq	a4,a6,173f0 <memchr+0x70>
   173b4:	00150513          	addi	a0,a0,1
   173b8:	00757713          	andi	a4,a0,7
   173bc:	fe0714e3          	bnez	a4,173a4 <memchr+0x24>
   173c0:	00700713          	li	a4,7
   173c4:	02f76863          	bltu	a4,a5,173f4 <memchr+0x74>
   173c8:	02078263          	beqz	a5,173ec <memchr+0x6c>
   173cc:	00054703          	lbu	a4,0(a0)
   173d0:	03070063          	beq	a4,a6,173f0 <memchr+0x70>
   173d4:	00f507b3          	add	a5,a0,a5
   173d8:	00c0006f          	j	173e4 <memchr+0x64>
   173dc:	00054703          	lbu	a4,0(a0)
   173e0:	01070863          	beq	a4,a6,173f0 <memchr+0x70>
   173e4:	00150513          	addi	a0,a0,1
   173e8:	fea79ae3          	bne	a5,a0,173dc <memchr+0x5c>
   173ec:	00000513          	li	a0,0
   173f0:	00008067          	ret
   173f4:	000106b7          	lui	a3,0x10
   173f8:	0085971b          	slliw	a4,a1,0x8
   173fc:	fff68693          	addi	a3,a3,-1 # ffff <register_fini-0xb1>
   17400:	00d77733          	and	a4,a4,a3
   17404:	0ff5f593          	andi	a1,a1,255
   17408:	00b765b3          	or	a1,a4,a1
   1740c:	0005859b          	sext.w	a1,a1
   17410:	0000c697          	auipc	a3,0xc
   17414:	d1068693          	addi	a3,a3,-752 # 23120 <__SDATA_BEGIN__>
   17418:	01059613          	slli	a2,a1,0x10
   1741c:	0006b883          	ld	a7,0(a3)
   17420:	0000c697          	auipc	a3,0xc
   17424:	d0868693          	addi	a3,a3,-760 # 23128 <__SDATA_BEGIN__+0x8>
   17428:	00b66733          	or	a4,a2,a1
   1742c:	0006b583          	ld	a1,0(a3)
   17430:	02071613          	slli	a2,a4,0x20
   17434:	00e66633          	or	a2,a2,a4
   17438:	00700313          	li	t1,7
   1743c:	00053703          	ld	a4,0(a0)
   17440:	00e64733          	xor	a4,a2,a4
   17444:	011706b3          	add	a3,a4,a7
   17448:	fff74713          	not	a4,a4
   1744c:	00e6f733          	and	a4,a3,a4
   17450:	00b77733          	and	a4,a4,a1
   17454:	f6071ce3          	bnez	a4,173cc <memchr+0x4c>
   17458:	ff878793          	addi	a5,a5,-8
   1745c:	00850513          	addi	a0,a0,8
   17460:	fcf36ee3          	bltu	t1,a5,1743c <memchr+0xbc>
   17464:	f65ff06f          	j	173c8 <memchr+0x48>
   17468:	00060793          	mv	a5,a2
   1746c:	f55ff06f          	j	173c0 <memchr+0x40>

0000000000017470 <__malloc_lock>:
   17470:	00008067          	ret

0000000000017474 <__malloc_unlock>:
   17474:	00008067          	ret

0000000000017478 <_Balloc>:
   17478:	07853783          	ld	a5,120(a0)
   1747c:	fe010113          	addi	sp,sp,-32
   17480:	00813823          	sd	s0,16(sp)
   17484:	00913423          	sd	s1,8(sp)
   17488:	00113c23          	sd	ra,24(sp)
   1748c:	01213023          	sd	s2,0(sp)
   17490:	00050413          	mv	s0,a0
   17494:	00058493          	mv	s1,a1
   17498:	02078c63          	beqz	a5,174d0 <_Balloc+0x58>
   1749c:	00349713          	slli	a4,s1,0x3
   174a0:	00e787b3          	add	a5,a5,a4
   174a4:	0007b503          	ld	a0,0(a5)
   174a8:	04050463          	beqz	a0,174f0 <_Balloc+0x78>
   174ac:	00053703          	ld	a4,0(a0)
   174b0:	00e7b023          	sd	a4,0(a5)
   174b4:	00053823          	sd	zero,16(a0)
   174b8:	01813083          	ld	ra,24(sp)
   174bc:	01013403          	ld	s0,16(sp)
   174c0:	00813483          	ld	s1,8(sp)
   174c4:	00013903          	ld	s2,0(sp)
   174c8:	02010113          	addi	sp,sp,32
   174cc:	00008067          	ret
   174d0:	04100613          	li	a2,65
   174d4:	00800593          	li	a1,8
   174d8:	3d8050ef          	jal	ra,1c8b0 <_calloc_r>
   174dc:	06a43c23          	sd	a0,120(s0)
   174e0:	00050793          	mv	a5,a0
   174e4:	fa051ce3          	bnez	a0,1749c <_Balloc+0x24>
   174e8:	00000513          	li	a0,0
   174ec:	fcdff06f          	j	174b8 <_Balloc+0x40>
   174f0:	00100913          	li	s2,1
   174f4:	0099193b          	sllw	s2,s2,s1
   174f8:	fff9061b          	addiw	a2,s2,-1
   174fc:	00860613          	addi	a2,a2,8
   17500:	00261613          	slli	a2,a2,0x2
   17504:	00100593          	li	a1,1
   17508:	00040513          	mv	a0,s0
   1750c:	3a4050ef          	jal	ra,1c8b0 <_calloc_r>
   17510:	fc050ce3          	beqz	a0,174e8 <_Balloc+0x70>
   17514:	00952423          	sw	s1,8(a0)
   17518:	01252623          	sw	s2,12(a0)
   1751c:	f99ff06f          	j	174b4 <_Balloc+0x3c>

0000000000017520 <_Bfree>:
   17520:	02058063          	beqz	a1,17540 <_Bfree+0x20>
   17524:	0085a703          	lw	a4,8(a1)
   17528:	07853783          	ld	a5,120(a0)
   1752c:	00371713          	slli	a4,a4,0x3
   17530:	00e787b3          	add	a5,a5,a4
   17534:	0007b703          	ld	a4,0(a5)
   17538:	00e5b023          	sd	a4,0(a1)
   1753c:	00b7b023          	sd	a1,0(a5)
   17540:	00008067          	ret

0000000000017544 <__multadd>:
   17544:	fb010113          	addi	sp,sp,-80
   17548:	03313423          	sd	s3,40(sp)
   1754c:	0145a983          	lw	s3,20(a1)
   17550:	01813023          	sd	s8,0(sp)
   17554:	00010c37          	lui	s8,0x10
   17558:	04813023          	sd	s0,64(sp)
   1755c:	02913c23          	sd	s1,56(sp)
   17560:	03213823          	sd	s2,48(sp)
   17564:	03413023          	sd	s4,32(sp)
   17568:	01513c23          	sd	s5,24(sp)
   1756c:	01613823          	sd	s6,16(sp)
   17570:	04113423          	sd	ra,72(sp)
   17574:	01713423          	sd	s7,8(sp)
   17578:	00058a13          	mv	s4,a1
   1757c:	00050a93          	mv	s5,a0
   17580:	00068413          	mv	s0,a3
   17584:	01858493          	addi	s1,a1,24
   17588:	00060913          	mv	s2,a2
   1758c:	00000b13          	li	s6,0
   17590:	fffc0c13          	addi	s8,s8,-1 # ffff <register_fini-0xb1>
   17594:	0004ab83          	lw	s7,0(s1)
   17598:	00090593          	mv	a1,s2
   1759c:	00448493          	addi	s1,s1,4
   175a0:	018bf533          	and	a0,s7,s8
   175a4:	281090ef          	jal	ra,21024 <__muldi3>
   175a8:	0085043b          	addw	s0,a0,s0
   175ac:	00090593          	mv	a1,s2
   175b0:	010bd51b          	srliw	a0,s7,0x10
   175b4:	271090ef          	jal	ra,21024 <__muldi3>
   175b8:	0104569b          	srliw	a3,s0,0x10
   175bc:	00a6853b          	addw	a0,a3,a0
   175c0:	0105169b          	slliw	a3,a0,0x10
   175c4:	008c7433          	and	s0,s8,s0
   175c8:	0086843b          	addw	s0,a3,s0
   175cc:	fe84ae23          	sw	s0,-4(s1)
   175d0:	001b0b1b          	addiw	s6,s6,1
   175d4:	0105541b          	srliw	s0,a0,0x10
   175d8:	fb3b4ee3          	blt	s6,s3,17594 <__multadd+0x50>
   175dc:	02040263          	beqz	s0,17600 <__multadd+0xbc>
   175e0:	00ca2783          	lw	a5,12(s4)
   175e4:	04f9d863          	bge	s3,a5,17634 <__multadd+0xf0>
   175e8:	00498793          	addi	a5,s3,4
   175ec:	00279793          	slli	a5,a5,0x2
   175f0:	00fa07b3          	add	a5,s4,a5
   175f4:	0087a423          	sw	s0,8(a5)
   175f8:	0019899b          	addiw	s3,s3,1
   175fc:	013a2a23          	sw	s3,20(s4)
   17600:	04813083          	ld	ra,72(sp)
   17604:	04013403          	ld	s0,64(sp)
   17608:	000a0513          	mv	a0,s4
   1760c:	03813483          	ld	s1,56(sp)
   17610:	03013903          	ld	s2,48(sp)
   17614:	02813983          	ld	s3,40(sp)
   17618:	02013a03          	ld	s4,32(sp)
   1761c:	01813a83          	ld	s5,24(sp)
   17620:	01013b03          	ld	s6,16(sp)
   17624:	00813b83          	ld	s7,8(sp)
   17628:	00013c03          	ld	s8,0(sp)
   1762c:	05010113          	addi	sp,sp,80
   17630:	00008067          	ret
   17634:	008a2583          	lw	a1,8(s4)
   17638:	000a8513          	mv	a0,s5
   1763c:	0015859b          	addiw	a1,a1,1
   17640:	e39ff0ef          	jal	ra,17478 <_Balloc>
   17644:	014a2603          	lw	a2,20(s4)
   17648:	00050493          	mv	s1,a0
   1764c:	010a0593          	addi	a1,s4,16
   17650:	00260613          	addi	a2,a2,2
   17654:	01050513          	addi	a0,a0,16
   17658:	00261613          	slli	a2,a2,0x2
   1765c:	465050ef          	jal	ra,1d2c0 <memcpy>
   17660:	008a2703          	lw	a4,8(s4)
   17664:	078ab783          	ld	a5,120(s5)
   17668:	00371713          	slli	a4,a4,0x3
   1766c:	00e787b3          	add	a5,a5,a4
   17670:	0007b703          	ld	a4,0(a5)
   17674:	00ea3023          	sd	a4,0(s4)
   17678:	0147b023          	sd	s4,0(a5)
   1767c:	00498793          	addi	a5,s3,4
   17680:	00048a13          	mv	s4,s1
   17684:	00279793          	slli	a5,a5,0x2
   17688:	00fa07b3          	add	a5,s4,a5
   1768c:	0087a423          	sw	s0,8(a5)
   17690:	0019899b          	addiw	s3,s3,1
   17694:	013a2a23          	sw	s3,20(s4)
   17698:	f69ff06f          	j	17600 <__multadd+0xbc>

000000000001769c <__s2b>:
   1769c:	fc010113          	addi	sp,sp,-64
   176a0:	02813823          	sd	s0,48(sp)
   176a4:	03213023          	sd	s2,32(sp)
   176a8:	00058413          	mv	s0,a1
   176ac:	00050913          	mv	s2,a0
   176b0:	00900593          	li	a1,9
   176b4:	0086851b          	addiw	a0,a3,8
   176b8:	02913423          	sd	s1,40(sp)
   176bc:	01313c23          	sd	s3,24(sp)
   176c0:	01413823          	sd	s4,16(sp)
   176c4:	02113c23          	sd	ra,56(sp)
   176c8:	01513423          	sd	s5,8(sp)
   176cc:	01613023          	sd	s6,0(sp)
   176d0:	00068493          	mv	s1,a3
   176d4:	00060a13          	mv	s4,a2
   176d8:	00070993          	mv	s3,a4
   176dc:	1ad090ef          	jal	ra,21088 <__divdi3>
   176e0:	00900793          	li	a5,9
   176e4:	0e97d663          	bge	a5,s1,177d0 <__s2b+0x134>
   176e8:	0005051b          	sext.w	a0,a0
   176ec:	00100793          	li	a5,1
   176f0:	00000593          	li	a1,0
   176f4:	0017979b          	slliw	a5,a5,0x1
   176f8:	0015859b          	addiw	a1,a1,1
   176fc:	fea7cce3          	blt	a5,a0,176f4 <__s2b+0x58>
   17700:	00090513          	mv	a0,s2
   17704:	d75ff0ef          	jal	ra,17478 <_Balloc>
   17708:	00100793          	li	a5,1
   1770c:	00f52a23          	sw	a5,20(a0)
   17710:	01352c23          	sw	s3,24(a0)
   17714:	00900793          	li	a5,9
   17718:	0b47d663          	bge	a5,s4,177c4 <__s2b+0x128>
   1771c:	ff6a0a9b          	addiw	s5,s4,-10
   17720:	020a9a93          	slli	s5,s5,0x20
   17724:	020ada93          	srli	s5,s5,0x20
   17728:	00940b13          	addi	s6,s0,9
   1772c:	00aa8793          	addi	a5,s5,10
   17730:	00f40433          	add	s0,s0,a5
   17734:	000b0993          	mv	s3,s6
   17738:	00198993          	addi	s3,s3,1
   1773c:	fff9c683          	lbu	a3,-1(s3)
   17740:	00050593          	mv	a1,a0
   17744:	00a00613          	li	a2,10
   17748:	fd06869b          	addiw	a3,a3,-48
   1774c:	00090513          	mv	a0,s2
   17750:	df5ff0ef          	jal	ra,17544 <__multadd>
   17754:	fe8992e3          	bne	s3,s0,17738 <__s2b+0x9c>
   17758:	002a8413          	addi	s0,s5,2
   1775c:	008b0433          	add	s0,s6,s0
   17760:	029a5e63          	bge	s4,s1,1779c <__s2b+0x100>
   17764:	fff4849b          	addiw	s1,s1,-1
   17768:	414484bb          	subw	s1,s1,s4
   1776c:	02049493          	slli	s1,s1,0x20
   17770:	0204d493          	srli	s1,s1,0x20
   17774:	00148493          	addi	s1,s1,1
   17778:	009404b3          	add	s1,s0,s1
   1777c:	00140413          	addi	s0,s0,1
   17780:	fff44683          	lbu	a3,-1(s0)
   17784:	00050593          	mv	a1,a0
   17788:	00a00613          	li	a2,10
   1778c:	fd06869b          	addiw	a3,a3,-48
   17790:	00090513          	mv	a0,s2
   17794:	db1ff0ef          	jal	ra,17544 <__multadd>
   17798:	fe9412e3          	bne	s0,s1,1777c <__s2b+0xe0>
   1779c:	03813083          	ld	ra,56(sp)
   177a0:	03013403          	ld	s0,48(sp)
   177a4:	02813483          	ld	s1,40(sp)
   177a8:	02013903          	ld	s2,32(sp)
   177ac:	01813983          	ld	s3,24(sp)
   177b0:	01013a03          	ld	s4,16(sp)
   177b4:	00813a83          	ld	s5,8(sp)
   177b8:	00013b03          	ld	s6,0(sp)
   177bc:	04010113          	addi	sp,sp,64
   177c0:	00008067          	ret
   177c4:	00a40413          	addi	s0,s0,10
   177c8:	00900a13          	li	s4,9
   177cc:	f95ff06f          	j	17760 <__s2b+0xc4>
   177d0:	00000593          	li	a1,0
   177d4:	f2dff06f          	j	17700 <__s2b+0x64>

00000000000177d8 <__hi0bits>:
   177d8:	ffff0737          	lui	a4,0xffff0
   177dc:	00e57733          	and	a4,a0,a4
   177e0:	00050793          	mv	a5,a0
   177e4:	00000513          	li	a0,0
   177e8:	00071663          	bnez	a4,177f4 <__hi0bits+0x1c>
   177ec:	0107979b          	slliw	a5,a5,0x10
   177f0:	01000513          	li	a0,16
   177f4:	ff000737          	lui	a4,0xff000
   177f8:	00e7f733          	and	a4,a5,a4
   177fc:	00071663          	bnez	a4,17808 <__hi0bits+0x30>
   17800:	0087979b          	slliw	a5,a5,0x8
   17804:	0085051b          	addiw	a0,a0,8
   17808:	f0000737          	lui	a4,0xf0000
   1780c:	00e7f733          	and	a4,a5,a4
   17810:	00071663          	bnez	a4,1781c <__hi0bits+0x44>
   17814:	0047979b          	slliw	a5,a5,0x4
   17818:	0045051b          	addiw	a0,a0,4
   1781c:	c0000737          	lui	a4,0xc0000
   17820:	00e7f733          	and	a4,a5,a4
   17824:	00071663          	bnez	a4,17830 <__hi0bits+0x58>
   17828:	0027979b          	slliw	a5,a5,0x2
   1782c:	0025051b          	addiw	a0,a0,2
   17830:	0007c863          	bltz	a5,17840 <__hi0bits+0x68>
   17834:	02179713          	slli	a4,a5,0x21
   17838:	0015051b          	addiw	a0,a0,1
   1783c:	00075463          	bgez	a4,17844 <__hi0bits+0x6c>
   17840:	00008067          	ret
   17844:	02000513          	li	a0,32
   17848:	00008067          	ret

000000000001784c <__lo0bits>:
   1784c:	00052783          	lw	a5,0(a0)
   17850:	0077f713          	andi	a4,a5,7
   17854:	00078613          	mv	a2,a5
   17858:	02070663          	beqz	a4,17884 <__lo0bits+0x38>
   1785c:	0017f693          	andi	a3,a5,1
   17860:	00000713          	li	a4,0
   17864:	00069c63          	bnez	a3,1787c <__lo0bits+0x30>
   17868:	00267613          	andi	a2,a2,2
   1786c:	08060463          	beqz	a2,178f4 <__lo0bits+0xa8>
   17870:	0017d79b          	srliw	a5,a5,0x1
   17874:	00f52023          	sw	a5,0(a0)
   17878:	00100713          	li	a4,1
   1787c:	00070513          	mv	a0,a4
   17880:	00008067          	ret
   17884:	03079693          	slli	a3,a5,0x30
   17888:	0306d693          	srli	a3,a3,0x30
   1788c:	00000713          	li	a4,0
   17890:	00069663          	bnez	a3,1789c <__lo0bits+0x50>
   17894:	0107d79b          	srliw	a5,a5,0x10
   17898:	01000713          	li	a4,16
   1789c:	0ff7f693          	andi	a3,a5,255
   178a0:	00069663          	bnez	a3,178ac <__lo0bits+0x60>
   178a4:	0087071b          	addiw	a4,a4,8
   178a8:	0087d79b          	srliw	a5,a5,0x8
   178ac:	00f7f693          	andi	a3,a5,15
   178b0:	00069663          	bnez	a3,178bc <__lo0bits+0x70>
   178b4:	0047071b          	addiw	a4,a4,4
   178b8:	0047d79b          	srliw	a5,a5,0x4
   178bc:	0037f693          	andi	a3,a5,3
   178c0:	00069663          	bnez	a3,178cc <__lo0bits+0x80>
   178c4:	0027071b          	addiw	a4,a4,2
   178c8:	0027d79b          	srliw	a5,a5,0x2
   178cc:	0017f693          	andi	a3,a5,1
   178d0:	00069863          	bnez	a3,178e0 <__lo0bits+0x94>
   178d4:	0017d79b          	srliw	a5,a5,0x1
   178d8:	0017071b          	addiw	a4,a4,1
   178dc:	00078863          	beqz	a5,178ec <__lo0bits+0xa0>
   178e0:	00f52023          	sw	a5,0(a0)
   178e4:	00070513          	mv	a0,a4
   178e8:	00008067          	ret
   178ec:	02000713          	li	a4,32
   178f0:	f8dff06f          	j	1787c <__lo0bits+0x30>
   178f4:	0027d79b          	srliw	a5,a5,0x2
   178f8:	00200713          	li	a4,2
   178fc:	00f52023          	sw	a5,0(a0)
   17900:	00070513          	mv	a0,a4
   17904:	00008067          	ret

0000000000017908 <__i2b>:
   17908:	ff010113          	addi	sp,sp,-16
   1790c:	00813023          	sd	s0,0(sp)
   17910:	00058413          	mv	s0,a1
   17914:	00100593          	li	a1,1
   17918:	00113423          	sd	ra,8(sp)
   1791c:	b5dff0ef          	jal	ra,17478 <_Balloc>
   17920:	00852c23          	sw	s0,24(a0)
   17924:	00813083          	ld	ra,8(sp)
   17928:	00013403          	ld	s0,0(sp)
   1792c:	00100713          	li	a4,1
   17930:	00e52a23          	sw	a4,20(a0)
   17934:	01010113          	addi	sp,sp,16
   17938:	00008067          	ret

000000000001793c <__multiply>:
   1793c:	f7010113          	addi	sp,sp,-144
   17940:	07413023          	sd	s4,96(sp)
   17944:	03913c23          	sd	s9,56(sp)
   17948:	01462a03          	lw	s4,20(a2)
   1794c:	0145ac83          	lw	s9,20(a1)
   17950:	05513c23          	sd	s5,88(sp)
   17954:	03a13823          	sd	s10,48(sp)
   17958:	08113423          	sd	ra,136(sp)
   1795c:	08813023          	sd	s0,128(sp)
   17960:	06913c23          	sd	s1,120(sp)
   17964:	07213823          	sd	s2,112(sp)
   17968:	07313423          	sd	s3,104(sp)
   1796c:	05613823          	sd	s6,80(sp)
   17970:	05713423          	sd	s7,72(sp)
   17974:	05813023          	sd	s8,64(sp)
   17978:	03b13423          	sd	s11,40(sp)
   1797c:	00058a93          	mv	s5,a1
   17980:	00060d13          	mv	s10,a2
   17984:	014ccc63          	blt	s9,s4,1799c <__multiply+0x60>
   17988:	000a0793          	mv	a5,s4
   1798c:	00058d13          	mv	s10,a1
   17990:	000c8a13          	mv	s4,s9
   17994:	00060a93          	mv	s5,a2
   17998:	00078c93          	mv	s9,a5
   1799c:	00cd2783          	lw	a5,12(s10) # 100c <register_fini-0xf0a4>
   179a0:	019a0bbb          	addw	s7,s4,s9
   179a4:	008d2583          	lw	a1,8(s10)
   179a8:	0177d463          	bge	a5,s7,179b0 <__multiply+0x74>
   179ac:	0015859b          	addiw	a1,a1,1
   179b0:	ac9ff0ef          	jal	ra,17478 <_Balloc>
   179b4:	01850c13          	addi	s8,a0,24
   179b8:	002b9b13          	slli	s6,s7,0x2
   179bc:	016c07b3          	add	a5,s8,s6
   179c0:	00078713          	mv	a4,a5
   179c4:	00f13023          	sd	a5,0(sp)
   179c8:	00a13c23          	sd	a0,24(sp)
   179cc:	000c0793          	mv	a5,s8
   179d0:	00ec7a63          	bgeu	s8,a4,179e4 <__multiply+0xa8>
   179d4:	00013703          	ld	a4,0(sp)
   179d8:	0007a023          	sw	zero,0(a5)
   179dc:	00478793          	addi	a5,a5,4
   179e0:	fee7eae3          	bltu	a5,a4,179d4 <__multiply+0x98>
   179e4:	018a8a93          	addi	s5,s5,24
   179e8:	002c9c93          	slli	s9,s9,0x2
   179ec:	018d0793          	addi	a5,s10,24
   179f0:	019a8733          	add	a4,s5,s9
   179f4:	002a1a13          	slli	s4,s4,0x2
   179f8:	00010937          	lui	s2,0x10
   179fc:	00f13823          	sd	a5,16(sp)
   17a00:	00e13423          	sd	a4,8(sp)
   17a04:	01478a33          	add	s4,a5,s4
   17a08:	fff90913          	addi	s2,s2,-1 # ffff <register_fini-0xb1>
   17a0c:	02eae063          	bltu	s5,a4,17a2c <__multiply+0xf0>
   17a10:	1280006f          	j	17b38 <__multiply+0x1fc>
   17a14:	0104541b          	srliw	s0,s0,0x10
   17a18:	08041c63          	bnez	s0,17ab0 <__multiply+0x174>
   17a1c:	00813783          	ld	a5,8(sp)
   17a20:	004a8a93          	addi	s5,s5,4
   17a24:	004c0c13          	addi	s8,s8,4
   17a28:	10faf863          	bgeu	s5,a5,17b38 <__multiply+0x1fc>
   17a2c:	000aa403          	lw	s0,0(s5)
   17a30:	012479b3          	and	s3,s0,s2
   17a34:	fe0980e3          	beqz	s3,17a14 <__multiply+0xd8>
   17a38:	01013d83          	ld	s11,16(sp)
   17a3c:	000c0c93          	mv	s9,s8
   17a40:	00000d13          	li	s10,0
   17a44:	000dab03          	lw	s6,0(s11)
   17a48:	000ca483          	lw	s1,0(s9)
   17a4c:	00098593          	mv	a1,s3
   17a50:	012b7533          	and	a0,s6,s2
   17a54:	5d0090ef          	jal	ra,21024 <__muldi3>
   17a58:	0124f433          	and	s0,s1,s2
   17a5c:	0085043b          	addw	s0,a0,s0
   17a60:	00098593          	mv	a1,s3
   17a64:	010b551b          	srliw	a0,s6,0x10
   17a68:	01a4043b          	addw	s0,s0,s10
   17a6c:	5b8090ef          	jal	ra,21024 <__muldi3>
   17a70:	0104d49b          	srliw	s1,s1,0x10
   17a74:	00a4853b          	addw	a0,s1,a0
   17a78:	0104549b          	srliw	s1,s0,0x10
   17a7c:	0095053b          	addw	a0,a0,s1
   17a80:	0105169b          	slliw	a3,a0,0x10
   17a84:	00897433          	and	s0,s2,s0
   17a88:	004c8c93          	addi	s9,s9,4
   17a8c:	00d46433          	or	s0,s0,a3
   17a90:	004d8d93          	addi	s11,s11,4
   17a94:	fe8cae23          	sw	s0,-4(s9)
   17a98:	01055d1b          	srliw	s10,a0,0x10
   17a9c:	fb4de4e3          	bltu	s11,s4,17a44 <__multiply+0x108>
   17aa0:	01aca023          	sw	s10,0(s9)
   17aa4:	000aa403          	lw	s0,0(s5)
   17aa8:	0104541b          	srliw	s0,s0,0x10
   17aac:	f60408e3          	beqz	s0,17a1c <__multiply+0xe0>
   17ab0:	000c2d03          	lw	s10,0(s8)
   17ab4:	01013c83          	ld	s9,16(sp)
   17ab8:	000c0d93          	mv	s11,s8
   17abc:	000d0493          	mv	s1,s10
   17ac0:	00000993          	li	s3,0
   17ac4:	000ca503          	lw	a0,0(s9)
   17ac8:	00040593          	mv	a1,s0
   17acc:	0104d49b          	srliw	s1,s1,0x10
   17ad0:	00a97533          	and	a0,s2,a0
   17ad4:	550090ef          	jal	ra,21024 <__muldi3>
   17ad8:	00a484bb          	addw	s1,s1,a0
   17adc:	013489bb          	addw	s3,s1,s3
   17ae0:	0109961b          	slliw	a2,s3,0x10
   17ae4:	012d77b3          	and	a5,s10,s2
   17ae8:	00c7e7b3          	or	a5,a5,a2
   17aec:	004d8d93          	addi	s11,s11,4
   17af0:	fefdae23          	sw	a5,-4(s11)
   17af4:	004c8c93          	addi	s9,s9,4
   17af8:	ffecd503          	lhu	a0,-2(s9)
   17afc:	000da483          	lw	s1,0(s11)
   17b00:	00040593          	mv	a1,s0
   17b04:	520090ef          	jal	ra,21024 <__muldi3>
   17b08:	0124f7b3          	and	a5,s1,s2
   17b0c:	0109d99b          	srliw	s3,s3,0x10
   17b10:	00f5053b          	addw	a0,a0,a5
   17b14:	0135053b          	addw	a0,a0,s3
   17b18:	00050d1b          	sext.w	s10,a0
   17b1c:	0105599b          	srliw	s3,a0,0x10
   17b20:	fb4ce2e3          	bltu	s9,s4,17ac4 <__multiply+0x188>
   17b24:	00813783          	ld	a5,8(sp)
   17b28:	01ada023          	sw	s10,0(s11)
   17b2c:	004a8a93          	addi	s5,s5,4
   17b30:	004c0c13          	addi	s8,s8,4
   17b34:	eefaece3          	bltu	s5,a5,17a2c <__multiply+0xf0>
   17b38:	03705663          	blez	s7,17b64 <__multiply+0x228>
   17b3c:	00013703          	ld	a4,0(sp)
   17b40:	ffc72783          	lw	a5,-4(a4) # ffffffffbffffffc <__BSS_END__+0xffffffffbffdcdf4>
   17b44:	ffc70b13          	addi	s6,a4,-4
   17b48:	00078863          	beqz	a5,17b58 <__multiply+0x21c>
   17b4c:	0180006f          	j	17b64 <__multiply+0x228>
   17b50:	000b2783          	lw	a5,0(s6)
   17b54:	00079863          	bnez	a5,17b64 <__multiply+0x228>
   17b58:	fffb8b9b          	addiw	s7,s7,-1
   17b5c:	ffcb0b13          	addi	s6,s6,-4
   17b60:	fe0b98e3          	bnez	s7,17b50 <__multiply+0x214>
   17b64:	01813783          	ld	a5,24(sp)
   17b68:	08813083          	ld	ra,136(sp)
   17b6c:	08013403          	ld	s0,128(sp)
   17b70:	0177aa23          	sw	s7,20(a5)
   17b74:	07813483          	ld	s1,120(sp)
   17b78:	07013903          	ld	s2,112(sp)
   17b7c:	06813983          	ld	s3,104(sp)
   17b80:	06013a03          	ld	s4,96(sp)
   17b84:	05813a83          	ld	s5,88(sp)
   17b88:	05013b03          	ld	s6,80(sp)
   17b8c:	04813b83          	ld	s7,72(sp)
   17b90:	04013c03          	ld	s8,64(sp)
   17b94:	03813c83          	ld	s9,56(sp)
   17b98:	03013d03          	ld	s10,48(sp)
   17b9c:	02813d83          	ld	s11,40(sp)
   17ba0:	00078513          	mv	a0,a5
   17ba4:	09010113          	addi	sp,sp,144
   17ba8:	00008067          	ret

0000000000017bac <__pow5mult>:
   17bac:	fd010113          	addi	sp,sp,-48
   17bb0:	02813023          	sd	s0,32(sp)
   17bb4:	01313423          	sd	s3,8(sp)
   17bb8:	01413023          	sd	s4,0(sp)
   17bbc:	02113423          	sd	ra,40(sp)
   17bc0:	00913c23          	sd	s1,24(sp)
   17bc4:	01213823          	sd	s2,16(sp)
   17bc8:	00367793          	andi	a5,a2,3
   17bcc:	00060413          	mv	s0,a2
   17bd0:	00050993          	mv	s3,a0
   17bd4:	00058a13          	mv	s4,a1
   17bd8:	0c079463          	bnez	a5,17ca0 <__pow5mult+0xf4>
   17bdc:	40245413          	srai	s0,s0,0x2
   17be0:	000a0913          	mv	s2,s4
   17be4:	06040863          	beqz	s0,17c54 <__pow5mult+0xa8>
   17be8:	0709b483          	ld	s1,112(s3)
   17bec:	0c048e63          	beqz	s1,17cc8 <__pow5mult+0x11c>
   17bf0:	00147793          	andi	a5,s0,1
   17bf4:	000a0913          	mv	s2,s4
   17bf8:	02079063          	bnez	a5,17c18 <__pow5mult+0x6c>
   17bfc:	40145413          	srai	s0,s0,0x1
   17c00:	04040a63          	beqz	s0,17c54 <__pow5mult+0xa8>
   17c04:	0004b503          	ld	a0,0(s1)
   17c08:	06050863          	beqz	a0,17c78 <__pow5mult+0xcc>
   17c0c:	00050493          	mv	s1,a0
   17c10:	00147793          	andi	a5,s0,1
   17c14:	fe0784e3          	beqz	a5,17bfc <__pow5mult+0x50>
   17c18:	00048613          	mv	a2,s1
   17c1c:	00090593          	mv	a1,s2
   17c20:	00098513          	mv	a0,s3
   17c24:	d19ff0ef          	jal	ra,1793c <__multiply>
   17c28:	06090863          	beqz	s2,17c98 <__pow5mult+0xec>
   17c2c:	00892703          	lw	a4,8(s2)
   17c30:	0789b783          	ld	a5,120(s3)
   17c34:	40145413          	srai	s0,s0,0x1
   17c38:	00371713          	slli	a4,a4,0x3
   17c3c:	00e787b3          	add	a5,a5,a4
   17c40:	0007b703          	ld	a4,0(a5)
   17c44:	00e93023          	sd	a4,0(s2)
   17c48:	0127b023          	sd	s2,0(a5)
   17c4c:	00050913          	mv	s2,a0
   17c50:	fa041ae3          	bnez	s0,17c04 <__pow5mult+0x58>
   17c54:	02813083          	ld	ra,40(sp)
   17c58:	02013403          	ld	s0,32(sp)
   17c5c:	00090513          	mv	a0,s2
   17c60:	01813483          	ld	s1,24(sp)
   17c64:	01013903          	ld	s2,16(sp)
   17c68:	00813983          	ld	s3,8(sp)
   17c6c:	00013a03          	ld	s4,0(sp)
   17c70:	03010113          	addi	sp,sp,48
   17c74:	00008067          	ret
   17c78:	00048613          	mv	a2,s1
   17c7c:	00048593          	mv	a1,s1
   17c80:	00098513          	mv	a0,s3
   17c84:	cb9ff0ef          	jal	ra,1793c <__multiply>
   17c88:	00a4b023          	sd	a0,0(s1)
   17c8c:	00053023          	sd	zero,0(a0)
   17c90:	00050493          	mv	s1,a0
   17c94:	f7dff06f          	j	17c10 <__pow5mult+0x64>
   17c98:	00050913          	mv	s2,a0
   17c9c:	f61ff06f          	j	17bfc <__pow5mult+0x50>
   17ca0:	fff7879b          	addiw	a5,a5,-1
   17ca4:	0000a717          	auipc	a4,0xa
   17ca8:	9f470713          	addi	a4,a4,-1548 # 21698 <p05.3332>
   17cac:	00279793          	slli	a5,a5,0x2
   17cb0:	00f707b3          	add	a5,a4,a5
   17cb4:	0007a603          	lw	a2,0(a5)
   17cb8:	00000693          	li	a3,0
   17cbc:	889ff0ef          	jal	ra,17544 <__multadd>
   17cc0:	00050a13          	mv	s4,a0
   17cc4:	f19ff06f          	j	17bdc <__pow5mult+0x30>
   17cc8:	00100593          	li	a1,1
   17ccc:	00098513          	mv	a0,s3
   17cd0:	fa8ff0ef          	jal	ra,17478 <_Balloc>
   17cd4:	27100793          	li	a5,625
   17cd8:	00f52c23          	sw	a5,24(a0)
   17cdc:	00100793          	li	a5,1
   17ce0:	00f52a23          	sw	a5,20(a0)
   17ce4:	06a9b823          	sd	a0,112(s3)
   17ce8:	00050493          	mv	s1,a0
   17cec:	00053023          	sd	zero,0(a0)
   17cf0:	f01ff06f          	j	17bf0 <__pow5mult+0x44>

0000000000017cf4 <__lshift>:
   17cf4:	fc010113          	addi	sp,sp,-64
   17cf8:	01313c23          	sd	s3,24(sp)
   17cfc:	0145a983          	lw	s3,20(a1)
   17d00:	01613023          	sd	s6,0(sp)
   17d04:	00c5a783          	lw	a5,12(a1)
   17d08:	40565b1b          	sraiw	s6,a2,0x5
   17d0c:	016989bb          	addw	s3,s3,s6
   17d10:	02813823          	sd	s0,48(sp)
   17d14:	02913423          	sd	s1,40(sp)
   17d18:	03213023          	sd	s2,32(sp)
   17d1c:	01413823          	sd	s4,16(sp)
   17d20:	01513423          	sd	s5,8(sp)
   17d24:	02113c23          	sd	ra,56(sp)
   17d28:	0019849b          	addiw	s1,s3,1
   17d2c:	00058913          	mv	s2,a1
   17d30:	00060a93          	mv	s5,a2
   17d34:	000b0413          	mv	s0,s6
   17d38:	00050a13          	mv	s4,a0
   17d3c:	0085a583          	lw	a1,8(a1)
   17d40:	0097d863          	bge	a5,s1,17d50 <__lshift+0x5c>
   17d44:	0017979b          	slliw	a5,a5,0x1
   17d48:	0015859b          	addiw	a1,a1,1
   17d4c:	fe97cce3          	blt	a5,s1,17d44 <__lshift+0x50>
   17d50:	000a0513          	mv	a0,s4
   17d54:	f24ff0ef          	jal	ra,17478 <_Balloc>
   17d58:	01850713          	addi	a4,a0,24
   17d5c:	03605c63          	blez	s6,17d94 <__lshift+0xa0>
   17d60:	fff4041b          	addiw	s0,s0,-1
   17d64:	02041413          	slli	s0,s0,0x20
   17d68:	02045413          	srli	s0,s0,0x20
   17d6c:	00740693          	addi	a3,s0,7
   17d70:	00269693          	slli	a3,a3,0x2
   17d74:	00d506b3          	add	a3,a0,a3
   17d78:	00070793          	mv	a5,a4
   17d7c:	00478793          	addi	a5,a5,4
   17d80:	fe07ae23          	sw	zero,-4(a5)
   17d84:	fed79ce3          	bne	a5,a3,17d7c <__lshift+0x88>
   17d88:	00140413          	addi	s0,s0,1
   17d8c:	00241413          	slli	s0,s0,0x2
   17d90:	00870733          	add	a4,a4,s0
   17d94:	01492803          	lw	a6,20(s2)
   17d98:	01890793          	addi	a5,s2,24
   17d9c:	01faf613          	andi	a2,s5,31
   17da0:	00281813          	slli	a6,a6,0x2
   17da4:	01078833          	add	a6,a5,a6
   17da8:	08060463          	beqz	a2,17e30 <__lshift+0x13c>
   17dac:	02000893          	li	a7,32
   17db0:	40c888bb          	subw	a7,a7,a2
   17db4:	00000693          	li	a3,0
   17db8:	0007a583          	lw	a1,0(a5)
   17dbc:	00470713          	addi	a4,a4,4
   17dc0:	00478793          	addi	a5,a5,4
   17dc4:	00c595bb          	sllw	a1,a1,a2
   17dc8:	00b6e6b3          	or	a3,a3,a1
   17dcc:	fed72e23          	sw	a3,-4(a4)
   17dd0:	ffc7a683          	lw	a3,-4(a5)
   17dd4:	0116d6bb          	srlw	a3,a3,a7
   17dd8:	ff07e0e3          	bltu	a5,a6,17db8 <__lshift+0xc4>
   17ddc:	00d72023          	sw	a3,0(a4)
   17de0:	00068463          	beqz	a3,17de8 <__lshift+0xf4>
   17de4:	00048993          	mv	s3,s1
   17de8:	00892703          	lw	a4,8(s2)
   17dec:	078a3783          	ld	a5,120(s4)
   17df0:	03813083          	ld	ra,56(sp)
   17df4:	00371713          	slli	a4,a4,0x3
   17df8:	00e787b3          	add	a5,a5,a4
   17dfc:	0007b703          	ld	a4,0(a5)
   17e00:	01352a23          	sw	s3,20(a0)
   17e04:	03013403          	ld	s0,48(sp)
   17e08:	00e93023          	sd	a4,0(s2)
   17e0c:	0127b023          	sd	s2,0(a5)
   17e10:	02813483          	ld	s1,40(sp)
   17e14:	02013903          	ld	s2,32(sp)
   17e18:	01813983          	ld	s3,24(sp)
   17e1c:	01013a03          	ld	s4,16(sp)
   17e20:	00813a83          	ld	s5,8(sp)
   17e24:	00013b03          	ld	s6,0(sp)
   17e28:	04010113          	addi	sp,sp,64
   17e2c:	00008067          	ret
   17e30:	00478793          	addi	a5,a5,4
   17e34:	ffc7a683          	lw	a3,-4(a5)
   17e38:	00470713          	addi	a4,a4,4
   17e3c:	fed72e23          	sw	a3,-4(a4)
   17e40:	fb07f4e3          	bgeu	a5,a6,17de8 <__lshift+0xf4>
   17e44:	00478793          	addi	a5,a5,4
   17e48:	ffc7a683          	lw	a3,-4(a5)
   17e4c:	00470713          	addi	a4,a4,4
   17e50:	fed72e23          	sw	a3,-4(a4)
   17e54:	fd07eee3          	bltu	a5,a6,17e30 <__lshift+0x13c>
   17e58:	f91ff06f          	j	17de8 <__lshift+0xf4>

0000000000017e5c <__mcmp>:
   17e5c:	00050613          	mv	a2,a0
   17e60:	0145a783          	lw	a5,20(a1)
   17e64:	01452503          	lw	a0,20(a0)
   17e68:	40f5053b          	subw	a0,a0,a5
   17e6c:	02051e63          	bnez	a0,17ea8 <__mcmp+0x4c>
   17e70:	00279713          	slli	a4,a5,0x2
   17e74:	01860613          	addi	a2,a2,24
   17e78:	01858593          	addi	a1,a1,24
   17e7c:	00e607b3          	add	a5,a2,a4
   17e80:	00e585b3          	add	a1,a1,a4
   17e84:	0080006f          	j	17e8c <__mcmp+0x30>
   17e88:	02f67063          	bgeu	a2,a5,17ea8 <__mcmp+0x4c>
   17e8c:	ffc78793          	addi	a5,a5,-4
   17e90:	ffc58593          	addi	a1,a1,-4
   17e94:	0007a683          	lw	a3,0(a5)
   17e98:	0005a703          	lw	a4,0(a1)
   17e9c:	fee686e3          	beq	a3,a4,17e88 <__mcmp+0x2c>
   17ea0:	fff00513          	li	a0,-1
   17ea4:	00e6f463          	bgeu	a3,a4,17eac <__mcmp+0x50>
   17ea8:	00008067          	ret
   17eac:	00100513          	li	a0,1
   17eb0:	00008067          	ret

0000000000017eb4 <__mdiff>:
   17eb4:	fd010113          	addi	sp,sp,-48
   17eb8:	01213823          	sd	s2,16(sp)
   17ebc:	01462703          	lw	a4,20(a2)
   17ec0:	0145a903          	lw	s2,20(a1)
   17ec4:	02813023          	sd	s0,32(sp)
   17ec8:	00913c23          	sd	s1,24(sp)
   17ecc:	01313423          	sd	s3,8(sp)
   17ed0:	01413023          	sd	s4,0(sp)
   17ed4:	02113423          	sd	ra,40(sp)
   17ed8:	40e9093b          	subw	s2,s2,a4
   17edc:	00058993          	mv	s3,a1
   17ee0:	00060a13          	mv	s4,a2
   17ee4:	01858413          	addi	s0,a1,24
   17ee8:	01860493          	addi	s1,a2,24
   17eec:	04091863          	bnez	s2,17f3c <__mdiff+0x88>
   17ef0:	00271713          	slli	a4,a4,0x2
   17ef4:	00e407b3          	add	a5,s0,a4
   17ef8:	00e48733          	add	a4,s1,a4
   17efc:	0080006f          	j	17f04 <__mdiff+0x50>
   17f00:	16f47663          	bgeu	s0,a5,1806c <__mdiff+0x1b8>
   17f04:	ffc78793          	addi	a5,a5,-4
   17f08:	ffc70713          	addi	a4,a4,-4
   17f0c:	0007a583          	lw	a1,0(a5)
   17f10:	00072683          	lw	a3,0(a4)
   17f14:	fed586e3          	beq	a1,a3,17f00 <__mdiff+0x4c>
   17f18:	02d5f663          	bgeu	a1,a3,17f44 <__mdiff+0x90>
   17f1c:	00040713          	mv	a4,s0
   17f20:	00098793          	mv	a5,s3
   17f24:	00048413          	mv	s0,s1
   17f28:	000a0993          	mv	s3,s4
   17f2c:	00070493          	mv	s1,a4
   17f30:	00078a13          	mv	s4,a5
   17f34:	00100913          	li	s2,1
   17f38:	00c0006f          	j	17f44 <__mdiff+0x90>
   17f3c:	fe0940e3          	bltz	s2,17f1c <__mdiff+0x68>
   17f40:	00000913          	li	s2,0
   17f44:	0089a583          	lw	a1,8(s3)
   17f48:	d30ff0ef          	jal	ra,17478 <_Balloc>
   17f4c:	0149a883          	lw	a7,20(s3)
   17f50:	014a2e83          	lw	t4,20(s4)
   17f54:	00010e37          	lui	t3,0x10
   17f58:	00289313          	slli	t1,a7,0x2
   17f5c:	002e9e93          	slli	t4,t4,0x2
   17f60:	01252823          	sw	s2,16(a0)
   17f64:	00640333          	add	t1,s0,t1
   17f68:	01d48eb3          	add	t4,s1,t4
   17f6c:	01850593          	addi	a1,a0,24
   17f70:	00000713          	li	a4,0
   17f74:	fffe0e13          	addi	t3,t3,-1 # ffff <register_fini-0xb1>
   17f78:	0080006f          	j	17f80 <__mdiff+0xcc>
   17f7c:	00080593          	mv	a1,a6
   17f80:	00042683          	lw	a3,0(s0)
   17f84:	0004a603          	lw	a2,0(s1)
   17f88:	00458813          	addi	a6,a1,4
   17f8c:	01c6f7b3          	and	a5,a3,t3
   17f90:	00e787bb          	addw	a5,a5,a4
   17f94:	01c67733          	and	a4,a2,t3
   17f98:	40e787bb          	subw	a5,a5,a4
   17f9c:	0106561b          	srliw	a2,a2,0x10
   17fa0:	0106d71b          	srliw	a4,a3,0x10
   17fa4:	40c7073b          	subw	a4,a4,a2
   17fa8:	4107d69b          	sraiw	a3,a5,0x10
   17fac:	00d7073b          	addw	a4,a4,a3
   17fb0:	0107169b          	slliw	a3,a4,0x10
   17fb4:	01c7f7b3          	and	a5,a5,t3
   17fb8:	00d7e7b3          	or	a5,a5,a3
   17fbc:	0007879b          	sext.w	a5,a5
   17fc0:	00448493          	addi	s1,s1,4
   17fc4:	fef82e23          	sw	a5,-4(a6)
   17fc8:	00440413          	addi	s0,s0,4
   17fcc:	4107571b          	sraiw	a4,a4,0x10
   17fd0:	fbd4e6e3          	bltu	s1,t4,17f7c <__mdiff+0xc8>
   17fd4:	06647063          	bgeu	s0,t1,18034 <__mdiff+0x180>
   17fd8:	00010e37          	lui	t3,0x10
   17fdc:	00080593          	mv	a1,a6
   17fe0:	00040613          	mv	a2,s0
   17fe4:	fffe0e13          	addi	t3,t3,-1 # ffff <register_fini-0xb1>
   17fe8:	00062683          	lw	a3,0(a2)
   17fec:	00458593          	addi	a1,a1,4
   17ff0:	00460613          	addi	a2,a2,4
   17ff4:	01c6f7b3          	and	a5,a3,t3
   17ff8:	00e787bb          	addw	a5,a5,a4
   17ffc:	0106d71b          	srliw	a4,a3,0x10
   18000:	4107d69b          	sraiw	a3,a5,0x10
   18004:	00d7073b          	addw	a4,a4,a3
   18008:	0107169b          	slliw	a3,a4,0x10
   1800c:	01c7f7b3          	and	a5,a5,t3
   18010:	00d7e7b3          	or	a5,a5,a3
   18014:	0007879b          	sext.w	a5,a5
   18018:	fef5ae23          	sw	a5,-4(a1)
   1801c:	4107571b          	sraiw	a4,a4,0x10
   18020:	fc6664e3          	bltu	a2,t1,17fe8 <__mdiff+0x134>
   18024:	fff30593          	addi	a1,t1,-1
   18028:	408585b3          	sub	a1,a1,s0
   1802c:	ffc5f593          	andi	a1,a1,-4
   18030:	00b805b3          	add	a1,a6,a1
   18034:	00079a63          	bnez	a5,18048 <__mdiff+0x194>
   18038:	ffc58593          	addi	a1,a1,-4
   1803c:	0005a783          	lw	a5,0(a1)
   18040:	fff8889b          	addiw	a7,a7,-1
   18044:	fe078ae3          	beqz	a5,18038 <__mdiff+0x184>
   18048:	02813083          	ld	ra,40(sp)
   1804c:	02013403          	ld	s0,32(sp)
   18050:	01152a23          	sw	a7,20(a0)
   18054:	01813483          	ld	s1,24(sp)
   18058:	01013903          	ld	s2,16(sp)
   1805c:	00813983          	ld	s3,8(sp)
   18060:	00013a03          	ld	s4,0(sp)
   18064:	03010113          	addi	sp,sp,48
   18068:	00008067          	ret
   1806c:	00000593          	li	a1,0
   18070:	c08ff0ef          	jal	ra,17478 <_Balloc>
   18074:	02813083          	ld	ra,40(sp)
   18078:	02013403          	ld	s0,32(sp)
   1807c:	00100793          	li	a5,1
   18080:	00f52a23          	sw	a5,20(a0)
   18084:	00052c23          	sw	zero,24(a0)
   18088:	01813483          	ld	s1,24(sp)
   1808c:	01013903          	ld	s2,16(sp)
   18090:	00813983          	ld	s3,8(sp)
   18094:	00013a03          	ld	s4,0(sp)
   18098:	03010113          	addi	sp,sp,48
   1809c:	00008067          	ret

00000000000180a0 <__ulp>:
   180a0:	02055513          	srli	a0,a0,0x20
   180a4:	7ff007b7          	lui	a5,0x7ff00
   180a8:	00f577b3          	and	a5,a0,a5
   180ac:	fcc00537          	lui	a0,0xfcc00
   180b0:	00f5053b          	addw	a0,a0,a5
   180b4:	0005079b          	sext.w	a5,a0
   180b8:	00f05663          	blez	a5,180c4 <__ulp+0x24>
   180bc:	02051513          	slli	a0,a0,0x20
   180c0:	00008067          	ret
   180c4:	40a0053b          	negw	a0,a0
   180c8:	4145579b          	sraiw	a5,a0,0x14
   180cc:	01300713          	li	a4,19
   180d0:	00f74a63          	blt	a4,a5,180e4 <__ulp+0x44>
   180d4:	00080537          	lui	a0,0x80
   180d8:	40f5553b          	sraw	a0,a0,a5
   180dc:	02051513          	slli	a0,a0,0x20
   180e0:	00008067          	ret
   180e4:	fec7871b          	addiw	a4,a5,-20
   180e8:	01e00693          	li	a3,30
   180ec:	00000513          	li	a0,0
   180f0:	00100793          	li	a5,1
   180f4:	00e6c663          	blt	a3,a4,18100 <__ulp+0x60>
   180f8:	800007b7          	lui	a5,0x80000
   180fc:	00e7d7bb          	srlw	a5,a5,a4
   18100:	02055513          	srli	a0,a0,0x20
   18104:	02079793          	slli	a5,a5,0x20
   18108:	0207d793          	srli	a5,a5,0x20
   1810c:	02051513          	slli	a0,a0,0x20
   18110:	00f56533          	or	a0,a0,a5
   18114:	00008067          	ret

0000000000018118 <__b2d>:
   18118:	fd010113          	addi	sp,sp,-48
   1811c:	02813023          	sd	s0,32(sp)
   18120:	01452403          	lw	s0,20(a0) # 80014 <__BSS_END__+0x5ce0c>
   18124:	01213823          	sd	s2,16(sp)
   18128:	01850913          	addi	s2,a0,24
   1812c:	00241413          	slli	s0,s0,0x2
   18130:	00890433          	add	s0,s2,s0
   18134:	00913c23          	sd	s1,24(sp)
   18138:	ffc42483          	lw	s1,-4(s0)
   1813c:	01313423          	sd	s3,8(sp)
   18140:	01413023          	sd	s4,0(sp)
   18144:	00048513          	mv	a0,s1
   18148:	00058a13          	mv	s4,a1
   1814c:	02113423          	sd	ra,40(sp)
   18150:	e88ff0ef          	jal	ra,177d8 <__hi0bits>
   18154:	02000693          	li	a3,32
   18158:	40a687bb          	subw	a5,a3,a0
   1815c:	00fa2023          	sw	a5,0(s4)
   18160:	00a00793          	li	a5,10
   18164:	ffc40993          	addi	s3,s0,-4
   18168:	0aa7d663          	bge	a5,a0,18214 <__b2d+0xfc>
   1816c:	ff55079b          	addiw	a5,a0,-11
   18170:	07397063          	bgeu	s2,s3,181d0 <__b2d+0xb8>
   18174:	ff842703          	lw	a4,-8(s0)
   18178:	06078063          	beqz	a5,181d8 <__b2d+0xc0>
   1817c:	40f6853b          	subw	a0,a3,a5
   18180:	00f496bb          	sllw	a3,s1,a5
   18184:	00a754bb          	srlw	s1,a4,a0
   18188:	0096e6b3          	or	a3,a3,s1
   1818c:	3ff004b7          	lui	s1,0x3ff00
   18190:	0096e6b3          	or	a3,a3,s1
   18194:	00f7173b          	sllw	a4,a4,a5
   18198:	ff840613          	addi	a2,s0,-8
   1819c:	02069793          	slli	a5,a3,0x20
   181a0:	0007069b          	sext.w	a3,a4
   181a4:	00c97a63          	bgeu	s2,a2,181b8 <__b2d+0xa0>
   181a8:	ff442683          	lw	a3,-12(s0)
   181ac:	00a6d53b          	srlw	a0,a3,a0
   181b0:	00e566b3          	or	a3,a0,a4
   181b4:	0006869b          	sext.w	a3,a3
   181b8:	0207d793          	srli	a5,a5,0x20
   181bc:	02069693          	slli	a3,a3,0x20
   181c0:	0206d693          	srli	a3,a3,0x20
   181c4:	02079793          	slli	a5,a5,0x20
   181c8:	00d7e7b3          	or	a5,a5,a3
   181cc:	0240006f          	j	181f0 <__b2d+0xd8>
   181d0:	00000713          	li	a4,0
   181d4:	08079663          	bnez	a5,18260 <__b2d+0x148>
   181d8:	3ff007b7          	lui	a5,0x3ff00
   181dc:	00f4e7b3          	or	a5,s1,a5
   181e0:	02071713          	slli	a4,a4,0x20
   181e4:	02075713          	srli	a4,a4,0x20
   181e8:	02079793          	slli	a5,a5,0x20
   181ec:	00e7e7b3          	or	a5,a5,a4
   181f0:	02813083          	ld	ra,40(sp)
   181f4:	02013403          	ld	s0,32(sp)
   181f8:	01813483          	ld	s1,24(sp)
   181fc:	01013903          	ld	s2,16(sp)
   18200:	00813983          	ld	s3,8(sp)
   18204:	00013a03          	ld	s4,0(sp)
   18208:	00078513          	mv	a0,a5
   1820c:	03010113          	addi	sp,sp,48
   18210:	00008067          	ret
   18214:	00b00693          	li	a3,11
   18218:	40a686bb          	subw	a3,a3,a0
   1821c:	3ff00737          	lui	a4,0x3ff00
   18220:	00d4d7bb          	srlw	a5,s1,a3
   18224:	00e7e7b3          	or	a5,a5,a4
   18228:	02079793          	slli	a5,a5,0x20
   1822c:	00000713          	li	a4,0
   18230:	01397663          	bgeu	s2,s3,1823c <__b2d+0x124>
   18234:	ff842703          	lw	a4,-8(s0)
   18238:	00d7573b          	srlw	a4,a4,a3
   1823c:	0155051b          	addiw	a0,a0,21
   18240:	00a494bb          	sllw	s1,s1,a0
   18244:	009764b3          	or	s1,a4,s1
   18248:	0207d793          	srli	a5,a5,0x20
   1824c:	02049493          	slli	s1,s1,0x20
   18250:	0204d493          	srli	s1,s1,0x20
   18254:	02079793          	slli	a5,a5,0x20
   18258:	0097e7b3          	or	a5,a5,s1
   1825c:	f95ff06f          	j	181f0 <__b2d+0xd8>
   18260:	00f497bb          	sllw	a5,s1,a5
   18264:	3ff00537          	lui	a0,0x3ff00
   18268:	00a7e7b3          	or	a5,a5,a0
   1826c:	02079793          	slli	a5,a5,0x20
   18270:	00000693          	li	a3,0
   18274:	f45ff06f          	j	181b8 <__b2d+0xa0>

0000000000018278 <__d2b>:
   18278:	fc010113          	addi	sp,sp,-64
   1827c:	02913423          	sd	s1,40(sp)
   18280:	00058493          	mv	s1,a1
   18284:	00100593          	li	a1,1
   18288:	02813823          	sd	s0,48(sp)
   1828c:	03213023          	sd	s2,32(sp)
   18290:	01313c23          	sd	s3,24(sp)
   18294:	01413823          	sd	s4,16(sp)
   18298:	02113c23          	sd	ra,56(sp)
   1829c:	00060993          	mv	s3,a2
   182a0:	00068913          	mv	s2,a3
   182a4:	9d4ff0ef          	jal	ra,17478 <_Balloc>
   182a8:	4204d793          	srai	a5,s1,0x20
   182ac:	0147d41b          	srliw	s0,a5,0x14
   182b0:	7ff47413          	andi	s0,s0,2047
   182b4:	02c79793          	slli	a5,a5,0x2c
   182b8:	00050a13          	mv	s4,a0
   182bc:	02c7d793          	srli	a5,a5,0x2c
   182c0:	00040663          	beqz	s0,182cc <__d2b+0x54>
   182c4:	00100737          	lui	a4,0x100
   182c8:	00e7e7b3          	or	a5,a5,a4
   182cc:	00f12623          	sw	a5,12(sp)
   182d0:	0004849b          	sext.w	s1,s1
   182d4:	08048e63          	beqz	s1,18370 <__d2b+0xf8>
   182d8:	00810513          	addi	a0,sp,8
   182dc:	00912423          	sw	s1,8(sp)
   182e0:	d6cff0ef          	jal	ra,1784c <__lo0bits>
   182e4:	06051063          	bnez	a0,18344 <__d2b+0xcc>
   182e8:	00812703          	lw	a4,8(sp)
   182ec:	00c12783          	lw	a5,12(sp)
   182f0:	00ea2c23          	sw	a4,24(s4)
   182f4:	00f034b3          	snez	s1,a5
   182f8:	00148493          	addi	s1,s1,1 # 3ff00001 <__BSS_END__+0x3fedcdf9>
   182fc:	00fa2e23          	sw	a5,28(s4)
   18300:	009a2a23          	sw	s1,20(s4)
   18304:	08040863          	beqz	s0,18394 <__d2b+0x11c>
   18308:	bcd4041b          	addiw	s0,s0,-1075
   1830c:	00a4043b          	addw	s0,s0,a0
   18310:	03500793          	li	a5,53
   18314:	0089a023          	sw	s0,0(s3)
   18318:	40a7853b          	subw	a0,a5,a0
   1831c:	00a92023          	sw	a0,0(s2)
   18320:	03813083          	ld	ra,56(sp)
   18324:	03013403          	ld	s0,48(sp)
   18328:	000a0513          	mv	a0,s4
   1832c:	02813483          	ld	s1,40(sp)
   18330:	02013903          	ld	s2,32(sp)
   18334:	01813983          	ld	s3,24(sp)
   18338:	01013a03          	ld	s4,16(sp)
   1833c:	04010113          	addi	sp,sp,64
   18340:	00008067          	ret
   18344:	00c12703          	lw	a4,12(sp)
   18348:	00812683          	lw	a3,8(sp)
   1834c:	02000793          	li	a5,32
   18350:	40a787bb          	subw	a5,a5,a0
   18354:	00f717bb          	sllw	a5,a4,a5
   18358:	00d7e7b3          	or	a5,a5,a3
   1835c:	00a7573b          	srlw	a4,a4,a0
   18360:	00fa2c23          	sw	a5,24(s4)
   18364:	00e12623          	sw	a4,12(sp)
   18368:	0007079b          	sext.w	a5,a4
   1836c:	f89ff06f          	j	182f4 <__d2b+0x7c>
   18370:	00c10513          	addi	a0,sp,12
   18374:	cd8ff0ef          	jal	ra,1784c <__lo0bits>
   18378:	00100793          	li	a5,1
   1837c:	00fa2a23          	sw	a5,20(s4)
   18380:	00c12783          	lw	a5,12(sp)
   18384:	0205051b          	addiw	a0,a0,32
   18388:	00100493          	li	s1,1
   1838c:	00fa2c23          	sw	a5,24(s4)
   18390:	f6041ce3          	bnez	s0,18308 <__d2b+0x90>
   18394:	bce5051b          	addiw	a0,a0,-1074
   18398:	00249793          	slli	a5,s1,0x2
   1839c:	00a9a023          	sw	a0,0(s3)
   183a0:	00fa07b3          	add	a5,s4,a5
   183a4:	0147a503          	lw	a0,20(a5) # 3ff00014 <__BSS_END__+0x3fedce0c>
   183a8:	0054949b          	slliw	s1,s1,0x5
   183ac:	c2cff0ef          	jal	ra,177d8 <__hi0bits>
   183b0:	40a484bb          	subw	s1,s1,a0
   183b4:	00992023          	sw	s1,0(s2)
   183b8:	f69ff06f          	j	18320 <__d2b+0xa8>

00000000000183bc <__ratio>:
   183bc:	fd010113          	addi	sp,sp,-48
   183c0:	00913c23          	sd	s1,24(sp)
   183c4:	00058493          	mv	s1,a1
   183c8:	00810593          	addi	a1,sp,8
   183cc:	02113423          	sd	ra,40(sp)
   183d0:	02813023          	sd	s0,32(sp)
   183d4:	01213823          	sd	s2,16(sp)
   183d8:	00050913          	mv	s2,a0
   183dc:	d3dff0ef          	jal	ra,18118 <__b2d>
   183e0:	00c10593          	addi	a1,sp,12
   183e4:	00050413          	mv	s0,a0
   183e8:	00048513          	mv	a0,s1
   183ec:	d2dff0ef          	jal	ra,18118 <__b2d>
   183f0:	0144a703          	lw	a4,20(s1)
   183f4:	01492783          	lw	a5,20(s2)
   183f8:	00c12683          	lw	a3,12(sp)
   183fc:	00050593          	mv	a1,a0
   18400:	40e787bb          	subw	a5,a5,a4
   18404:	00812703          	lw	a4,8(sp)
   18408:	0057979b          	slliw	a5,a5,0x5
   1840c:	40d7073b          	subw	a4,a4,a3
   18410:	00e7873b          	addw	a4,a5,a4
   18414:	00070793          	mv	a5,a4
   18418:	04e05263          	blez	a4,1845c <__ratio+0xa0>
   1841c:	02045713          	srli	a4,s0,0x20
   18420:	0147979b          	slliw	a5,a5,0x14
   18424:	00e787bb          	addw	a5,a5,a4
   18428:	fff00713          	li	a4,-1
   1842c:	02075713          	srli	a4,a4,0x20
   18430:	02079793          	slli	a5,a5,0x20
   18434:	00877433          	and	s0,a4,s0
   18438:	00f46433          	or	s0,s0,a5
   1843c:	00040513          	mv	a0,s0
   18440:	004070ef          	jal	ra,1f444 <__divdf3>
   18444:	02813083          	ld	ra,40(sp)
   18448:	02013403          	ld	s0,32(sp)
   1844c:	01813483          	ld	s1,24(sp)
   18450:	01013903          	ld	s2,16(sp)
   18454:	03010113          	addi	sp,sp,48
   18458:	00008067          	ret
   1845c:	02055713          	srli	a4,a0,0x20
   18460:	0147979b          	slliw	a5,a5,0x14
   18464:	fff00513          	li	a0,-1
   18468:	40f707bb          	subw	a5,a4,a5
   1846c:	02055513          	srli	a0,a0,0x20
   18470:	02079793          	slli	a5,a5,0x20
   18474:	00b575b3          	and	a1,a0,a1
   18478:	00f5e5b3          	or	a1,a1,a5
   1847c:	fc1ff06f          	j	1843c <__ratio+0x80>

0000000000018480 <_mprec_log10>:
   18480:	fe010113          	addi	sp,sp,-32
   18484:	00813823          	sd	s0,16(sp)
   18488:	00113c23          	sd	ra,24(sp)
   1848c:	00913423          	sd	s1,8(sp)
   18490:	01700793          	li	a5,23
   18494:	00050413          	mv	s0,a0
   18498:	04a7d063          	bge	a5,a0,184d8 <_mprec_log10+0x58>
   1849c:	0000b797          	auipc	a5,0xb
   184a0:	c9478793          	addi	a5,a5,-876 # 23130 <__SDATA_BEGIN__+0x10>
   184a4:	0007b503          	ld	a0,0(a5)
   184a8:	0000b797          	auipc	a5,0xb
   184ac:	c9078793          	addi	a5,a5,-880 # 23138 <__SDATA_BEGIN__+0x18>
   184b0:	0007b483          	ld	s1,0(a5)
   184b4:	fff4041b          	addiw	s0,s0,-1
   184b8:	00048593          	mv	a1,s1
   184bc:	334070ef          	jal	ra,1f7f0 <__muldf3>
   184c0:	fe041ae3          	bnez	s0,184b4 <_mprec_log10+0x34>
   184c4:	01813083          	ld	ra,24(sp)
   184c8:	01013403          	ld	s0,16(sp)
   184cc:	00813483          	ld	s1,8(sp)
   184d0:	02010113          	addi	sp,sp,32
   184d4:	00008067          	ret
   184d8:	00351413          	slli	s0,a0,0x3
   184dc:	00009797          	auipc	a5,0x9
   184e0:	1bc78793          	addi	a5,a5,444 # 21698 <p05.3332>
   184e4:	00878433          	add	s0,a5,s0
   184e8:	01043503          	ld	a0,16(s0)
   184ec:	01813083          	ld	ra,24(sp)
   184f0:	01013403          	ld	s0,16(sp)
   184f4:	00813483          	ld	s1,8(sp)
   184f8:	02010113          	addi	sp,sp,32
   184fc:	00008067          	ret

0000000000018500 <__copybits>:
   18500:	01462683          	lw	a3,20(a2)
   18504:	fff5859b          	addiw	a1,a1,-1
   18508:	4055d59b          	sraiw	a1,a1,0x5
   1850c:	00158593          	addi	a1,a1,1
   18510:	01860793          	addi	a5,a2,24
   18514:	00269693          	slli	a3,a3,0x2
   18518:	00259593          	slli	a1,a1,0x2
   1851c:	00d786b3          	add	a3,a5,a3
   18520:	00b505b3          	add	a1,a0,a1
   18524:	02d7f863          	bgeu	a5,a3,18554 <__copybits+0x54>
   18528:	00050713          	mv	a4,a0
   1852c:	00478793          	addi	a5,a5,4
   18530:	ffc7a803          	lw	a6,-4(a5)
   18534:	00470713          	addi	a4,a4,4 # 100004 <__BSS_END__+0xdcdfc>
   18538:	ff072e23          	sw	a6,-4(a4)
   1853c:	fed7e8e3          	bltu	a5,a3,1852c <__copybits+0x2c>
   18540:	40c687b3          	sub	a5,a3,a2
   18544:	fe778793          	addi	a5,a5,-25
   18548:	ffc7f793          	andi	a5,a5,-4
   1854c:	00478793          	addi	a5,a5,4
   18550:	00f50533          	add	a0,a0,a5
   18554:	00b57863          	bgeu	a0,a1,18564 <__copybits+0x64>
   18558:	00450513          	addi	a0,a0,4 # 3ff00004 <__BSS_END__+0x3fedcdfc>
   1855c:	fe052e23          	sw	zero,-4(a0)
   18560:	feb56ce3          	bltu	a0,a1,18558 <__copybits+0x58>
   18564:	00008067          	ret

0000000000018568 <__any_on>:
   18568:	01452703          	lw	a4,20(a0)
   1856c:	4055d613          	srai	a2,a1,0x5
   18570:	01850693          	addi	a3,a0,24
   18574:	02c75a63          	bge	a4,a2,185a8 <__any_on+0x40>
   18578:	00271793          	slli	a5,a4,0x2
   1857c:	00f687b3          	add	a5,a3,a5
   18580:	04f6fc63          	bgeu	a3,a5,185d8 <__any_on+0x70>
   18584:	ffc7a503          	lw	a0,-4(a5)
   18588:	ffc78793          	addi	a5,a5,-4
   1858c:	00051a63          	bnez	a0,185a0 <__any_on+0x38>
   18590:	04f6f263          	bgeu	a3,a5,185d4 <__any_on+0x6c>
   18594:	ffc78793          	addi	a5,a5,-4
   18598:	0007a703          	lw	a4,0(a5)
   1859c:	fe070ae3          	beqz	a4,18590 <__any_on+0x28>
   185a0:	00100513          	li	a0,1
   185a4:	00008067          	ret
   185a8:	00261793          	slli	a5,a2,0x2
   185ac:	00f687b3          	add	a5,a3,a5
   185b0:	fce658e3          	bge	a2,a4,18580 <__any_on+0x18>
   185b4:	01f5f593          	andi	a1,a1,31
   185b8:	fc0584e3          	beqz	a1,18580 <__any_on+0x18>
   185bc:	0007a603          	lw	a2,0(a5)
   185c0:	00100513          	li	a0,1
   185c4:	00b6573b          	srlw	a4,a2,a1
   185c8:	00b715bb          	sllw	a1,a4,a1
   185cc:	fac58ae3          	beq	a1,a2,18580 <__any_on+0x18>
   185d0:	00008067          	ret
   185d4:	00008067          	ret
   185d8:	00000513          	li	a0,0
   185dc:	00008067          	ret

00000000000185e0 <_sbrk_r>:
   185e0:	ff010113          	addi	sp,sp,-16
   185e4:	00813023          	sd	s0,0(sp)
   185e8:	00050413          	mv	s0,a0
   185ec:	00058513          	mv	a0,a1
   185f0:	0000b797          	auipc	a5,0xb
   185f4:	c007a823          	sw	zero,-1008(a5) # 23200 <errno>
   185f8:	00113423          	sd	ra,8(sp)
   185fc:	4e1060ef          	jal	ra,1f2dc <_sbrk>
   18600:	fff00793          	li	a5,-1
   18604:	00f50a63          	beq	a0,a5,18618 <_sbrk_r+0x38>
   18608:	00813083          	ld	ra,8(sp)
   1860c:	00013403          	ld	s0,0(sp)
   18610:	01010113          	addi	sp,sp,16
   18614:	00008067          	ret
   18618:	0000b797          	auipc	a5,0xb
   1861c:	be878793          	addi	a5,a5,-1048 # 23200 <errno>
   18620:	0007a783          	lw	a5,0(a5)
   18624:	fe0782e3          	beqz	a5,18608 <_sbrk_r+0x28>
   18628:	00f42023          	sw	a5,0(s0)
   1862c:	00813083          	ld	ra,8(sp)
   18630:	00013403          	ld	s0,0(sp)
   18634:	01010113          	addi	sp,sp,16
   18638:	00008067          	ret

000000000001863c <frexp>:
   1863c:	fe010113          	addi	sp,sp,-32
   18640:	00813823          	sd	s0,16(sp)
   18644:	42055693          	srai	a3,a0,0x20
   18648:	80000437          	lui	s0,0x80000
   1864c:	00913423          	sd	s1,8(sp)
   18650:	00113c23          	sd	ra,24(sp)
   18654:	0006861b          	sext.w	a2,a3
   18658:	fff44413          	not	s0,s0
   1865c:	00058493          	mv	s1,a1
   18660:	0005a023          	sw	zero,0(a1)
   18664:	008677b3          	and	a5,a2,s0
   18668:	7ff005b7          	lui	a1,0x7ff00
   1866c:	00050713          	mv	a4,a0
   18670:	06b7dc63          	bge	a5,a1,186e8 <frexp+0xac>
   18674:	00a7e5b3          	or	a1,a5,a0
   18678:	0005859b          	sext.w	a1,a1
   1867c:	06058663          	beqz	a1,186e8 <frexp+0xac>
   18680:	7ff005b7          	lui	a1,0x7ff00
   18684:	00b67633          	and	a2,a2,a1
   18688:	00000593          	li	a1,0
   1868c:	02061263          	bnez	a2,186b0 <frexp+0x74>
   18690:	0000b797          	auipc	a5,0xb
   18694:	ab078793          	addi	a5,a5,-1360 # 23140 <__SDATA_BEGIN__+0x20>
   18698:	0007b583          	ld	a1,0(a5)
   1869c:	154070ef          	jal	ra,1f7f0 <__muldf3>
   186a0:	42055693          	srai	a3,a0,0x20
   186a4:	00050713          	mv	a4,a0
   186a8:	0086f7b3          	and	a5,a3,s0
   186ac:	fca00593          	li	a1,-54
   186b0:	80100637          	lui	a2,0x80100
   186b4:	fff60613          	addi	a2,a2,-1 # ffffffff800fffff <__BSS_END__+0xffffffff800dcdf7>
   186b8:	00c6f6b3          	and	a3,a3,a2
   186bc:	3fe00637          	lui	a2,0x3fe00
   186c0:	00c6e6b3          	or	a3,a3,a2
   186c4:	4147d79b          	sraiw	a5,a5,0x14
   186c8:	fff00613          	li	a2,-1
   186cc:	c027879b          	addiw	a5,a5,-1022
   186d0:	02065613          	srli	a2,a2,0x20
   186d4:	00b787bb          	addw	a5,a5,a1
   186d8:	02069693          	slli	a3,a3,0x20
   186dc:	00e67733          	and	a4,a2,a4
   186e0:	00f4a023          	sw	a5,0(s1)
   186e4:	00d76733          	or	a4,a4,a3
   186e8:	01813083          	ld	ra,24(sp)
   186ec:	01013403          	ld	s0,16(sp)
   186f0:	00813483          	ld	s1,8(sp)
   186f4:	00070513          	mv	a0,a4
   186f8:	02010113          	addi	sp,sp,32
   186fc:	00008067          	ret

0000000000018700 <_sprintf_r>:
   18700:	f0010113          	addi	sp,sp,-256
   18704:	0d810e13          	addi	t3,sp,216
   18708:	0ef13423          	sd	a5,232(sp)
   1870c:	80000337          	lui	t1,0x80000
   18710:	ffff07b7          	lui	a5,0xffff0
   18714:	00058e93          	mv	t4,a1
   18718:	fff34313          	not	t1,t1
   1871c:	0cd13c23          	sd	a3,216(sp)
   18720:	20878793          	addi	a5,a5,520 # ffffffffffff0208 <__BSS_END__+0xfffffffffffcd000>
   18724:	01010593          	addi	a1,sp,16
   18728:	000e0693          	mv	a3,t3
   1872c:	0c113423          	sd	ra,200(sp)
   18730:	02f12023          	sw	a5,32(sp)
   18734:	0ee13023          	sd	a4,224(sp)
   18738:	0f013823          	sd	a6,240(sp)
   1873c:	0f113c23          	sd	a7,248(sp)
   18740:	01d13823          	sd	t4,16(sp)
   18744:	03d13423          	sd	t4,40(sp)
   18748:	02612823          	sw	t1,48(sp)
   1874c:	00612e23          	sw	t1,28(sp)
   18750:	01c13423          	sd	t3,8(sp)
   18754:	5a0000ef          	jal	ra,18cf4 <_svfprintf_r>
   18758:	01013783          	ld	a5,16(sp)
   1875c:	00078023          	sb	zero,0(a5)
   18760:	0c813083          	ld	ra,200(sp)
   18764:	10010113          	addi	sp,sp,256
   18768:	00008067          	ret

000000000001876c <sprintf>:
   1876c:	00050e93          	mv	t4,a0
   18770:	75818513          	addi	a0,gp,1880 # 23160 <_impure_ptr>
   18774:	f0010113          	addi	sp,sp,-256
   18778:	00053503          	ld	a0,0(a0)
   1877c:	0d010e13          	addi	t3,sp,208
   18780:	0ef13423          	sd	a5,232(sp)
   18784:	80000337          	lui	t1,0x80000
   18788:	ffff07b7          	lui	a5,0xffff0
   1878c:	fff34313          	not	t1,t1
   18790:	0cc13823          	sd	a2,208(sp)
   18794:	0cd13c23          	sd	a3,216(sp)
   18798:	20878793          	addi	a5,a5,520 # ffffffffffff0208 <__BSS_END__+0xfffffffffffcd000>
   1879c:	00058613          	mv	a2,a1
   187a0:	000e0693          	mv	a3,t3
   187a4:	01010593          	addi	a1,sp,16
   187a8:	0c113423          	sd	ra,200(sp)
   187ac:	02f12023          	sw	a5,32(sp)
   187b0:	0ee13023          	sd	a4,224(sp)
   187b4:	0f013823          	sd	a6,240(sp)
   187b8:	0f113c23          	sd	a7,248(sp)
   187bc:	01d13823          	sd	t4,16(sp)
   187c0:	03d13423          	sd	t4,40(sp)
   187c4:	02612823          	sw	t1,48(sp)
   187c8:	00612e23          	sw	t1,28(sp)
   187cc:	01c13423          	sd	t3,8(sp)
   187d0:	524000ef          	jal	ra,18cf4 <_svfprintf_r>
   187d4:	01013783          	ld	a5,16(sp)
   187d8:	00078023          	sb	zero,0(a5)
   187dc:	0c813083          	ld	ra,200(sp)
   187e0:	10010113          	addi	sp,sp,256
   187e4:	00008067          	ret

00000000000187e8 <__sread>:
   187e8:	ff010113          	addi	sp,sp,-16
   187ec:	00813023          	sd	s0,0(sp)
   187f0:	00058413          	mv	s0,a1
   187f4:	01259583          	lh	a1,18(a1) # 7ff00012 <__BSS_END__+0x7fedce0a>
   187f8:	00113423          	sd	ra,8(sp)
   187fc:	501040ef          	jal	ra,1d4fc <_read_r>
   18800:	02054063          	bltz	a0,18820 <__sread+0x38>
   18804:	09043783          	ld	a5,144(s0) # ffffffff80000090 <__BSS_END__+0xffffffff7ffdce88>
   18808:	00813083          	ld	ra,8(sp)
   1880c:	00a787b3          	add	a5,a5,a0
   18810:	08f43823          	sd	a5,144(s0)
   18814:	00013403          	ld	s0,0(sp)
   18818:	01010113          	addi	sp,sp,16
   1881c:	00008067          	ret
   18820:	01045783          	lhu	a5,16(s0)
   18824:	fffff737          	lui	a4,0xfffff
   18828:	fff70713          	addi	a4,a4,-1 # ffffffffffffefff <__BSS_END__+0xfffffffffffdbdf7>
   1882c:	00e7f7b3          	and	a5,a5,a4
   18830:	00f41823          	sh	a5,16(s0)
   18834:	00813083          	ld	ra,8(sp)
   18838:	00013403          	ld	s0,0(sp)
   1883c:	01010113          	addi	sp,sp,16
   18840:	00008067          	ret

0000000000018844 <__seofread>:
   18844:	00000513          	li	a0,0
   18848:	00008067          	ret

000000000001884c <__swrite>:
   1884c:	01059783          	lh	a5,16(a1)
   18850:	fd010113          	addi	sp,sp,-48
   18854:	02813023          	sd	s0,32(sp)
   18858:	00913c23          	sd	s1,24(sp)
   1885c:	01213823          	sd	s2,16(sp)
   18860:	01313423          	sd	s3,8(sp)
   18864:	02113423          	sd	ra,40(sp)
   18868:	1007f713          	andi	a4,a5,256
   1886c:	00058413          	mv	s0,a1
   18870:	00050493          	mv	s1,a0
   18874:	00060913          	mv	s2,a2
   18878:	00068993          	mv	s3,a3
   1887c:	01259583          	lh	a1,18(a1)
   18880:	02071e63          	bnez	a4,188bc <__swrite+0x70>
   18884:	fffff737          	lui	a4,0xfffff
   18888:	fff70713          	addi	a4,a4,-1 # ffffffffffffefff <__BSS_END__+0xfffffffffffdbdf7>
   1888c:	00e7f7b3          	and	a5,a5,a4
   18890:	00f41823          	sh	a5,16(s0)
   18894:	02013403          	ld	s0,32(sp)
   18898:	02813083          	ld	ra,40(sp)
   1889c:	00098693          	mv	a3,s3
   188a0:	00090613          	mv	a2,s2
   188a4:	00813983          	ld	s3,8(sp)
   188a8:	01013903          	ld	s2,16(sp)
   188ac:	00048513          	mv	a0,s1
   188b0:	01813483          	ld	s1,24(sp)
   188b4:	03010113          	addi	sp,sp,48
   188b8:	7910306f          	j	1c848 <_write_r>
   188bc:	00200693          	li	a3,2
   188c0:	00000613          	li	a2,0
   188c4:	195040ef          	jal	ra,1d258 <_lseek_r>
   188c8:	01041783          	lh	a5,16(s0)
   188cc:	01241583          	lh	a1,18(s0)
   188d0:	fb5ff06f          	j	18884 <__swrite+0x38>

00000000000188d4 <__sseek>:
   188d4:	ff010113          	addi	sp,sp,-16
   188d8:	00813023          	sd	s0,0(sp)
   188dc:	00058413          	mv	s0,a1
   188e0:	01259583          	lh	a1,18(a1)
   188e4:	00113423          	sd	ra,8(sp)
   188e8:	171040ef          	jal	ra,1d258 <_lseek_r>
   188ec:	fff00793          	li	a5,-1
   188f0:	02f50463          	beq	a0,a5,18918 <__sseek+0x44>
   188f4:	01045783          	lhu	a5,16(s0)
   188f8:	00001737          	lui	a4,0x1
   188fc:	08a43823          	sd	a0,144(s0)
   18900:	00e7e7b3          	or	a5,a5,a4
   18904:	00f41823          	sh	a5,16(s0)
   18908:	00813083          	ld	ra,8(sp)
   1890c:	00013403          	ld	s0,0(sp)
   18910:	01010113          	addi	sp,sp,16
   18914:	00008067          	ret
   18918:	01045783          	lhu	a5,16(s0)
   1891c:	fffff737          	lui	a4,0xfffff
   18920:	fff70713          	addi	a4,a4,-1 # ffffffffffffefff <__BSS_END__+0xfffffffffffdbdf7>
   18924:	00e7f7b3          	and	a5,a5,a4
   18928:	00f41823          	sh	a5,16(s0)
   1892c:	00813083          	ld	ra,8(sp)
   18930:	00013403          	ld	s0,0(sp)
   18934:	01010113          	addi	sp,sp,16
   18938:	00008067          	ret

000000000001893c <__sclose>:
   1893c:	01259583          	lh	a1,18(a1)
   18940:	0380406f          	j	1c978 <_close_r>

0000000000018944 <strcmp>:
   18944:	00b56733          	or	a4,a0,a1
   18948:	fff00393          	li	t2,-1
   1894c:	00777713          	andi	a4,a4,7
   18950:	0c071c63          	bnez	a4,18a28 <strcmp+0xe4>
   18954:	0000a797          	auipc	a5,0xa
   18958:	7f47b783          	ld	a5,2036(a5) # 23148 <mask>
   1895c:	00053603          	ld	a2,0(a0)
   18960:	0005b683          	ld	a3,0(a1)
   18964:	00f672b3          	and	t0,a2,a5
   18968:	00f66333          	or	t1,a2,a5
   1896c:	00f282b3          	add	t0,t0,a5
   18970:	0062e2b3          	or	t0,t0,t1
   18974:	0c729e63          	bne	t0,t2,18a50 <strcmp+0x10c>
   18978:	04d61663          	bne	a2,a3,189c4 <strcmp+0x80>
   1897c:	00853603          	ld	a2,8(a0)
   18980:	0085b683          	ld	a3,8(a1)
   18984:	00f672b3          	and	t0,a2,a5
   18988:	00f66333          	or	t1,a2,a5
   1898c:	00f282b3          	add	t0,t0,a5
   18990:	0062e2b3          	or	t0,t0,t1
   18994:	0a729a63          	bne	t0,t2,18a48 <strcmp+0x104>
   18998:	02d61663          	bne	a2,a3,189c4 <strcmp+0x80>
   1899c:	01053603          	ld	a2,16(a0)
   189a0:	0105b683          	ld	a3,16(a1)
   189a4:	00f672b3          	and	t0,a2,a5
   189a8:	00f66333          	or	t1,a2,a5
   189ac:	00f282b3          	add	t0,t0,a5
   189b0:	0062e2b3          	or	t0,t0,t1
   189b4:	0a729463          	bne	t0,t2,18a5c <strcmp+0x118>
   189b8:	01850513          	addi	a0,a0,24
   189bc:	01858593          	addi	a1,a1,24
   189c0:	f8d60ee3          	beq	a2,a3,1895c <strcmp+0x18>
   189c4:	03061713          	slli	a4,a2,0x30
   189c8:	03069793          	slli	a5,a3,0x30
   189cc:	02f71a63          	bne	a4,a5,18a00 <strcmp+0xbc>
   189d0:	02061713          	slli	a4,a2,0x20
   189d4:	02069793          	slli	a5,a3,0x20
   189d8:	02f71463          	bne	a4,a5,18a00 <strcmp+0xbc>
   189dc:	01061713          	slli	a4,a2,0x10
   189e0:	01069793          	slli	a5,a3,0x10
   189e4:	00f71e63          	bne	a4,a5,18a00 <strcmp+0xbc>
   189e8:	03065713          	srli	a4,a2,0x30
   189ec:	0306d793          	srli	a5,a3,0x30
   189f0:	40f70533          	sub	a0,a4,a5
   189f4:	0ff57593          	andi	a1,a0,255
   189f8:	02059063          	bnez	a1,18a18 <strcmp+0xd4>
   189fc:	00008067          	ret
   18a00:	03075713          	srli	a4,a4,0x30
   18a04:	0307d793          	srli	a5,a5,0x30
   18a08:	40f70533          	sub	a0,a4,a5
   18a0c:	0ff57593          	andi	a1,a0,255
   18a10:	00059463          	bnez	a1,18a18 <strcmp+0xd4>
   18a14:	00008067          	ret
   18a18:	0ff77713          	andi	a4,a4,255
   18a1c:	0ff7f793          	andi	a5,a5,255
   18a20:	40f70533          	sub	a0,a4,a5
   18a24:	00008067          	ret
   18a28:	00054603          	lbu	a2,0(a0)
   18a2c:	0005c683          	lbu	a3,0(a1)
   18a30:	00150513          	addi	a0,a0,1
   18a34:	00158593          	addi	a1,a1,1
   18a38:	00d61463          	bne	a2,a3,18a40 <strcmp+0xfc>
   18a3c:	fe0616e3          	bnez	a2,18a28 <strcmp+0xe4>
   18a40:	40d60533          	sub	a0,a2,a3
   18a44:	00008067          	ret
   18a48:	00850513          	addi	a0,a0,8
   18a4c:	00858593          	addi	a1,a1,8
   18a50:	fcd61ce3          	bne	a2,a3,18a28 <strcmp+0xe4>
   18a54:	00000513          	li	a0,0
   18a58:	00008067          	ret
   18a5c:	01050513          	addi	a0,a0,16
   18a60:	01058593          	addi	a1,a1,16
   18a64:	fcd612e3          	bne	a2,a3,18a28 <strcmp+0xe4>
   18a68:	00000513          	li	a0,0
   18a6c:	00008067          	ret

0000000000018a70 <strcpy>:
   18a70:	00b567b3          	or	a5,a0,a1
   18a74:	0077f793          	andi	a5,a5,7
   18a78:	0a079863          	bnez	a5,18b28 <strcpy+0xb8>
   18a7c:	0000a797          	auipc	a5,0xa
   18a80:	6cc78793          	addi	a5,a5,1740 # 23148 <mask>
   18a84:	0007b683          	ld	a3,0(a5)
   18a88:	0005b703          	ld	a4,0(a1)
   18a8c:	fff00613          	li	a2,-1
   18a90:	00d777b3          	and	a5,a4,a3
   18a94:	00d787b3          	add	a5,a5,a3
   18a98:	00e7e7b3          	or	a5,a5,a4
   18a9c:	00d7e7b3          	or	a5,a5,a3
   18aa0:	0ac79263          	bne	a5,a2,18b44 <strcpy+0xd4>
   18aa4:	00050613          	mv	a2,a0
   18aa8:	fff00813          	li	a6,-1
   18aac:	00860613          	addi	a2,a2,8 # 3fe00008 <__BSS_END__+0x3fddce00>
   18ab0:	00858593          	addi	a1,a1,8
   18ab4:	fee63c23          	sd	a4,-8(a2)
   18ab8:	0005b703          	ld	a4,0(a1)
   18abc:	00d777b3          	and	a5,a4,a3
   18ac0:	00d787b3          	add	a5,a5,a3
   18ac4:	00e7e7b3          	or	a5,a5,a4
   18ac8:	00d7e7b3          	or	a5,a5,a3
   18acc:	ff0780e3          	beq	a5,a6,18aac <strcpy+0x3c>
   18ad0:	0005c783          	lbu	a5,0(a1)
   18ad4:	0015c703          	lbu	a4,1(a1)
   18ad8:	0025c683          	lbu	a3,2(a1)
   18adc:	00f60023          	sb	a5,0(a2)
   18ae0:	04078263          	beqz	a5,18b24 <strcpy+0xb4>
   18ae4:	00e600a3          	sb	a4,1(a2)
   18ae8:	02070e63          	beqz	a4,18b24 <strcpy+0xb4>
   18aec:	0035c783          	lbu	a5,3(a1)
   18af0:	00d60123          	sb	a3,2(a2)
   18af4:	02068863          	beqz	a3,18b24 <strcpy+0xb4>
   18af8:	0045c703          	lbu	a4,4(a1)
   18afc:	00f601a3          	sb	a5,3(a2)
   18b00:	02078263          	beqz	a5,18b24 <strcpy+0xb4>
   18b04:	0055c783          	lbu	a5,5(a1)
   18b08:	00e60223          	sb	a4,4(a2)
   18b0c:	00070c63          	beqz	a4,18b24 <strcpy+0xb4>
   18b10:	0065c703          	lbu	a4,6(a1)
   18b14:	00f602a3          	sb	a5,5(a2)
   18b18:	00078663          	beqz	a5,18b24 <strcpy+0xb4>
   18b1c:	00e60323          	sb	a4,6(a2)
   18b20:	02071663          	bnez	a4,18b4c <strcpy+0xdc>
   18b24:	00008067          	ret
   18b28:	00050793          	mv	a5,a0
   18b2c:	0005c703          	lbu	a4,0(a1)
   18b30:	00178793          	addi	a5,a5,1
   18b34:	00158593          	addi	a1,a1,1
   18b38:	fee78fa3          	sb	a4,-1(a5)
   18b3c:	fe0718e3          	bnez	a4,18b2c <strcpy+0xbc>
   18b40:	00008067          	ret
   18b44:	00050613          	mv	a2,a0
   18b48:	f89ff06f          	j	18ad0 <strcpy+0x60>
   18b4c:	000603a3          	sb	zero,7(a2)
   18b50:	00008067          	ret

0000000000018b54 <strlen>:
   18b54:	00757793          	andi	a5,a0,7
   18b58:	00050713          	mv	a4,a0
   18b5c:	06079e63          	bnez	a5,18bd8 <strlen+0x84>
   18b60:	0000a797          	auipc	a5,0xa
   18b64:	5e878793          	addi	a5,a5,1512 # 23148 <mask>
   18b68:	0007b683          	ld	a3,0(a5)
   18b6c:	fff00593          	li	a1,-1
   18b70:	00870713          	addi	a4,a4,8
   18b74:	ff873603          	ld	a2,-8(a4)
   18b78:	00d677b3          	and	a5,a2,a3
   18b7c:	00d787b3          	add	a5,a5,a3
   18b80:	00c7e7b3          	or	a5,a5,a2
   18b84:	00d7e7b3          	or	a5,a5,a3
   18b88:	feb784e3          	beq	a5,a1,18b70 <strlen+0x1c>
   18b8c:	ff874783          	lbu	a5,-8(a4)
   18b90:	40a706b3          	sub	a3,a4,a0
   18b94:	06078463          	beqz	a5,18bfc <strlen+0xa8>
   18b98:	ff974783          	lbu	a5,-7(a4)
   18b9c:	04078c63          	beqz	a5,18bf4 <strlen+0xa0>
   18ba0:	ffa74783          	lbu	a5,-6(a4)
   18ba4:	06078463          	beqz	a5,18c0c <strlen+0xb8>
   18ba8:	ffb74783          	lbu	a5,-5(a4)
   18bac:	04078c63          	beqz	a5,18c04 <strlen+0xb0>
   18bb0:	ffc74603          	lbu	a2,-4(a4)
   18bb4:	ffd74583          	lbu	a1,-3(a4)
   18bb8:	ffe74783          	lbu	a5,-2(a4)
   18bbc:	04060c63          	beqz	a2,18c14 <strlen+0xc0>
   18bc0:	04058e63          	beqz	a1,18c1c <strlen+0xc8>
   18bc4:	00f03533          	snez	a0,a5
   18bc8:	00d50533          	add	a0,a0,a3
   18bcc:	ffe50513          	addi	a0,a0,-2
   18bd0:	00008067          	ret
   18bd4:	f80686e3          	beqz	a3,18b60 <strlen+0xc>
   18bd8:	00074783          	lbu	a5,0(a4)
   18bdc:	00170713          	addi	a4,a4,1
   18be0:	00777693          	andi	a3,a4,7
   18be4:	fe0798e3          	bnez	a5,18bd4 <strlen+0x80>
   18be8:	40a70733          	sub	a4,a4,a0
   18bec:	fff70513          	addi	a0,a4,-1
   18bf0:	00008067          	ret
   18bf4:	ff968513          	addi	a0,a3,-7
   18bf8:	00008067          	ret
   18bfc:	ff868513          	addi	a0,a3,-8
   18c00:	00008067          	ret
   18c04:	ffb68513          	addi	a0,a3,-5
   18c08:	00008067          	ret
   18c0c:	ffa68513          	addi	a0,a3,-6
   18c10:	00008067          	ret
   18c14:	ffc68513          	addi	a0,a3,-4
   18c18:	00008067          	ret
   18c1c:	ffd68513          	addi	a0,a3,-3
   18c20:	00008067          	ret

0000000000018c24 <strncpy>:
   18c24:	00a5e7b3          	or	a5,a1,a0
   18c28:	0077f793          	andi	a5,a5,7
   18c2c:	0a079063          	bnez	a5,18ccc <strncpy+0xa8>
   18c30:	00700793          	li	a5,7
   18c34:	08c7fc63          	bgeu	a5,a2,18ccc <strncpy+0xa8>
   18c38:	0000a797          	auipc	a5,0xa
   18c3c:	4e878793          	addi	a5,a5,1256 # 23120 <__SDATA_BEGIN__>
   18c40:	0007b303          	ld	t1,0(a5)
   18c44:	0000a797          	auipc	a5,0xa
   18c48:	4e478793          	addi	a5,a5,1252 # 23128 <__SDATA_BEGIN__+0x8>
   18c4c:	0007b883          	ld	a7,0(a5)
   18c50:	00050713          	mv	a4,a0
   18c54:	00700e13          	li	t3,7
   18c58:	0005b683          	ld	a3,0(a1)
   18c5c:	006687b3          	add	a5,a3,t1
   18c60:	fff6c813          	not	a6,a3
   18c64:	0107f7b3          	and	a5,a5,a6
   18c68:	0117f7b3          	and	a5,a5,a7
   18c6c:	00079e63          	bnez	a5,18c88 <strncpy+0x64>
   18c70:	00870713          	addi	a4,a4,8
   18c74:	ff860613          	addi	a2,a2,-8
   18c78:	fed73c23          	sd	a3,-8(a4)
   18c7c:	00858593          	addi	a1,a1,8
   18c80:	fcce6ce3          	bltu	t3,a2,18c58 <strncpy+0x34>
   18c84:	06060463          	beqz	a2,18cec <strncpy+0xc8>
   18c88:	0005c803          	lbu	a6,0(a1)
   18c8c:	fff60693          	addi	a3,a2,-1
   18c90:	00158593          	addi	a1,a1,1
   18c94:	01070023          	sb	a6,0(a4)
   18c98:	00170793          	addi	a5,a4,1
   18c9c:	02080c63          	beqz	a6,18cd4 <strncpy+0xb0>
   18ca0:	00c70633          	add	a2,a4,a2
   18ca4:	00d706b3          	add	a3,a4,a3
   18ca8:	0140006f          	j	18cbc <strncpy+0x98>
   18cac:	fff5c703          	lbu	a4,-1(a1)
   18cb0:	00178793          	addi	a5,a5,1
   18cb4:	fee78fa3          	sb	a4,-1(a5)
   18cb8:	02070063          	beqz	a4,18cd8 <strncpy+0xb4>
   18cbc:	00158593          	addi	a1,a1,1
   18cc0:	40f68833          	sub	a6,a3,a5
   18cc4:	fec794e3          	bne	a5,a2,18cac <strncpy+0x88>
   18cc8:	00008067          	ret
   18ccc:	00050713          	mv	a4,a0
   18cd0:	fb5ff06f          	j	18c84 <strncpy+0x60>
   18cd4:	00068813          	mv	a6,a3
   18cd8:	01078733          	add	a4,a5,a6
   18cdc:	00080a63          	beqz	a6,18cf0 <strncpy+0xcc>
   18ce0:	00178793          	addi	a5,a5,1
   18ce4:	fe078fa3          	sb	zero,-1(a5)
   18ce8:	fee79ce3          	bne	a5,a4,18ce0 <strncpy+0xbc>
   18cec:	00008067          	ret
   18cf0:	00008067          	ret

0000000000018cf4 <_svfprintf_r>:
   18cf4:	d8010113          	addi	sp,sp,-640
   18cf8:	26113c23          	sd	ra,632(sp)
   18cfc:	26813823          	sd	s0,624(sp)
   18d00:	25613023          	sd	s6,576(sp)
   18d04:	00058413          	mv	s0,a1
   18d08:	00b13823          	sd	a1,16(sp)
   18d0c:	00060b13          	mv	s6,a2
   18d10:	00d13c23          	sd	a3,24(sp)
   18d14:	26913423          	sd	s1,616(sp)
   18d18:	27213023          	sd	s2,608(sp)
   18d1c:	25313c23          	sd	s3,600(sp)
   18d20:	25413823          	sd	s4,592(sp)
   18d24:	25513423          	sd	s5,584(sp)
   18d28:	23713c23          	sd	s7,568(sp)
   18d2c:	23813823          	sd	s8,560(sp)
   18d30:	23913423          	sd	s9,552(sp)
   18d34:	23a13023          	sd	s10,544(sp)
   18d38:	21b13c23          	sd	s11,536(sp)
   18d3c:	04a13423          	sd	a0,72(sp)
   18d40:	addfd0ef          	jal	ra,1681c <_localeconv_r>
   18d44:	00053783          	ld	a5,0(a0)
   18d48:	00078513          	mv	a0,a5
   18d4c:	06f13023          	sd	a5,96(sp)
   18d50:	e05ff0ef          	jal	ra,18b54 <strlen>
   18d54:	01045783          	lhu	a5,16(s0)
   18d58:	04a13823          	sd	a0,80(sp)
   18d5c:	10013023          	sd	zero,256(sp)
   18d60:	10013423          	sd	zero,264(sp)
   18d64:	0807f793          	andi	a5,a5,128
   18d68:	00078863          	beqz	a5,18d78 <_svfprintf_r+0x84>
   18d6c:	01843783          	ld	a5,24(s0)
   18d70:	00079463          	bnez	a5,18d78 <_svfprintf_r+0x84>
   18d74:	5f00106f          	j	1a364 <_svfprintf_r+0x1670>
   18d78:	19010793          	addi	a5,sp,400
   18d7c:	000b0d93          	mv	s11,s6
   18d80:	10f13823          	sd	a5,272(sp)
   18d84:	00078313          	mv	t1,a5
   18d88:	000dc783          	lbu	a5,0(s11)
   18d8c:	12013023          	sd	zero,288(sp)
   18d90:	10012c23          	sw	zero,280(sp)
   18d94:	02013823          	sd	zero,48(sp)
   18d98:	04013c23          	sd	zero,88(sp)
   18d9c:	06013823          	sd	zero,112(sp)
   18da0:	08013023          	sd	zero,128(sp)
   18da4:	08013823          	sd	zero,144(sp)
   18da8:	06013c23          	sd	zero,120(sp)
   18dac:	00013423          	sd	zero,8(sp)
   18db0:	01000d13          	li	s10,16
   18db4:	00009c17          	auipc	s8,0x9
   18db8:	b8cc0c13          	addi	s8,s8,-1140 # 21940 <zeroes.4524>
   18dbc:	04813a83          	ld	s5,72(sp)
   18dc0:	6c078863          	beqz	a5,19490 <_svfprintf_r+0x79c>
   18dc4:	02500693          	li	a3,37
   18dc8:	00d79463          	bne	a5,a3,18dd0 <_svfprintf_r+0xdc>
   18dcc:	48c0106f          	j	1a258 <_svfprintf_r+0x1564>
   18dd0:	000d8413          	mv	s0,s11
   18dd4:	00c0006f          	j	18de0 <_svfprintf_r+0xec>
   18dd8:	0cd78663          	beq	a5,a3,18ea4 <_svfprintf_r+0x1b0>
   18ddc:	00048413          	mv	s0,s1
   18de0:	00144783          	lbu	a5,1(s0)
   18de4:	00140493          	addi	s1,s0,1
   18de8:	fe0798e3          	bnez	a5,18dd8 <_svfprintf_r+0xe4>
   18dec:	41b4893b          	subw	s2,s1,s11
   18df0:	6a090063          	beqz	s2,19490 <_svfprintf_r+0x79c>
   18df4:	12013683          	ld	a3,288(sp)
   18df8:	11812783          	lw	a5,280(sp)
   18dfc:	01b33023          	sd	s11,0(t1) # ffffffff80000000 <__BSS_END__+0xffffffff7ffdcdf8>
   18e00:	012686b3          	add	a3,a3,s2
   18e04:	0017879b          	addiw	a5,a5,1
   18e08:	01233423          	sd	s2,8(t1)
   18e0c:	12d13023          	sd	a3,288(sp)
   18e10:	10f12c23          	sw	a5,280(sp)
   18e14:	0007869b          	sext.w	a3,a5
   18e18:	00700793          	li	a5,7
   18e1c:	01030313          	addi	t1,t1,16
   18e20:	08d7c863          	blt	a5,a3,18eb0 <_svfprintf_r+0x1bc>
   18e24:	00813703          	ld	a4,8(sp)
   18e28:	00144783          	lbu	a5,1(s0)
   18e2c:	00e9073b          	addw	a4,s2,a4
   18e30:	00e13423          	sd	a4,8(sp)
   18e34:	64078e63          	beqz	a5,19490 <_svfprintf_r+0x79c>
   18e38:	00148913          	addi	s2,s1,1
   18e3c:	0014c403          	lbu	s0,1(s1)
   18e40:	0c010fa3          	sb	zero,223(sp)
   18e44:	fff00b93          	li	s7,-1
   18e48:	00000993          	li	s3,0
   18e4c:	00000493          	li	s1,0
   18e50:	00900a13          	li	s4,9
   18e54:	02a00b13          	li	s6,42
   18e58:	00030c93          	mv	s9,t1
   18e5c:	00190913          	addi	s2,s2,1
   18e60:	0004041b          	sext.w	s0,s0
   18e64:	05a00693          	li	a3,90
   18e68:	fe04079b          	addiw	a5,s0,-32
   18e6c:	0007871b          	sext.w	a4,a5
   18e70:	1ce6e263          	bltu	a3,a4,19034 <_svfprintf_r+0x340>
   18e74:	02079793          	slli	a5,a5,0x20
   18e78:	00009717          	auipc	a4,0x9
   18e7c:	94870713          	addi	a4,a4,-1720 # 217c0 <__mprec_bigtens+0x28>
   18e80:	01e7d793          	srli	a5,a5,0x1e
   18e84:	00e787b3          	add	a5,a5,a4
   18e88:	0007a783          	lw	a5,0(a5)
   18e8c:	00e787b3          	add	a5,a5,a4
   18e90:	00078067          	jr	a5
   18e94:	0104e493          	ori	s1,s1,16
   18e98:	0004849b          	sext.w	s1,s1
   18e9c:	00094403          	lbu	s0,0(s2)
   18ea0:	fbdff06f          	j	18e5c <_svfprintf_r+0x168>
   18ea4:	41b4893b          	subw	s2,s1,s11
   18ea8:	f80908e3          	beqz	s2,18e38 <_svfprintf_r+0x144>
   18eac:	f49ff06f          	j	18df4 <_svfprintf_r+0x100>
   18eb0:	01013583          	ld	a1,16(sp)
   18eb4:	11010613          	addi	a2,sp,272
   18eb8:	000a8513          	mv	a0,s5
   18ebc:	57d040ef          	jal	ra,1dc38 <__ssprint_r>
   18ec0:	02051a63          	bnez	a0,18ef4 <_svfprintf_r+0x200>
   18ec4:	19010313          	addi	t1,sp,400
   18ec8:	f5dff06f          	j	18e24 <_svfprintf_r+0x130>
   18ecc:	01013583          	ld	a1,16(sp)
   18ed0:	11010613          	addi	a2,sp,272
   18ed4:	000a8513          	mv	a0,s5
   18ed8:	561040ef          	jal	ra,1dc38 <__ssprint_r>
   18edc:	58050663          	beqz	a0,19468 <_svfprintf_r+0x774>
   18ee0:	02013783          	ld	a5,32(sp)
   18ee4:	00078863          	beqz	a5,18ef4 <_svfprintf_r+0x200>
   18ee8:	02013583          	ld	a1,32(sp)
   18eec:	04813503          	ld	a0,72(sp)
   18ef0:	86dfa0ef          	jal	ra,1375c <_free_r>
   18ef4:	01013783          	ld	a5,16(sp)
   18ef8:	0107d783          	lhu	a5,16(a5)
   18efc:	0407f793          	andi	a5,a5,64
   18f00:	00078463          	beqz	a5,18f08 <_svfprintf_r+0x214>
   18f04:	2c80206f          	j	1b1cc <_svfprintf_r+0x24d8>
   18f08:	27813083          	ld	ra,632(sp)
   18f0c:	27013403          	ld	s0,624(sp)
   18f10:	00813503          	ld	a0,8(sp)
   18f14:	26813483          	ld	s1,616(sp)
   18f18:	26013903          	ld	s2,608(sp)
   18f1c:	25813983          	ld	s3,600(sp)
   18f20:	25013a03          	ld	s4,592(sp)
   18f24:	24813a83          	ld	s5,584(sp)
   18f28:	24013b03          	ld	s6,576(sp)
   18f2c:	23813b83          	ld	s7,568(sp)
   18f30:	23013c03          	ld	s8,560(sp)
   18f34:	22813c83          	ld	s9,552(sp)
   18f38:	22013d03          	ld	s10,544(sp)
   18f3c:	21813d83          	ld	s11,536(sp)
   18f40:	28010113          	addi	sp,sp,640
   18f44:	00008067          	ret
   18f48:	01813683          	ld	a3,24(sp)
   18f4c:	00008797          	auipc	a5,0x8
   18f50:	45478793          	addi	a5,a5,1108 # 213a0 <zeroes.4539+0x68>
   18f54:	04f13c23          	sd	a5,88(sp)
   18f58:	0204f793          	andi	a5,s1,32
   18f5c:	000c8313          	mv	t1,s9
   18f60:	00868713          	addi	a4,a3,8
   18f64:	10078863          	beqz	a5,19074 <_svfprintf_r+0x380>
   18f68:	0006bb03          	ld	s6,0(a3)
   18f6c:	0014f793          	andi	a5,s1,1
   18f70:	00078e63          	beqz	a5,18f8c <_svfprintf_r+0x298>
   18f74:	000b0c63          	beqz	s6,18f8c <_svfprintf_r+0x298>
   18f78:	0024e493          	ori	s1,s1,2
   18f7c:	03000793          	li	a5,48
   18f80:	0ef10023          	sb	a5,224(sp)
   18f84:	0e8100a3          	sb	s0,225(sp)
   18f88:	0004849b          	sext.w	s1,s1
   18f8c:	bff4f813          	andi	a6,s1,-1025
   18f90:	00080a1b          	sext.w	s4,a6
   18f94:	00e13c23          	sd	a4,24(sp)
   18f98:	00200793          	li	a5,2
   18f9c:	0c010fa3          	sb	zero,223(sp)
   18fa0:	fff00713          	li	a4,-1
   18fa4:	32eb8263          	beq	s7,a4,192c8 <_svfprintf_r+0x5d4>
   18fa8:	f7fa7493          	andi	s1,s4,-129
   18fac:	0004849b          	sext.w	s1,s1
   18fb0:	660b10e3          	bnez	s6,19e10 <_svfprintf_r+0x111c>
   18fb4:	000b8463          	beqz	s7,18fbc <_svfprintf_r+0x2c8>
   18fb8:	0500106f          	j	1a008 <_svfprintf_r+0x1314>
   18fbc:	2a079663          	bnez	a5,19268 <_svfprintf_r+0x574>
   18fc0:	001a7c93          	andi	s9,s4,1
   18fc4:	18c10d93          	addi	s11,sp,396
   18fc8:	000c8463          	beqz	s9,18fd0 <_svfprintf_r+0x2dc>
   18fcc:	2e40106f          	j	1a2b0 <_svfprintf_r+0x15bc>
   18fd0:	000c8a1b          	sext.w	s4,s9
   18fd4:	017cd463          	bge	s9,s7,18fdc <_svfprintf_r+0x2e8>
   18fd8:	000b8a1b          	sext.w	s4,s7
   18fdc:	0df14783          	lbu	a5,223(sp)
   18fe0:	02013023          	sd	zero,32(sp)
   18fe4:	04013023          	sd	zero,64(sp)
   18fe8:	02013c23          	sd	zero,56(sp)
   18fec:	02013423          	sd	zero,40(sp)
   18ff0:	36078a63          	beqz	a5,19364 <_svfprintf_r+0x670>
   18ff4:	001a0a1b          	addiw	s4,s4,1
   18ff8:	36c0006f          	j	19364 <_svfprintf_r+0x670>
   18ffc:	00000993          	li	s3,0
   19000:	00190913          	addi	s2,s2,1
   19004:	fff94703          	lbu	a4,-1(s2)
   19008:	0029979b          	slliw	a5,s3,0x2
   1900c:	013787bb          	addw	a5,a5,s3
   19010:	fd04041b          	addiw	s0,s0,-48
   19014:	0017979b          	slliw	a5,a5,0x1
   19018:	fd07061b          	addiw	a2,a4,-48
   1901c:	00f409bb          	addw	s3,s0,a5
   19020:	0007041b          	sext.w	s0,a4
   19024:	fcca7ee3          	bgeu	s4,a2,19000 <_svfprintf_r+0x30c>
   19028:	fe04079b          	addiw	a5,s0,-32
   1902c:	0007871b          	sext.w	a4,a5
   19030:	e4e6f2e3          	bgeu	a3,a4,18e74 <_svfprintf_r+0x180>
   19034:	000c8313          	mv	t1,s9
   19038:	44040c63          	beqz	s0,19490 <_svfprintf_r+0x79c>
   1903c:	12810423          	sb	s0,296(sp)
   19040:	0c010fa3          	sb	zero,223(sp)
   19044:	00100a13          	li	s4,1
   19048:	00100c93          	li	s9,1
   1904c:	12810d93          	addi	s11,sp,296
   19050:	3000006f          	j	19350 <_svfprintf_r+0x65c>
   19054:	01813683          	ld	a3,24(sp)
   19058:	00008797          	auipc	a5,0x8
   1905c:	36078793          	addi	a5,a5,864 # 213b8 <zeroes.4539+0x80>
   19060:	04f13c23          	sd	a5,88(sp)
   19064:	0204f793          	andi	a5,s1,32
   19068:	000c8313          	mv	t1,s9
   1906c:	00868713          	addi	a4,a3,8
   19070:	ee079ce3          	bnez	a5,18f68 <_svfprintf_r+0x274>
   19074:	0104f793          	andi	a5,s1,16
   19078:	00078463          	beqz	a5,19080 <_svfprintf_r+0x38c>
   1907c:	2840106f          	j	1a300 <_svfprintf_r+0x160c>
   19080:	01813683          	ld	a3,24(sp)
   19084:	0404f793          	andi	a5,s1,64
   19088:	0006ab03          	lw	s6,0(a3)
   1908c:	00079463          	bnez	a5,19094 <_svfprintf_r+0x3a0>
   19090:	0e50106f          	j	1a974 <_svfprintf_r+0x1c80>
   19094:	030b1b13          	slli	s6,s6,0x30
   19098:	030b5b13          	srli	s6,s6,0x30
   1909c:	ed1ff06f          	j	18f6c <_svfprintf_r+0x278>
   190a0:	00094403          	lbu	s0,0(s2)
   190a4:	0044e493          	ori	s1,s1,4
   190a8:	0004849b          	sext.w	s1,s1
   190ac:	db1ff06f          	j	18e5c <_svfprintf_r+0x168>
   190b0:	00094403          	lbu	s0,0(s2)
   190b4:	00190793          	addi	a5,s2,1
   190b8:	01641463          	bne	s0,s6,190c0 <_svfprintf_r+0x3cc>
   190bc:	2e00206f          	j	1b39c <_svfprintf_r+0x26a8>
   190c0:	fd04071b          	addiw	a4,s0,-48
   190c4:	00078913          	mv	s2,a5
   190c8:	00000b93          	li	s7,0
   190cc:	d8ea6ee3          	bltu	s4,a4,18e68 <_svfprintf_r+0x174>
   190d0:	00190913          	addi	s2,s2,1
   190d4:	002b979b          	slliw	a5,s7,0x2
   190d8:	fff94603          	lbu	a2,-1(s2)
   190dc:	017787bb          	addw	a5,a5,s7
   190e0:	0017979b          	slliw	a5,a5,0x1
   190e4:	00e78bbb          	addw	s7,a5,a4
   190e8:	fd06071b          	addiw	a4,a2,-48
   190ec:	feea72e3          	bgeu	s4,a4,190d0 <_svfprintf_r+0x3dc>
   190f0:	00060413          	mv	s0,a2
   190f4:	d75ff06f          	j	18e68 <_svfprintf_r+0x174>
   190f8:	0804e493          	ori	s1,s1,128
   190fc:	0004849b          	sext.w	s1,s1
   19100:	00094403          	lbu	s0,0(s2)
   19104:	d59ff06f          	j	18e5c <_svfprintf_r+0x168>
   19108:	01813783          	ld	a5,24(sp)
   1910c:	0c010fa3          	sb	zero,223(sp)
   19110:	000c8313          	mv	t1,s9
   19114:	0007bd83          	ld	s11,0(a5)
   19118:	00878b13          	addi	s6,a5,8
   1911c:	000d9463          	bnez	s11,19124 <_svfprintf_r+0x430>
   19120:	2740106f          	j	1a394 <_svfprintf_r+0x16a0>
   19124:	fff00793          	li	a5,-1
   19128:	00fb9463          	bne	s7,a5,19130 <_svfprintf_r+0x43c>
   1912c:	7780106f          	j	1a8a4 <_svfprintf_r+0x1bb0>
   19130:	000b8613          	mv	a2,s7
   19134:	00000593          	li	a1,0
   19138:	000d8513          	mv	a0,s11
   1913c:	01913c23          	sd	s9,24(sp)
   19140:	a40fe0ef          	jal	ra,17380 <memchr>
   19144:	02a13023          	sd	a0,32(sp)
   19148:	01813303          	ld	t1,24(sp)
   1914c:	00051463          	bnez	a0,19154 <_svfprintf_r+0x460>
   19150:	3d10106f          	j	1ad20 <_svfprintf_r+0x202c>
   19154:	02013783          	ld	a5,32(sp)
   19158:	01613c23          	sd	s6,24(sp)
   1915c:	02013023          	sd	zero,32(sp)
   19160:	41b78cbb          	subw	s9,a5,s11
   19164:	fffcca13          	not	s4,s9
   19168:	0df14783          	lbu	a5,223(sp)
   1916c:	43fa5a13          	srai	s4,s4,0x3f
   19170:	014cfa33          	and	s4,s9,s4
   19174:	04013023          	sd	zero,64(sp)
   19178:	02013c23          	sd	zero,56(sp)
   1917c:	02013423          	sd	zero,40(sp)
   19180:	000a0a1b          	sext.w	s4,s4
   19184:	00000b93          	li	s7,0
   19188:	e60796e3          	bnez	a5,18ff4 <_svfprintf_r+0x300>
   1918c:	1d80006f          	j	19364 <_svfprintf_r+0x670>
   19190:	01813703          	ld	a4,24(sp)
   19194:	0104e813          	ori	a6,s1,16
   19198:	000c8313          	mv	t1,s9
   1919c:	0008049b          	sext.w	s1,a6
   191a0:	00870713          	addi	a4,a4,8
   191a4:	01813783          	ld	a5,24(sp)
   191a8:	0007bb03          	ld	s6,0(a5)
   191ac:	00e13c23          	sd	a4,24(sp)
   191b0:	bff4f813          	andi	a6,s1,-1025
   191b4:	00080a1b          	sext.w	s4,a6
   191b8:	00000793          	li	a5,0
   191bc:	de1ff06f          	j	18f9c <_svfprintf_r+0x2a8>
   191c0:	01813783          	ld	a5,24(sp)
   191c4:	0104e813          	ori	a6,s1,16
   191c8:	000c8313          	mv	t1,s9
   191cc:	00080a1b          	sext.w	s4,a6
   191d0:	00878713          	addi	a4,a5,8
   191d4:	01813783          	ld	a5,24(sp)
   191d8:	0007bb03          	ld	s6,0(a5)
   191dc:	00100793          	li	a5,1
   191e0:	00e13c23          	sd	a4,24(sp)
   191e4:	db9ff06f          	j	18f9c <_svfprintf_r+0x2a8>
   191e8:	00094403          	lbu	s0,0(s2)
   191ec:	06800793          	li	a5,104
   191f0:	00f41463          	bne	s0,a5,191f8 <_svfprintf_r+0x504>
   191f4:	15c0106f          	j	1a350 <_svfprintf_r+0x165c>
   191f8:	0404e493          	ori	s1,s1,64
   191fc:	0004849b          	sext.w	s1,s1
   19200:	c5dff06f          	j	18e5c <_svfprintf_r+0x168>
   19204:	01813703          	ld	a4,24(sp)
   19208:	0204f793          	andi	a5,s1,32
   1920c:	000c8313          	mv	t1,s9
   19210:	00870713          	addi	a4,a4,8
   19214:	00078463          	beqz	a5,1921c <_svfprintf_r+0x528>
   19218:	0a80106f          	j	1a2c0 <_svfprintf_r+0x15cc>
   1921c:	0104f793          	andi	a5,s1,16
   19220:	00078463          	beqz	a5,19228 <_svfprintf_r+0x534>
   19224:	09c0106f          	j	1a2c0 <_svfprintf_r+0x15cc>
   19228:	0404f793          	andi	a5,s1,64
   1922c:	00079463          	bnez	a5,19234 <_svfprintf_r+0x540>
   19230:	7100106f          	j	1a940 <_svfprintf_r+0x1c4c>
   19234:	01813783          	ld	a5,24(sp)
   19238:	00048a13          	mv	s4,s1
   1923c:	00e13c23          	sd	a4,24(sp)
   19240:	00079b03          	lh	s6,0(a5)
   19244:	000b0793          	mv	a5,s6
   19248:	0607c463          	bltz	a5,192b0 <_svfprintf_r+0x5bc>
   1924c:	fff00793          	li	a5,-1
   19250:	06fb8ce3          	beq	s7,a5,19ac8 <_svfprintf_r+0xdd4>
   19254:	f7fa7813          	andi	a6,s4,-129
   19258:	0008049b          	sext.w	s1,a6
   1925c:	060b14e3          	bnez	s6,19ac4 <_svfprintf_r+0xdd0>
   19260:	000b8463          	beqz	s7,19268 <_svfprintf_r+0x574>
   19264:	0c50106f          	j	1ab28 <_svfprintf_r+0x1e34>
   19268:	00000b93          	li	s7,0
   1926c:	00000c93          	li	s9,0
   19270:	18c10d93          	addi	s11,sp,396
   19274:	d5dff06f          	j	18fd0 <_svfprintf_r+0x2dc>
   19278:	0084e493          	ori	s1,s1,8
   1927c:	0004849b          	sext.w	s1,s1
   19280:	00094403          	lbu	s0,0(s2)
   19284:	bd9ff06f          	j	18e5c <_svfprintf_r+0x168>
   19288:	01813783          	ld	a5,24(sp)
   1928c:	0104e813          	ori	a6,s1,16
   19290:	000c8313          	mv	t1,s9
   19294:	00080a1b          	sext.w	s4,a6
   19298:	00878713          	addi	a4,a5,8
   1929c:	01813783          	ld	a5,24(sp)
   192a0:	0007b783          	ld	a5,0(a5)
   192a4:	00e13c23          	sd	a4,24(sp)
   192a8:	00078b13          	mv	s6,a5
   192ac:	fa07d0e3          	bgez	a5,1924c <_svfprintf_r+0x558>
   192b0:	02d00793          	li	a5,45
   192b4:	0cf10fa3          	sb	a5,223(sp)
   192b8:	fff00713          	li	a4,-1
   192bc:	41600b33          	neg	s6,s6
   192c0:	00100793          	li	a5,1
   192c4:	ceeb92e3          	bne	s7,a4,18fa8 <_svfprintf_r+0x2b4>
   192c8:	00100713          	li	a4,1
   192cc:	7ee78e63          	beq	a5,a4,19ac8 <_svfprintf_r+0xdd4>
   192d0:	00200713          	li	a4,2
   192d4:	54e784e3          	beq	a5,a4,1a01c <_svfprintf_r+0x1328>
   192d8:	18c10c93          	addi	s9,sp,396
   192dc:	000c8693          	mv	a3,s9
   192e0:	0080006f          	j	192e8 <_svfprintf_r+0x5f4>
   192e4:	000d8693          	mv	a3,s11
   192e8:	007b7793          	andi	a5,s6,7
   192ec:	03078793          	addi	a5,a5,48
   192f0:	fef68fa3          	sb	a5,-1(a3)
   192f4:	003b5b13          	srli	s6,s6,0x3
   192f8:	fff68d93          	addi	s11,a3,-1
   192fc:	fe0b14e3          	bnez	s6,192e4 <_svfprintf_r+0x5f0>
   19300:	001a7613          	andi	a2,s4,1
   19304:	00060ce3          	beqz	a2,19b1c <_svfprintf_r+0xe28>
   19308:	03000613          	li	a2,48
   1930c:	00c788e3          	beq	a5,a2,19b1c <_svfprintf_r+0xe28>
   19310:	ffe68693          	addi	a3,a3,-2
   19314:	fecd8fa3          	sb	a2,-1(s11)
   19318:	40dc8cbb          	subw	s9,s9,a3
   1931c:	000a0493          	mv	s1,s4
   19320:	00068d93          	mv	s11,a3
   19324:	cadff06f          	j	18fd0 <_svfprintf_r+0x2dc>
   19328:	01813703          	ld	a4,24(sp)
   1932c:	000c8313          	mv	t1,s9
   19330:	0c010fa3          	sb	zero,223(sp)
   19334:	00072783          	lw	a5,0(a4)
   19338:	00870713          	addi	a4,a4,8
   1933c:	00e13c23          	sd	a4,24(sp)
   19340:	12f10423          	sb	a5,296(sp)
   19344:	00100a13          	li	s4,1
   19348:	00100c93          	li	s9,1
   1934c:	12810d93          	addi	s11,sp,296
   19350:	02013023          	sd	zero,32(sp)
   19354:	00000b93          	li	s7,0
   19358:	04013023          	sd	zero,64(sp)
   1935c:	02013c23          	sd	zero,56(sp)
   19360:	02013423          	sd	zero,40(sp)
   19364:	0024fe93          	andi	t4,s1,2
   19368:	000e8e9b          	sext.w	t4,t4
   1936c:	000e8463          	beqz	t4,19374 <_svfprintf_r+0x680>
   19370:	002a0a1b          	addiw	s4,s4,2
   19374:	0844ff13          	andi	t5,s1,132
   19378:	12013783          	ld	a5,288(sp)
   1937c:	000f1663          	bnez	t5,19388 <_svfprintf_r+0x694>
   19380:	4149883b          	subw	a6,s3,s4
   19384:	29004ae3          	bgtz	a6,19e18 <_svfprintf_r+0x1124>
   19388:	0df14683          	lbu	a3,223(sp)
   1938c:	02068c63          	beqz	a3,193c4 <_svfprintf_r+0x6d0>
   19390:	11812683          	lw	a3,280(sp)
   19394:	0df10613          	addi	a2,sp,223
   19398:	00c33023          	sd	a2,0(t1)
   1939c:	0016869b          	addiw	a3,a3,1
   193a0:	00100613          	li	a2,1
   193a4:	00178793          	addi	a5,a5,1
   193a8:	00c33423          	sd	a2,8(t1)
   193ac:	10d12c23          	sw	a3,280(sp)
   193b0:	0006861b          	sext.w	a2,a3
   193b4:	12f13023          	sd	a5,288(sp)
   193b8:	00700693          	li	a3,7
   193bc:	01030313          	addi	t1,t1,16
   193c0:	0ec6ca63          	blt	a3,a2,194b4 <_svfprintf_r+0x7c0>
   193c4:	020e8c63          	beqz	t4,193fc <_svfprintf_r+0x708>
   193c8:	11812683          	lw	a3,280(sp)
   193cc:	0e010613          	addi	a2,sp,224
   193d0:	00c33023          	sd	a2,0(t1)
   193d4:	0016869b          	addiw	a3,a3,1
   193d8:	00200613          	li	a2,2
   193dc:	00278793          	addi	a5,a5,2
   193e0:	00c33423          	sd	a2,8(t1)
   193e4:	10d12c23          	sw	a3,280(sp)
   193e8:	0006861b          	sext.w	a2,a3
   193ec:	12f13023          	sd	a5,288(sp)
   193f0:	00700693          	li	a3,7
   193f4:	01030313          	addi	t1,t1,16
   193f8:	32c6cae3          	blt	a3,a2,19f2c <_svfprintf_r+0x1238>
   193fc:	08000693          	li	a3,128
   19400:	04df08e3          	beq	t5,a3,19c50 <_svfprintf_r+0xf5c>
   19404:	419b8bbb          	subw	s7,s7,s9
   19408:	137048e3          	bgtz	s7,19d38 <_svfprintf_r+0x1044>
   1940c:	1004f693          	andi	a3,s1,256
   19410:	70069c63          	bnez	a3,19b28 <_svfprintf_r+0xe34>
   19414:	11812703          	lw	a4,280(sp)
   19418:	019787b3          	add	a5,a5,s9
   1941c:	01b33023          	sd	s11,0(t1)
   19420:	0017069b          	addiw	a3,a4,1
   19424:	01933423          	sd	s9,8(t1)
   19428:	12f13023          	sd	a5,288(sp)
   1942c:	10d12c23          	sw	a3,280(sp)
   19430:	00700713          	li	a4,7
   19434:	1ad74c63          	blt	a4,a3,195ec <_svfprintf_r+0x8f8>
   19438:	01030313          	addi	t1,t1,16
   1943c:	0044f493          	andi	s1,s1,4
   19440:	00048663          	beqz	s1,1944c <_svfprintf_r+0x758>
   19444:	4149843b          	subw	s0,s3,s4
   19448:	308048e3          	bgtz	s0,19f58 <_svfprintf_r+0x1264>
   1944c:	00098713          	mv	a4,s3
   19450:	0149d463          	bge	s3,s4,19458 <_svfprintf_r+0x764>
   19454:	000a0713          	mv	a4,s4
   19458:	00813683          	ld	a3,8(sp)
   1945c:	00d7073b          	addw	a4,a4,a3
   19460:	00e13423          	sd	a4,8(sp)
   19464:	a60794e3          	bnez	a5,18ecc <_svfprintf_r+0x1d8>
   19468:	02013783          	ld	a5,32(sp)
   1946c:	10012c23          	sw	zero,280(sp)
   19470:	00078863          	beqz	a5,19480 <_svfprintf_r+0x78c>
   19474:	02013583          	ld	a1,32(sp)
   19478:	000a8513          	mv	a0,s5
   1947c:	ae0fa0ef          	jal	ra,1375c <_free_r>
   19480:	19010313          	addi	t1,sp,400
   19484:	00090d93          	mv	s11,s2
   19488:	000dc783          	lbu	a5,0(s11)
   1948c:	92079ce3          	bnez	a5,18dc4 <_svfprintf_r+0xd0>
   19490:	12013783          	ld	a5,288(sp)
   19494:	a60780e3          	beqz	a5,18ef4 <_svfprintf_r+0x200>
   19498:	01013403          	ld	s0,16(sp)
   1949c:	04813503          	ld	a0,72(sp)
   194a0:	11010613          	addi	a2,sp,272
   194a4:	00040593          	mv	a1,s0
   194a8:	790040ef          	jal	ra,1dc38 <__ssprint_r>
   194ac:	01045783          	lhu	a5,16(s0)
   194b0:	a4dff06f          	j	18efc <_svfprintf_r+0x208>
   194b4:	01013583          	ld	a1,16(sp)
   194b8:	11010613          	addi	a2,sp,272
   194bc:	000a8513          	mv	a0,s5
   194c0:	09e13423          	sd	t5,136(sp)
   194c4:	07d13423          	sd	t4,104(sp)
   194c8:	770040ef          	jal	ra,1dc38 <__ssprint_r>
   194cc:	a0051ae3          	bnez	a0,18ee0 <_svfprintf_r+0x1ec>
   194d0:	12013783          	ld	a5,288(sp)
   194d4:	19010313          	addi	t1,sp,400
   194d8:	08813f03          	ld	t5,136(sp)
   194dc:	06813e83          	ld	t4,104(sp)
   194e0:	ee5ff06f          	j	193c4 <_svfprintf_r+0x6d0>
   194e4:	11812583          	lw	a1,280(sp)
   194e8:	03013703          	ld	a4,48(sp)
   194ec:	00178c93          	addi	s9,a5,1
   194f0:	00100613          	li	a2,1
   194f4:	0015879b          	addiw	a5,a1,1
   194f8:	01b33023          	sd	s11,0(t1)
   194fc:	00078693          	mv	a3,a5
   19500:	01030413          	addi	s0,t1,16
   19504:	4ce650e3          	bge	a2,a4,1a1c4 <_svfprintf_r+0x14d0>
   19508:	00100613          	li	a2,1
   1950c:	10d12c23          	sw	a3,280(sp)
   19510:	00c33423          	sd	a2,8(t1)
   19514:	13913023          	sd	s9,288(sp)
   19518:	00700693          	li	a3,7
   1951c:	54f6c2e3          	blt	a3,a5,1a260 <_svfprintf_r+0x156c>
   19520:	0017869b          	addiw	a3,a5,1
   19524:	05013783          	ld	a5,80(sp)
   19528:	06013703          	ld	a4,96(sp)
   1952c:	10d12c23          	sw	a3,280(sp)
   19530:	00fc8cb3          	add	s9,s9,a5
   19534:	00f43423          	sd	a5,8(s0)
   19538:	00e43023          	sd	a4,0(s0)
   1953c:	0006879b          	sext.w	a5,a3
   19540:	13913023          	sd	s9,288(sp)
   19544:	00700693          	li	a3,7
   19548:	01040413          	addi	s0,s0,16
   1954c:	52f6cee3          	blt	a3,a5,1a288 <_svfprintf_r+0x1594>
   19550:	0017889b          	addiw	a7,a5,1
   19554:	04f13023          	sd	a5,64(sp)
   19558:	10013503          	ld	a0,256(sp)
   1955c:	03013783          	ld	a5,48(sp)
   19560:	10813583          	ld	a1,264(sp)
   19564:	01040313          	addi	t1,s0,16
   19568:	00000613          	li	a2,0
   1956c:	00000693          	li	a3,0
   19570:	00088b1b          	sext.w	s6,a7
   19574:	03113c23          	sd	a7,56(sp)
   19578:	02613423          	sd	t1,40(sp)
   1957c:	fff78b9b          	addiw	s7,a5,-1
   19580:	5c4060ef          	jal	ra,1fb44 <__eqtf2>
   19584:	02813303          	ld	t1,40(sp)
   19588:	03813883          	ld	a7,56(sp)
   1958c:	460500e3          	beqz	a0,1a1ec <_svfprintf_r+0x14f8>
   19590:	001d8713          	addi	a4,s11,1
   19594:	017c8cb3          	add	s9,s9,s7
   19598:	00e43023          	sd	a4,0(s0)
   1959c:	01743423          	sd	s7,8(s0)
   195a0:	13913023          	sd	s9,288(sp)
   195a4:	11112c23          	sw	a7,280(sp)
   195a8:	00700713          	li	a4,7
   195ac:	01675463          	bge	a4,s6,195b4 <_svfprintf_r+0x8c0>
   195b0:	0000106f          	j	1a5b0 <_svfprintf_r+0x18bc>
   195b4:	04013783          	ld	a5,64(sp)
   195b8:	02040713          	addi	a4,s0,32
   195bc:	00030413          	mv	s0,t1
   195c0:	00278b1b          	addiw	s6,a5,2
   195c4:	00070313          	mv	t1,a4
   195c8:	07013683          	ld	a3,112(sp)
   195cc:	0f010713          	addi	a4,sp,240
   195d0:	00e43023          	sd	a4,0(s0)
   195d4:	019687b3          	add	a5,a3,s9
   195d8:	00d43423          	sd	a3,8(s0)
   195dc:	12f13023          	sd	a5,288(sp)
   195e0:	11612c23          	sw	s6,280(sp)
   195e4:	00700713          	li	a4,7
   195e8:	e5675ae3          	bge	a4,s6,1943c <_svfprintf_r+0x748>
   195ec:	01013583          	ld	a1,16(sp)
   195f0:	11010613          	addi	a2,sp,272
   195f4:	000a8513          	mv	a0,s5
   195f8:	640040ef          	jal	ra,1dc38 <__ssprint_r>
   195fc:	8e0512e3          	bnez	a0,18ee0 <_svfprintf_r+0x1ec>
   19600:	12013783          	ld	a5,288(sp)
   19604:	19010313          	addi	t1,sp,400
   19608:	e35ff06f          	j	1943c <_svfprintf_r+0x748>
   1960c:	0084f793          	andi	a5,s1,8
   19610:	000c8313          	mv	t1,s9
   19614:	4c0782e3          	beqz	a5,1a2d8 <_svfprintf_r+0x15e4>
   19618:	01813783          	ld	a5,24(sp)
   1961c:	00f78793          	addi	a5,a5,15
   19620:	ff07f793          	andi	a5,a5,-16
   19624:	0007b683          	ld	a3,0(a5)
   19628:	0087b703          	ld	a4,8(a5)
   1962c:	01078793          	addi	a5,a5,16
   19630:	00f13c23          	sd	a5,24(sp)
   19634:	10d13023          	sd	a3,256(sp)
   19638:	10e13423          	sd	a4,264(sp)
   1963c:	10010513          	addi	a0,sp,256
   19640:	02613023          	sd	t1,32(sp)
   19644:	97cfd0ef          	jal	ra,167c0 <_ldcheck>
   19648:	0ea12423          	sw	a0,232(sp)
   1964c:	00200793          	li	a5,2
   19650:	02013303          	ld	t1,32(sp)
   19654:	00f51463          	bne	a0,a5,1965c <_svfprintf_r+0x968>
   19658:	1500106f          	j	1a7a8 <_svfprintf_r+0x1ab4>
   1965c:	00100793          	li	a5,1
   19660:	00f51463          	bne	a0,a5,19668 <_svfprintf_r+0x974>
   19664:	3200106f          	j	1a984 <_svfprintf_r+0x1c90>
   19668:	06100793          	li	a5,97
   1966c:	00f41463          	bne	s0,a5,19674 <_svfprintf_r+0x980>
   19670:	2710106f          	j	1b0e0 <_svfprintf_r+0x23ec>
   19674:	04100793          	li	a5,65
   19678:	00f41463          	bne	s0,a5,19680 <_svfprintf_r+0x98c>
   1967c:	7600106f          	j	1addc <_svfprintf_r+0x20e8>
   19680:	fdf47713          	andi	a4,s0,-33
   19684:	fff00793          	li	a5,-1
   19688:	02e13c23          	sd	a4,56(sp)
   1968c:	00fb9463          	bne	s7,a5,19694 <_svfprintf_r+0x9a0>
   19690:	4900106f          	j	1ab20 <_svfprintf_r+0x1e2c>
   19694:	04700793          	li	a5,71
   19698:	00f71463          	bne	a4,a5,196a0 <_svfprintf_r+0x9ac>
   1969c:	2e90106f          	j	1b184 <_svfprintf_r+0x2490>
   196a0:	10813c83          	ld	s9,264(sp)
   196a4:	1004e793          	ori	a5,s1,256
   196a8:	04913023          	sd	s1,64(sp)
   196ac:	0007879b          	sext.w	a5,a5
   196b0:	10013e83          	ld	t4,256(sp)
   196b4:	000cd463          	bgez	s9,196bc <_svfprintf_r+0x9c8>
   196b8:	1890106f          	j	1b040 <_svfprintf_r+0x234c>
   196bc:	06013423          	sd	zero,104(sp)
   196c0:	00078493          	mv	s1,a5
   196c4:	02013023          	sd	zero,32(sp)
   196c8:	03813703          	ld	a4,56(sp)
   196cc:	04600793          	li	a5,70
   196d0:	00f71463          	bne	a4,a5,196d8 <_svfprintf_r+0x9e4>
   196d4:	5000106f          	j	1abd4 <_svfprintf_r+0x1ee0>
   196d8:	04500793          	li	a5,69
   196dc:	02613823          	sd	t1,48(sp)
   196e0:	00f71463          	bne	a4,a5,196e8 <_svfprintf_r+0x9f4>
   196e4:	20d0106f          	j	1b0f0 <_svfprintf_r+0x23fc>
   196e8:	0e810793          	addi	a5,sp,232
   196ec:	000b8713          	mv	a4,s7
   196f0:	000e8593          	mv	a1,t4
   196f4:	0f810893          	addi	a7,sp,248
   196f8:	0ec10813          	addi	a6,sp,236
   196fc:	00200693          	li	a3,2
   19700:	000c8613          	mv	a2,s9
   19704:	000a8513          	mv	a0,s5
   19708:	03d13423          	sd	t4,40(sp)
   1970c:	d95fb0ef          	jal	ra,154a0 <_ldtoa_r>
   19710:	03813703          	ld	a4,56(sp)
   19714:	04700793          	li	a5,71
   19718:	00050d93          	mv	s11,a0
   1971c:	02813e83          	ld	t4,40(sp)
   19720:	03013303          	ld	t1,48(sp)
   19724:	00f70463          	beq	a4,a5,1972c <_svfprintf_r+0xa38>
   19728:	4990106f          	j	1b3c0 <_svfprintf_r+0x26cc>
   1972c:	04013783          	ld	a5,64(sp)
   19730:	01750a33          	add	s4,a0,s7
   19734:	0017f793          	andi	a5,a5,1
   19738:	00078463          	beqz	a5,19740 <_svfprintf_r+0xa4c>
   1973c:	4e80106f          	j	1ac24 <_svfprintf_r+0x1f30>
   19740:	0f813783          	ld	a5,248(sp)
   19744:	41b787bb          	subw	a5,a5,s11
   19748:	02f13823          	sd	a5,48(sp)
   1974c:	0e812703          	lw	a4,232(sp)
   19750:	04700793          	li	a5,71
   19754:	02e13423          	sd	a4,40(sp)
   19758:	03813703          	ld	a4,56(sp)
   1975c:	00f71463          	bne	a4,a5,19764 <_svfprintf_r+0xa70>
   19760:	3fc0106f          	j	1ab5c <_svfprintf_r+0x1e68>
   19764:	03813703          	ld	a4,56(sp)
   19768:	04600793          	li	a5,70
   1976c:	00f71463          	bne	a4,a5,19774 <_svfprintf_r+0xa80>
   19770:	6440106f          	j	1adb4 <_svfprintf_r+0x20c0>
   19774:	02813783          	ld	a5,40(sp)
   19778:	03813703          	ld	a4,56(sp)
   1977c:	04100613          	li	a2,65
   19780:	fff78a1b          	addiw	s4,a5,-1
   19784:	0f412423          	sw	s4,232(sp)
   19788:	0ff47793          	andi	a5,s0,255
   1978c:	00000693          	li	a3,0
   19790:	00c71863          	bne	a4,a2,197a0 <_svfprintf_r+0xaac>
   19794:	00f7879b          	addiw	a5,a5,15
   19798:	0ff7f793          	andi	a5,a5,255
   1979c:	00100693          	li	a3,1
   197a0:	0ef10823          	sb	a5,240(sp)
   197a4:	02b00793          	li	a5,43
   197a8:	000a5a63          	bgez	s4,197bc <_svfprintf_r+0xac8>
   197ac:	02813783          	ld	a5,40(sp)
   197b0:	00100a13          	li	s4,1
   197b4:	40fa0a3b          	subw	s4,s4,a5
   197b8:	02d00793          	li	a5,45
   197bc:	0ef108a3          	sb	a5,241(sp)
   197c0:	00900793          	li	a5,9
   197c4:	0147c463          	blt	a5,s4,197cc <_svfprintf_r+0xad8>
   197c8:	3190106f          	j	1b2e0 <_svfprintf_r+0x25ec>
   197cc:	0ff10b13          	addi	s6,sp,255
   197d0:	000b0c93          	mv	s9,s6
   197d4:	06300493          	li	s1,99
   197d8:	00030b93          	mv	s7,t1
   197dc:	00c0006f          	j	197e8 <_svfprintf_r+0xaf4>
   197e0:	00060c93          	mv	s9,a2
   197e4:	00050a13          	mv	s4,a0
   197e8:	00a00593          	li	a1,10
   197ec:	000a0513          	mv	a0,s4
   197f0:	11d070ef          	jal	ra,2110c <__moddi3>
   197f4:	0305051b          	addiw	a0,a0,48
   197f8:	feac8fa3          	sb	a0,-1(s9)
   197fc:	00a00593          	li	a1,10
   19800:	000a0513          	mv	a0,s4
   19804:	085070ef          	jal	ra,21088 <__divdi3>
   19808:	fffc8613          	addi	a2,s9,-1
   1980c:	0005051b          	sext.w	a0,a0
   19810:	fd44c8e3          	blt	s1,s4,197e0 <_svfprintf_r+0xaec>
   19814:	0305079b          	addiw	a5,a0,48
   19818:	0ff7f793          	andi	a5,a5,255
   1981c:	ffec8693          	addi	a3,s9,-2
   19820:	fef60fa3          	sb	a5,-1(a2)
   19824:	000b8313          	mv	t1,s7
   19828:	0166e463          	bltu	a3,s6,19830 <_svfprintf_r+0xb3c>
   1982c:	3a10106f          	j	1b3cc <_svfprintf_r+0x26d8>
   19830:	0f210613          	addi	a2,sp,242
   19834:	0080006f          	j	1983c <_svfprintf_r+0xb48>
   19838:	0006c783          	lbu	a5,0(a3)
   1983c:	00160613          	addi	a2,a2,1
   19840:	00168693          	addi	a3,a3,1
   19844:	fef60fa3          	sb	a5,-1(a2)
   19848:	ff6698e3          	bne	a3,s6,19838 <_svfprintf_r+0xb44>
   1984c:	10110793          	addi	a5,sp,257
   19850:	419787b3          	sub	a5,a5,s9
   19854:	0f210713          	addi	a4,sp,242
   19858:	00f707b3          	add	a5,a4,a5
   1985c:	0f010693          	addi	a3,sp,240
   19860:	40d787bb          	subw	a5,a5,a3
   19864:	06f13823          	sd	a5,112(sp)
   19868:	07013783          	ld	a5,112(sp)
   1986c:	03013703          	ld	a4,48(sp)
   19870:	00100693          	li	a3,1
   19874:	00f70cbb          	addw	s9,a4,a5
   19878:	000c8793          	mv	a5,s9
   1987c:	00e6c463          	blt	a3,a4,19884 <_svfprintf_r+0xb90>
   19880:	2c50106f          	j	1b344 <_svfprintf_r+0x2650>
   19884:	05013703          	ld	a4,80(sp)
   19888:	00e78cbb          	addw	s9,a5,a4
   1988c:	04013783          	ld	a5,64(sp)
   19890:	fffcca13          	not	s4,s9
   19894:	43fa5a13          	srai	s4,s4,0x3f
   19898:	bff7f493          	andi	s1,a5,-1025
   1989c:	0004849b          	sext.w	s1,s1
   198a0:	014cfa33          	and	s4,s9,s4
   198a4:	1004e493          	ori	s1,s1,256
   198a8:	000a0a1b          	sext.w	s4,s4
   198ac:	04013023          	sd	zero,64(sp)
   198b0:	02013c23          	sd	zero,56(sp)
   198b4:	02013423          	sd	zero,40(sp)
   198b8:	06813783          	ld	a5,104(sp)
   198bc:	00079463          	bnez	a5,198c4 <_svfprintf_r+0xbd0>
   198c0:	3b40106f          	j	1ac74 <_svfprintf_r+0x1f80>
   198c4:	02d00793          	li	a5,45
   198c8:	0cf10fa3          	sb	a5,223(sp)
   198cc:	00000b93          	li	s7,0
   198d0:	001a0a1b          	addiw	s4,s4,1
   198d4:	a91ff06f          	j	19364 <_svfprintf_r+0x670>
   198d8:	02b00793          	li	a5,43
   198dc:	0cf10fa3          	sb	a5,223(sp)
   198e0:	00094403          	lbu	s0,0(s2)
   198e4:	d78ff06f          	j	18e5c <_svfprintf_r+0x168>
   198e8:	01813783          	ld	a5,24(sp)
   198ec:	00094403          	lbu	s0,0(s2)
   198f0:	0007a983          	lw	s3,0(a5)
   198f4:	00878793          	addi	a5,a5,8
   198f8:	00f13c23          	sd	a5,24(sp)
   198fc:	d609d063          	bgez	s3,18e5c <_svfprintf_r+0x168>
   19900:	413009bb          	negw	s3,s3
   19904:	fa0ff06f          	j	190a4 <_svfprintf_r+0x3b0>
   19908:	000a8513          	mv	a0,s5
   1990c:	f11fc0ef          	jal	ra,1681c <_localeconv_r>
   19910:	00853783          	ld	a5,8(a0)
   19914:	00078513          	mv	a0,a5
   19918:	06f13c23          	sd	a5,120(sp)
   1991c:	a38ff0ef          	jal	ra,18b54 <strlen>
   19920:	08a13823          	sd	a0,144(sp)
   19924:	00050413          	mv	s0,a0
   19928:	000a8513          	mv	a0,s5
   1992c:	ef1fc0ef          	jal	ra,1681c <_localeconv_r>
   19930:	01053783          	ld	a5,16(a0)
   19934:	08f13023          	sd	a5,128(sp)
   19938:	18040ce3          	beqz	s0,1a2d0 <_svfprintf_r+0x15dc>
   1993c:	00094403          	lbu	s0,0(s2)
   19940:	d0078e63          	beqz	a5,18e5c <_svfprintf_r+0x168>
   19944:	0007c783          	lbu	a5,0(a5)
   19948:	d0078a63          	beqz	a5,18e5c <_svfprintf_r+0x168>
   1994c:	4004e493          	ori	s1,s1,1024
   19950:	0004849b          	sext.w	s1,s1
   19954:	d08ff06f          	j	18e5c <_svfprintf_r+0x168>
   19958:	0014e493          	ori	s1,s1,1
   1995c:	0004849b          	sext.w	s1,s1
   19960:	00094403          	lbu	s0,0(s2)
   19964:	cf8ff06f          	j	18e5c <_svfprintf_r+0x168>
   19968:	0df14783          	lbu	a5,223(sp)
   1996c:	00094403          	lbu	s0,0(s2)
   19970:	ce079663          	bnez	a5,18e5c <_svfprintf_r+0x168>
   19974:	02000793          	li	a5,32
   19978:	0cf10fa3          	sb	a5,223(sp)
   1997c:	ce0ff06f          	j	18e5c <_svfprintf_r+0x168>
   19980:	01813703          	ld	a4,24(sp)
   19984:	0204f793          	andi	a5,s1,32
   19988:	000c8313          	mv	t1,s9
   1998c:	00870713          	addi	a4,a4,8
   19990:	12079ce3          	bnez	a5,1a2c8 <_svfprintf_r+0x15d4>
   19994:	0104f793          	andi	a5,s1,16
   19998:	120798e3          	bnez	a5,1a2c8 <_svfprintf_r+0x15d4>
   1999c:	01813683          	ld	a3,24(sp)
   199a0:	0404f793          	andi	a5,s1,64
   199a4:	0006ab03          	lw	s6,0(a3)
   199a8:	76078ee3          	beqz	a5,1a924 <_svfprintf_r+0x1c30>
   199ac:	030b1b13          	slli	s6,s6,0x30
   199b0:	030b5b13          	srli	s6,s6,0x30
   199b4:	00e13c23          	sd	a4,24(sp)
   199b8:	00048a13          	mv	s4,s1
   199bc:	00100793          	li	a5,1
   199c0:	ddcff06f          	j	18f9c <_svfprintf_r+0x2a8>
   199c4:	0204e493          	ori	s1,s1,32
   199c8:	0004849b          	sext.w	s1,s1
   199cc:	00094403          	lbu	s0,0(s2)
   199d0:	c8cff06f          	j	18e5c <_svfprintf_r+0x168>
   199d4:	01813703          	ld	a4,24(sp)
   199d8:	ffff87b7          	lui	a5,0xffff8
   199dc:	8307c793          	xori	a5,a5,-2000
   199e0:	0ef11023          	sh	a5,224(sp)
   199e4:	00870793          	addi	a5,a4,8
   199e8:	0024e813          	ori	a6,s1,2
   199ec:	00f13c23          	sd	a5,24(sp)
   199f0:	00008797          	auipc	a5,0x8
   199f4:	9b078793          	addi	a5,a5,-1616 # 213a0 <zeroes.4539+0x68>
   199f8:	04f13c23          	sd	a5,88(sp)
   199fc:	000c8313          	mv	t1,s9
   19a00:	00073b03          	ld	s6,0(a4)
   19a04:	00080a1b          	sext.w	s4,a6
   19a08:	00200793          	li	a5,2
   19a0c:	07800413          	li	s0,120
   19a10:	d8cff06f          	j	18f9c <_svfprintf_r+0x2a8>
   19a14:	01813703          	ld	a4,24(sp)
   19a18:	0204f793          	andi	a5,s1,32
   19a1c:	000c8313          	mv	t1,s9
   19a20:	00870713          	addi	a4,a4,8
   19a24:	f8079063          	bnez	a5,191a4 <_svfprintf_r+0x4b0>
   19a28:	0104f793          	andi	a5,s1,16
   19a2c:	f6079c63          	bnez	a5,191a4 <_svfprintf_r+0x4b0>
   19a30:	01813683          	ld	a3,24(sp)
   19a34:	0404f793          	andi	a5,s1,64
   19a38:	0006ab03          	lw	s6,0(a3)
   19a3c:	720782e3          	beqz	a5,1a960 <_svfprintf_r+0x1c6c>
   19a40:	030b1b13          	slli	s6,s6,0x30
   19a44:	030b5b13          	srli	s6,s6,0x30
   19a48:	00e13c23          	sd	a4,24(sp)
   19a4c:	f64ff06f          	j	191b0 <_svfprintf_r+0x4bc>
   19a50:	01813683          	ld	a3,24(sp)
   19a54:	0204f793          	andi	a5,s1,32
   19a58:	000c8313          	mv	t1,s9
   19a5c:	0006b703          	ld	a4,0(a3)
   19a60:	00868693          	addi	a3,a3,8
   19a64:	00d13c23          	sd	a3,24(sp)
   19a68:	04079663          	bnez	a5,19ab4 <_svfprintf_r+0xdc0>
   19a6c:	0104f793          	andi	a5,s1,16
   19a70:	04079263          	bnez	a5,19ab4 <_svfprintf_r+0xdc0>
   19a74:	0404f793          	andi	a5,s1,64
   19a78:	00078463          	beqz	a5,19a80 <_svfprintf_r+0xd8c>
   19a7c:	00c0106f          	j	1aa88 <_svfprintf_r+0x1d94>
   19a80:	2004f493          	andi	s1,s1,512
   19a84:	00813783          	ld	a5,8(sp)
   19a88:	00049463          	bnez	s1,19a90 <_svfprintf_r+0xd9c>
   19a8c:	6ec0106f          	j	1b178 <_svfprintf_r+0x2484>
   19a90:	00f70023          	sb	a5,0(a4)
   19a94:	00090d93          	mv	s11,s2
   19a98:	9f1ff06f          	j	19488 <_svfprintf_r+0x794>
   19a9c:	00094403          	lbu	s0,0(s2)
   19aa0:	06c00793          	li	a5,108
   19aa4:	08f40ce3          	beq	s0,a5,1a33c <_svfprintf_r+0x1648>
   19aa8:	0104e493          	ori	s1,s1,16
   19aac:	0004849b          	sext.w	s1,s1
   19ab0:	bacff06f          	j	18e5c <_svfprintf_r+0x168>
   19ab4:	00813783          	ld	a5,8(sp)
   19ab8:	00090d93          	mv	s11,s2
   19abc:	00f73023          	sd	a5,0(a4)
   19ac0:	9c9ff06f          	j	19488 <_svfprintf_r+0x794>
   19ac4:	00048a13          	mv	s4,s1
   19ac8:	00900793          	li	a5,9
   19acc:	3f67e4e3          	bltu	a5,s6,1a6b4 <_svfprintf_r+0x19c0>
   19ad0:	030b0b1b          	addiw	s6,s6,48
   19ad4:	196105a3          	sb	s6,395(sp)
   19ad8:	000a0493          	mv	s1,s4
   19adc:	00100c93          	li	s9,1
   19ae0:	18b10d93          	addi	s11,sp,395
   19ae4:	cecff06f          	j	18fd0 <_svfprintf_r+0x2dc>
   19ae8:	0ff00793          	li	a5,255
   19aec:	42f686e3          	beq	a3,a5,1a718 <_svfprintf_r+0x1a24>
   19af0:	00900793          	li	a5,9
   19af4:	7337e8e3          	bltu	a5,s3,1aa24 <_svfprintf_r+0x1d30>
   19af8:	09213023          	sd	s2,128(sp)
   19afc:	000a8313          	mv	t1,s5
   19b00:	03813983          	ld	s3,56(sp)
   19b04:	000c8a93          	mv	s5,s9
   19b08:	02013903          	ld	s2,32(sp)
   19b0c:	000d8c93          	mv	s9,s11
   19b10:	00040d93          	mv	s11,s0
   19b14:	02813403          	ld	s0,40(sp)
   19b18:	02913823          	sd	s1,48(sp)
   19b1c:	41bc8cbb          	subw	s9,s9,s11
   19b20:	000a0493          	mv	s1,s4
   19b24:	cacff06f          	j	18fd0 <_svfprintf_r+0x2dc>
   19b28:	06500693          	li	a3,101
   19b2c:	9a86dce3          	bge	a3,s0,194e4 <_svfprintf_r+0x7f0>
   19b30:	10013503          	ld	a0,256(sp)
   19b34:	10813583          	ld	a1,264(sp)
   19b38:	00000613          	li	a2,0
   19b3c:	00000693          	li	a3,0
   19b40:	08613423          	sd	t1,136(sp)
   19b44:	06f13423          	sd	a5,104(sp)
   19b48:	7fd050ef          	jal	ra,1fb44 <__eqtf2>
   19b4c:	06813783          	ld	a5,104(sp)
   19b50:	08813303          	ld	t1,136(sp)
   19b54:	4e051e63          	bnez	a0,1a050 <_svfprintf_r+0x135c>
   19b58:	11812703          	lw	a4,280(sp)
   19b5c:	00008697          	auipc	a3,0x8
   19b60:	87c68693          	addi	a3,a3,-1924 # 213d8 <zeroes.4539+0xa0>
   19b64:	00178793          	addi	a5,a5,1
   19b68:	0017071b          	addiw	a4,a4,1
   19b6c:	00d33023          	sd	a3,0(t1)
   19b70:	00100693          	li	a3,1
   19b74:	00d33423          	sd	a3,8(t1)
   19b78:	12f13023          	sd	a5,288(sp)
   19b7c:	0007069b          	sext.w	a3,a4
   19b80:	10e12c23          	sw	a4,280(sp)
   19b84:	00700793          	li	a5,7
   19b88:	01030313          	addi	t1,t1,16
   19b8c:	3ad7c4e3          	blt	a5,a3,1a734 <_svfprintf_r+0x1a40>
   19b90:	0e812783          	lw	a5,232(sp)
   19b94:	03013703          	ld	a4,48(sp)
   19b98:	00e7ca63          	blt	a5,a4,19bac <_svfprintf_r+0xeb8>
   19b9c:	0014f793          	andi	a5,s1,1
   19ba0:	00079663          	bnez	a5,19bac <_svfprintf_r+0xeb8>
   19ba4:	12013783          	ld	a5,288(sp)
   19ba8:	895ff06f          	j	1943c <_svfprintf_r+0x748>
   19bac:	06013783          	ld	a5,96(sp)
   19bb0:	05013683          	ld	a3,80(sp)
   19bb4:	11812703          	lw	a4,280(sp)
   19bb8:	00f33023          	sd	a5,0(t1)
   19bbc:	12013783          	ld	a5,288(sp)
   19bc0:	0017071b          	addiw	a4,a4,1
   19bc4:	00d33423          	sd	a3,8(t1)
   19bc8:	00f687b3          	add	a5,a3,a5
   19bcc:	10e12c23          	sw	a4,280(sp)
   19bd0:	0007069b          	sext.w	a3,a4
   19bd4:	12f13023          	sd	a5,288(sp)
   19bd8:	00700713          	li	a4,7
   19bdc:	01030313          	addi	t1,t1,16
   19be0:	72d74c63          	blt	a4,a3,1a318 <_svfprintf_r+0x1624>
   19be4:	03013703          	ld	a4,48(sp)
   19be8:	fff7041b          	addiw	s0,a4,-1
   19bec:	848058e3          	blez	s0,1943c <_svfprintf_r+0x748>
   19bf0:	11812703          	lw	a4,280(sp)
   19bf4:	368d50e3          	bge	s10,s0,1a754 <_svfprintf_r+0x1a60>
   19bf8:	00700c93          	li	s9,7
   19bfc:	01013b03          	ld	s6,16(sp)
   19c00:	00c0006f          	j	19c0c <_svfprintf_r+0xf18>
   19c04:	ff04041b          	addiw	s0,s0,-16
   19c08:	348d56e3          	bge	s10,s0,1a754 <_svfprintf_r+0x1a60>
   19c0c:	0017071b          	addiw	a4,a4,1
   19c10:	01078793          	addi	a5,a5,16
   19c14:	01833023          	sd	s8,0(t1)
   19c18:	01a33423          	sd	s10,8(t1)
   19c1c:	12f13023          	sd	a5,288(sp)
   19c20:	10e12c23          	sw	a4,280(sp)
   19c24:	01030313          	addi	t1,t1,16
   19c28:	fcecdee3          	bge	s9,a4,19c04 <_svfprintf_r+0xf10>
   19c2c:	11010613          	addi	a2,sp,272
   19c30:	000b0593          	mv	a1,s6
   19c34:	000a8513          	mv	a0,s5
   19c38:	000040ef          	jal	ra,1dc38 <__ssprint_r>
   19c3c:	aa051263          	bnez	a0,18ee0 <_svfprintf_r+0x1ec>
   19c40:	12013783          	ld	a5,288(sp)
   19c44:	11812703          	lw	a4,280(sp)
   19c48:	19010313          	addi	t1,sp,400
   19c4c:	fb9ff06f          	j	19c04 <_svfprintf_r+0xf10>
   19c50:	41498b3b          	subw	s6,s3,s4
   19c54:	fb605863          	blez	s6,19404 <_svfprintf_r+0x710>
   19c58:	11812683          	lw	a3,280(sp)
   19c5c:	096d5a63          	bge	s10,s6,19cf0 <_svfprintf_r+0xffc>
   19c60:	000b0713          	mv	a4,s6
   19c64:	06813423          	sd	s0,104(sp)
   19c68:	000a0b13          	mv	s6,s4
   19c6c:	00700893          	li	a7,7
   19c70:	00098a13          	mv	s4,s3
   19c74:	01013403          	ld	s0,16(sp)
   19c78:	00048993          	mv	s3,s1
   19c7c:	00070493          	mv	s1,a4
   19c80:	00c0006f          	j	19c8c <_svfprintf_r+0xf98>
   19c84:	ff04849b          	addiw	s1,s1,-16
   19c88:	049d5863          	bge	s10,s1,19cd8 <_svfprintf_r+0xfe4>
   19c8c:	0016869b          	addiw	a3,a3,1
   19c90:	01078793          	addi	a5,a5,16
   19c94:	01833023          	sd	s8,0(t1)
   19c98:	01a33423          	sd	s10,8(t1)
   19c9c:	12f13023          	sd	a5,288(sp)
   19ca0:	10d12c23          	sw	a3,280(sp)
   19ca4:	01030313          	addi	t1,t1,16
   19ca8:	fcd8dee3          	bge	a7,a3,19c84 <_svfprintf_r+0xf90>
   19cac:	11010613          	addi	a2,sp,272
   19cb0:	00040593          	mv	a1,s0
   19cb4:	000a8513          	mv	a0,s5
   19cb8:	781030ef          	jal	ra,1dc38 <__ssprint_r>
   19cbc:	a2051263          	bnez	a0,18ee0 <_svfprintf_r+0x1ec>
   19cc0:	ff04849b          	addiw	s1,s1,-16
   19cc4:	12013783          	ld	a5,288(sp)
   19cc8:	11812683          	lw	a3,280(sp)
   19ccc:	19010313          	addi	t1,sp,400
   19cd0:	00700893          	li	a7,7
   19cd4:	fa9d4ce3          	blt	s10,s1,19c8c <_svfprintf_r+0xf98>
   19cd8:	06813403          	ld	s0,104(sp)
   19cdc:	00048713          	mv	a4,s1
   19ce0:	00098493          	mv	s1,s3
   19ce4:	000a0993          	mv	s3,s4
   19ce8:	000b0a13          	mv	s4,s6
   19cec:	00070b13          	mv	s6,a4
   19cf0:	0016861b          	addiw	a2,a3,1
   19cf4:	016787b3          	add	a5,a5,s6
   19cf8:	01833023          	sd	s8,0(t1)
   19cfc:	01633423          	sd	s6,8(t1)
   19d00:	12f13023          	sd	a5,288(sp)
   19d04:	10c12c23          	sw	a2,280(sp)
   19d08:	00700693          	li	a3,7
   19d0c:	01030313          	addi	t1,t1,16
   19d10:	eec6da63          	bge	a3,a2,19404 <_svfprintf_r+0x710>
   19d14:	01013583          	ld	a1,16(sp)
   19d18:	11010613          	addi	a2,sp,272
   19d1c:	000a8513          	mv	a0,s5
   19d20:	719030ef          	jal	ra,1dc38 <__ssprint_r>
   19d24:	9a051e63          	bnez	a0,18ee0 <_svfprintf_r+0x1ec>
   19d28:	419b8bbb          	subw	s7,s7,s9
   19d2c:	12013783          	ld	a5,288(sp)
   19d30:	19010313          	addi	t1,sp,400
   19d34:	ed705c63          	blez	s7,1940c <_svfprintf_r+0x718>
   19d38:	11812683          	lw	a3,280(sp)
   19d3c:	097d5863          	bge	s10,s7,19dcc <_svfprintf_r+0x10d8>
   19d40:	000a0713          	mv	a4,s4
   19d44:	06813423          	sd	s0,104(sp)
   19d48:	00098a13          	mv	s4,s3
   19d4c:	00700b13          	li	s6,7
   19d50:	00048993          	mv	s3,s1
   19d54:	01013403          	ld	s0,16(sp)
   19d58:	000b8493          	mv	s1,s7
   19d5c:	00070b93          	mv	s7,a4
   19d60:	00c0006f          	j	19d6c <_svfprintf_r+0x1078>
   19d64:	ff04849b          	addiw	s1,s1,-16
   19d68:	049d5663          	bge	s10,s1,19db4 <_svfprintf_r+0x10c0>
   19d6c:	0016869b          	addiw	a3,a3,1
   19d70:	01078793          	addi	a5,a5,16
   19d74:	01833023          	sd	s8,0(t1)
   19d78:	01a33423          	sd	s10,8(t1)
   19d7c:	12f13023          	sd	a5,288(sp)
   19d80:	10d12c23          	sw	a3,280(sp)
   19d84:	01030313          	addi	t1,t1,16
   19d88:	fcdb5ee3          	bge	s6,a3,19d64 <_svfprintf_r+0x1070>
   19d8c:	11010613          	addi	a2,sp,272
   19d90:	00040593          	mv	a1,s0
   19d94:	000a8513          	mv	a0,s5
   19d98:	6a1030ef          	jal	ra,1dc38 <__ssprint_r>
   19d9c:	94051263          	bnez	a0,18ee0 <_svfprintf_r+0x1ec>
   19da0:	ff04849b          	addiw	s1,s1,-16
   19da4:	12013783          	ld	a5,288(sp)
   19da8:	11812683          	lw	a3,280(sp)
   19dac:	19010313          	addi	t1,sp,400
   19db0:	fa9d4ee3          	blt	s10,s1,19d6c <_svfprintf_r+0x1078>
   19db4:	06813403          	ld	s0,104(sp)
   19db8:	000b8713          	mv	a4,s7
   19dbc:	00048b93          	mv	s7,s1
   19dc0:	00098493          	mv	s1,s3
   19dc4:	000a0993          	mv	s3,s4
   19dc8:	00070a13          	mv	s4,a4
   19dcc:	0016861b          	addiw	a2,a3,1
   19dd0:	017787b3          	add	a5,a5,s7
   19dd4:	01833023          	sd	s8,0(t1)
   19dd8:	01733423          	sd	s7,8(t1)
   19ddc:	12f13023          	sd	a5,288(sp)
   19de0:	10c12c23          	sw	a2,280(sp)
   19de4:	00700693          	li	a3,7
   19de8:	01030313          	addi	t1,t1,16
   19dec:	e2c6d063          	bge	a3,a2,1940c <_svfprintf_r+0x718>
   19df0:	01013583          	ld	a1,16(sp)
   19df4:	11010613          	addi	a2,sp,272
   19df8:	000a8513          	mv	a0,s5
   19dfc:	63d030ef          	jal	ra,1dc38 <__ssprint_r>
   19e00:	8e051063          	bnez	a0,18ee0 <_svfprintf_r+0x1ec>
   19e04:	12013783          	ld	a5,288(sp)
   19e08:	19010313          	addi	t1,sp,400
   19e0c:	e00ff06f          	j	1940c <_svfprintf_r+0x718>
   19e10:	00048a13          	mv	s4,s1
   19e14:	cb4ff06f          	j	192c8 <_svfprintf_r+0x5d4>
   19e18:	11812683          	lw	a3,280(sp)
   19e1c:	00008b17          	auipc	s6,0x8
   19e20:	b14b0b13          	addi	s6,s6,-1260 # 21930 <blanks.4523>
   19e24:	0b0d5863          	bge	s10,a6,19ed4 <_svfprintf_r+0x11e0>
   19e28:	09213c23          	sd	s2,152(sp)
   19e2c:	0a813023          	sd	s0,160(sp)
   19e30:	000b0913          	mv	s2,s6
   19e34:	00700f93          	li	t6,7
   19e38:	000a0b13          	mv	s6,s4
   19e3c:	07d13423          	sd	t4,104(sp)
   19e40:	00098a13          	mv	s4,s3
   19e44:	09e13423          	sd	t5,136(sp)
   19e48:	00048993          	mv	s3,s1
   19e4c:	00080413          	mv	s0,a6
   19e50:	01013483          	ld	s1,16(sp)
   19e54:	00c0006f          	j	19e60 <_svfprintf_r+0x116c>
   19e58:	ff04041b          	addiw	s0,s0,-16
   19e5c:	048d5a63          	bge	s10,s0,19eb0 <_svfprintf_r+0x11bc>
   19e60:	0016869b          	addiw	a3,a3,1
   19e64:	01078793          	addi	a5,a5,16
   19e68:	01233023          	sd	s2,0(t1)
   19e6c:	01a33423          	sd	s10,8(t1)
   19e70:	12f13023          	sd	a5,288(sp)
   19e74:	10d12c23          	sw	a3,280(sp)
   19e78:	01030313          	addi	t1,t1,16
   19e7c:	fcdfdee3          	bge	t6,a3,19e58 <_svfprintf_r+0x1164>
   19e80:	11010613          	addi	a2,sp,272
   19e84:	00048593          	mv	a1,s1
   19e88:	000a8513          	mv	a0,s5
   19e8c:	5ad030ef          	jal	ra,1dc38 <__ssprint_r>
   19e90:	00050463          	beqz	a0,19e98 <_svfprintf_r+0x11a4>
   19e94:	84cff06f          	j	18ee0 <_svfprintf_r+0x1ec>
   19e98:	ff04041b          	addiw	s0,s0,-16
   19e9c:	12013783          	ld	a5,288(sp)
   19ea0:	11812683          	lw	a3,280(sp)
   19ea4:	19010313          	addi	t1,sp,400
   19ea8:	00700f93          	li	t6,7
   19eac:	fa8d4ae3          	blt	s10,s0,19e60 <_svfprintf_r+0x116c>
   19eb0:	00098493          	mv	s1,s3
   19eb4:	00040813          	mv	a6,s0
   19eb8:	000a0993          	mv	s3,s4
   19ebc:	06813e83          	ld	t4,104(sp)
   19ec0:	000b0a13          	mv	s4,s6
   19ec4:	08813f03          	ld	t5,136(sp)
   19ec8:	00090b13          	mv	s6,s2
   19ecc:	0a013403          	ld	s0,160(sp)
   19ed0:	09813903          	ld	s2,152(sp)
   19ed4:	0016861b          	addiw	a2,a3,1
   19ed8:	010787b3          	add	a5,a5,a6
   19edc:	01633023          	sd	s6,0(t1)
   19ee0:	01033423          	sd	a6,8(t1)
   19ee4:	12f13023          	sd	a5,288(sp)
   19ee8:	10c12c23          	sw	a2,280(sp)
   19eec:	00700693          	li	a3,7
   19ef0:	01030313          	addi	t1,t1,16
   19ef4:	c8c6da63          	bge	a3,a2,19388 <_svfprintf_r+0x694>
   19ef8:	01013583          	ld	a1,16(sp)
   19efc:	11010613          	addi	a2,sp,272
   19f00:	000a8513          	mv	a0,s5
   19f04:	09e13423          	sd	t5,136(sp)
   19f08:	07d13423          	sd	t4,104(sp)
   19f0c:	52d030ef          	jal	ra,1dc38 <__ssprint_r>
   19f10:	00050463          	beqz	a0,19f18 <_svfprintf_r+0x1224>
   19f14:	fcdfe06f          	j	18ee0 <_svfprintf_r+0x1ec>
   19f18:	12013783          	ld	a5,288(sp)
   19f1c:	19010313          	addi	t1,sp,400
   19f20:	08813f03          	ld	t5,136(sp)
   19f24:	06813e83          	ld	t4,104(sp)
   19f28:	c60ff06f          	j	19388 <_svfprintf_r+0x694>
   19f2c:	01013583          	ld	a1,16(sp)
   19f30:	11010613          	addi	a2,sp,272
   19f34:	000a8513          	mv	a0,s5
   19f38:	07e13423          	sd	t5,104(sp)
   19f3c:	4fd030ef          	jal	ra,1dc38 <__ssprint_r>
   19f40:	00050463          	beqz	a0,19f48 <_svfprintf_r+0x1254>
   19f44:	f9dfe06f          	j	18ee0 <_svfprintf_r+0x1ec>
   19f48:	12013783          	ld	a5,288(sp)
   19f4c:	19010313          	addi	t1,sp,400
   19f50:	06813f03          	ld	t5,104(sp)
   19f54:	ca8ff06f          	j	193fc <_svfprintf_r+0x708>
   19f58:	11812703          	lw	a4,280(sp)
   19f5c:	00008b17          	auipc	s6,0x8
   19f60:	9d4b0b13          	addi	s6,s6,-1580 # 21930 <blanks.4523>
   19f64:	068d5263          	bge	s10,s0,19fc8 <_svfprintf_r+0x12d4>
   19f68:	00700493          	li	s1,7
   19f6c:	01013b83          	ld	s7,16(sp)
   19f70:	00c0006f          	j	19f7c <_svfprintf_r+0x1288>
   19f74:	ff04041b          	addiw	s0,s0,-16
   19f78:	048d5863          	bge	s10,s0,19fc8 <_svfprintf_r+0x12d4>
   19f7c:	0017071b          	addiw	a4,a4,1
   19f80:	01078793          	addi	a5,a5,16
   19f84:	01633023          	sd	s6,0(t1)
   19f88:	01a33423          	sd	s10,8(t1)
   19f8c:	12f13023          	sd	a5,288(sp)
   19f90:	10e12c23          	sw	a4,280(sp)
   19f94:	01030313          	addi	t1,t1,16
   19f98:	fce4dee3          	bge	s1,a4,19f74 <_svfprintf_r+0x1280>
   19f9c:	11010613          	addi	a2,sp,272
   19fa0:	000b8593          	mv	a1,s7
   19fa4:	000a8513          	mv	a0,s5
   19fa8:	491030ef          	jal	ra,1dc38 <__ssprint_r>
   19fac:	00050463          	beqz	a0,19fb4 <_svfprintf_r+0x12c0>
   19fb0:	f31fe06f          	j	18ee0 <_svfprintf_r+0x1ec>
   19fb4:	ff04041b          	addiw	s0,s0,-16
   19fb8:	12013783          	ld	a5,288(sp)
   19fbc:	11812703          	lw	a4,280(sp)
   19fc0:	19010313          	addi	t1,sp,400
   19fc4:	fa8d4ce3          	blt	s10,s0,19f7c <_svfprintf_r+0x1288>
   19fc8:	0017069b          	addiw	a3,a4,1
   19fcc:	008787b3          	add	a5,a5,s0
   19fd0:	01633023          	sd	s6,0(t1)
   19fd4:	00833423          	sd	s0,8(t1)
   19fd8:	12f13023          	sd	a5,288(sp)
   19fdc:	10d12c23          	sw	a3,280(sp)
   19fe0:	00700713          	li	a4,7
   19fe4:	c6d75463          	bge	a4,a3,1944c <_svfprintf_r+0x758>
   19fe8:	01013583          	ld	a1,16(sp)
   19fec:	11010613          	addi	a2,sp,272
   19ff0:	000a8513          	mv	a0,s5
   19ff4:	445030ef          	jal	ra,1dc38 <__ssprint_r>
   19ff8:	00050463          	beqz	a0,1a000 <_svfprintf_r+0x130c>
   19ffc:	ee5fe06f          	j	18ee0 <_svfprintf_r+0x1ec>
   1a000:	12013783          	ld	a5,288(sp)
   1a004:	c48ff06f          	j	1944c <_svfprintf_r+0x758>
   1a008:	00100713          	li	a4,1
   1a00c:	30e78ee3          	beq	a5,a4,1ab28 <_svfprintf_r+0x1e34>
   1a010:	00200713          	li	a4,2
   1a014:	00048a13          	mv	s4,s1
   1a018:	ace79063          	bne	a5,a4,192d8 <_svfprintf_r+0x5e4>
   1a01c:	05813703          	ld	a4,88(sp)
   1a020:	18c10c93          	addi	s9,sp,396
   1a024:	000c8d93          	mv	s11,s9
   1a028:	00fb7793          	andi	a5,s6,15
   1a02c:	00f707b3          	add	a5,a4,a5
   1a030:	0007c783          	lbu	a5,0(a5)
   1a034:	fffd8d93          	addi	s11,s11,-1
   1a038:	004b5b13          	srli	s6,s6,0x4
   1a03c:	00fd8023          	sb	a5,0(s11)
   1a040:	fe0b14e3          	bnez	s6,1a028 <_svfprintf_r+0x1334>
   1a044:	41bc8cbb          	subw	s9,s9,s11
   1a048:	000a0493          	mv	s1,s4
   1a04c:	f85fe06f          	j	18fd0 <_svfprintf_r+0x2dc>
   1a050:	0e812583          	lw	a1,232(sp)
   1a054:	58b05663          	blez	a1,1a5e0 <_svfprintf_r+0x18ec>
   1a058:	03013703          	ld	a4,48(sp)
   1a05c:	02813683          	ld	a3,40(sp)
   1a060:	0007041b          	sext.w	s0,a4
   1a064:	2ae6c463          	blt	a3,a4,1a30c <_svfprintf_r+0x1618>
   1a068:	02805663          	blez	s0,1a094 <_svfprintf_r+0x13a0>
   1a06c:	11812683          	lw	a3,280(sp)
   1a070:	008787b3          	add	a5,a5,s0
   1a074:	01b33023          	sd	s11,0(t1)
   1a078:	0016861b          	addiw	a2,a3,1
   1a07c:	00833423          	sd	s0,8(t1)
   1a080:	12f13023          	sd	a5,288(sp)
   1a084:	10c12c23          	sw	a2,280(sp)
   1a088:	00700693          	li	a3,7
   1a08c:	01030313          	addi	t1,t1,16
   1a090:	16c6c8e3          	blt	a3,a2,1aa00 <_svfprintf_r+0x1d0c>
   1a094:	fff44693          	not	a3,s0
   1a098:	02813703          	ld	a4,40(sp)
   1a09c:	43f6d693          	srai	a3,a3,0x3f
   1a0a0:	00d47433          	and	s0,s0,a3
   1a0a4:	4087043b          	subw	s0,a4,s0
   1a0a8:	30804a63          	bgtz	s0,1a3bc <_svfprintf_r+0x16c8>
   1a0ac:	02813703          	ld	a4,40(sp)
   1a0b0:	4004f693          	andi	a3,s1,1024
   1a0b4:	00ed8bb3          	add	s7,s11,a4
   1a0b8:	36069463          	bnez	a3,1a420 <_svfprintf_r+0x172c>
   1a0bc:	0e812683          	lw	a3,232(sp)
   1a0c0:	03013703          	ld	a4,48(sp)
   1a0c4:	00e6c663          	blt	a3,a4,1a0d0 <_svfprintf_r+0x13dc>
   1a0c8:	0014f613          	andi	a2,s1,1
   1a0cc:	18060ee3          	beqz	a2,1aa68 <_svfprintf_r+0x1d74>
   1a0d0:	06013603          	ld	a2,96(sp)
   1a0d4:	05013703          	ld	a4,80(sp)
   1a0d8:	01030313          	addi	t1,t1,16
   1a0dc:	fec33823          	sd	a2,-16(t1)
   1a0e0:	11812603          	lw	a2,280(sp)
   1a0e4:	00e787b3          	add	a5,a5,a4
   1a0e8:	fee33c23          	sd	a4,-8(t1)
   1a0ec:	0016059b          	addiw	a1,a2,1
   1a0f0:	12f13023          	sd	a5,288(sp)
   1a0f4:	10b12c23          	sw	a1,280(sp)
   1a0f8:	00700613          	li	a2,7
   1a0fc:	3eb64ee3          	blt	a2,a1,1acf8 <_svfprintf_r+0x2004>
   1a100:	03013703          	ld	a4,48(sp)
   1a104:	40d7063b          	subw	a2,a4,a3
   1a108:	00ed8733          	add	a4,s11,a4
   1a10c:	4177073b          	subw	a4,a4,s7
   1a110:	00060693          	mv	a3,a2
   1a114:	00c75463          	bge	a4,a2,1a11c <_svfprintf_r+0x1428>
   1a118:	00070693          	mv	a3,a4
   1a11c:	0006841b          	sext.w	s0,a3
   1a120:	02805663          	blez	s0,1a14c <_svfprintf_r+0x1458>
   1a124:	11812703          	lw	a4,280(sp)
   1a128:	008787b3          	add	a5,a5,s0
   1a12c:	01733023          	sd	s7,0(t1)
   1a130:	0017069b          	addiw	a3,a4,1
   1a134:	00833423          	sd	s0,8(t1)
   1a138:	12f13023          	sd	a5,288(sp)
   1a13c:	10d12c23          	sw	a3,280(sp)
   1a140:	00700713          	li	a4,7
   1a144:	01030313          	addi	t1,t1,16
   1a148:	40d742e3          	blt	a4,a3,1ad4c <_svfprintf_r+0x2058>
   1a14c:	fff44713          	not	a4,s0
   1a150:	43f75713          	srai	a4,a4,0x3f
   1a154:	00e47433          	and	s0,s0,a4
   1a158:	4086043b          	subw	s0,a2,s0
   1a15c:	ae805063          	blez	s0,1943c <_svfprintf_r+0x748>
   1a160:	11812703          	lw	a4,280(sp)
   1a164:	5e8d5863          	bge	s10,s0,1a754 <_svfprintf_r+0x1a60>
   1a168:	00700c93          	li	s9,7
   1a16c:	01013b03          	ld	s6,16(sp)
   1a170:	00c0006f          	j	1a17c <_svfprintf_r+0x1488>
   1a174:	ff04041b          	addiw	s0,s0,-16
   1a178:	5c8d5e63          	bge	s10,s0,1a754 <_svfprintf_r+0x1a60>
   1a17c:	0017071b          	addiw	a4,a4,1
   1a180:	01078793          	addi	a5,a5,16
   1a184:	01833023          	sd	s8,0(t1)
   1a188:	01a33423          	sd	s10,8(t1)
   1a18c:	12f13023          	sd	a5,288(sp)
   1a190:	10e12c23          	sw	a4,280(sp)
   1a194:	01030313          	addi	t1,t1,16
   1a198:	fcecdee3          	bge	s9,a4,1a174 <_svfprintf_r+0x1480>
   1a19c:	11010613          	addi	a2,sp,272
   1a1a0:	000b0593          	mv	a1,s6
   1a1a4:	000a8513          	mv	a0,s5
   1a1a8:	291030ef          	jal	ra,1dc38 <__ssprint_r>
   1a1ac:	00050463          	beqz	a0,1a1b4 <_svfprintf_r+0x14c0>
   1a1b0:	d31fe06f          	j	18ee0 <_svfprintf_r+0x1ec>
   1a1b4:	12013783          	ld	a5,288(sp)
   1a1b8:	11812703          	lw	a4,280(sp)
   1a1bc:	19010313          	addi	t1,sp,400
   1a1c0:	fb5ff06f          	j	1a174 <_svfprintf_r+0x1480>
   1a1c4:	0014f513          	andi	a0,s1,1
   1a1c8:	b4051063          	bnez	a0,19508 <_svfprintf_r+0x814>
   1a1cc:	00c33423          	sd	a2,8(t1)
   1a1d0:	13913023          	sd	s9,288(sp)
   1a1d4:	10f12c23          	sw	a5,280(sp)
   1a1d8:	00700713          	li	a4,7
   1a1dc:	3cf74a63          	blt	a4,a5,1a5b0 <_svfprintf_r+0x18bc>
   1a1e0:	00258b1b          	addiw	s6,a1,2
   1a1e4:	02030313          	addi	t1,t1,32
   1a1e8:	be0ff06f          	j	195c8 <_svfprintf_r+0x8d4>
   1a1ec:	bd705e63          	blez	s7,195c8 <_svfprintf_r+0x8d4>
   1a1f0:	017d4463          	blt	s10,s7,1a1f8 <_svfprintf_r+0x1504>
   1a1f4:	1a00106f          	j	1b394 <_svfprintf_r+0x26a0>
   1a1f8:	00700b13          	li	s6,7
   1a1fc:	01013d83          	ld	s11,16(sp)
   1a200:	0100006f          	j	1a210 <_svfprintf_r+0x151c>
   1a204:	ff0b8b9b          	addiw	s7,s7,-16
   1a208:	6f7d5463          	bge	s10,s7,1a8f0 <_svfprintf_r+0x1bfc>
   1a20c:	0017889b          	addiw	a7,a5,1
   1a210:	010c8c93          	addi	s9,s9,16
   1a214:	01843023          	sd	s8,0(s0)
   1a218:	01a43423          	sd	s10,8(s0)
   1a21c:	13913023          	sd	s9,288(sp)
   1a220:	0008879b          	sext.w	a5,a7
   1a224:	11112c23          	sw	a7,280(sp)
   1a228:	01040413          	addi	s0,s0,16
   1a22c:	fcfb5ce3          	bge	s6,a5,1a204 <_svfprintf_r+0x1510>
   1a230:	11010613          	addi	a2,sp,272
   1a234:	000d8593          	mv	a1,s11
   1a238:	000a8513          	mv	a0,s5
   1a23c:	1fd030ef          	jal	ra,1dc38 <__ssprint_r>
   1a240:	00050463          	beqz	a0,1a248 <_svfprintf_r+0x1554>
   1a244:	c9dfe06f          	j	18ee0 <_svfprintf_r+0x1ec>
   1a248:	12013c83          	ld	s9,288(sp)
   1a24c:	11812783          	lw	a5,280(sp)
   1a250:	19010413          	addi	s0,sp,400
   1a254:	fb1ff06f          	j	1a204 <_svfprintf_r+0x1510>
   1a258:	000d8493          	mv	s1,s11
   1a25c:	bddfe06f          	j	18e38 <_svfprintf_r+0x144>
   1a260:	01013583          	ld	a1,16(sp)
   1a264:	11010613          	addi	a2,sp,272
   1a268:	000a8513          	mv	a0,s5
   1a26c:	1cd030ef          	jal	ra,1dc38 <__ssprint_r>
   1a270:	00050463          	beqz	a0,1a278 <_svfprintf_r+0x1584>
   1a274:	c6dfe06f          	j	18ee0 <_svfprintf_r+0x1ec>
   1a278:	12013c83          	ld	s9,288(sp)
   1a27c:	11812783          	lw	a5,280(sp)
   1a280:	19010413          	addi	s0,sp,400
   1a284:	a9cff06f          	j	19520 <_svfprintf_r+0x82c>
   1a288:	01013583          	ld	a1,16(sp)
   1a28c:	11010613          	addi	a2,sp,272
   1a290:	000a8513          	mv	a0,s5
   1a294:	1a5030ef          	jal	ra,1dc38 <__ssprint_r>
   1a298:	00050463          	beqz	a0,1a2a0 <_svfprintf_r+0x15ac>
   1a29c:	c45fe06f          	j	18ee0 <_svfprintf_r+0x1ec>
   1a2a0:	12013c83          	ld	s9,288(sp)
   1a2a4:	11812783          	lw	a5,280(sp)
   1a2a8:	19010413          	addi	s0,sp,400
   1a2ac:	aa4ff06f          	j	19550 <_svfprintf_r+0x85c>
   1a2b0:	03000793          	li	a5,48
   1a2b4:	18f105a3          	sb	a5,395(sp)
   1a2b8:	18b10d93          	addi	s11,sp,395
   1a2bc:	d15fe06f          	j	18fd0 <_svfprintf_r+0x2dc>
   1a2c0:	00048a13          	mv	s4,s1
   1a2c4:	fd9fe06f          	j	1929c <_svfprintf_r+0x5a8>
   1a2c8:	00048a13          	mv	s4,s1
   1a2cc:	f09fe06f          	j	191d4 <_svfprintf_r+0x4e0>
   1a2d0:	00094403          	lbu	s0,0(s2)
   1a2d4:	b89fe06f          	j	18e5c <_svfprintf_r+0x168>
   1a2d8:	01813783          	ld	a5,24(sp)
   1a2dc:	03913023          	sd	s9,32(sp)
   1a2e0:	0007b503          	ld	a0,0(a5)
   1a2e4:	00878793          	addi	a5,a5,8
   1a2e8:	00f13c23          	sd	a5,24(sp)
   1a2ec:	28d060ef          	jal	ra,20d78 <__extenddftf2>
   1a2f0:	10a13023          	sd	a0,256(sp)
   1a2f4:	10b13423          	sd	a1,264(sp)
   1a2f8:	02013303          	ld	t1,32(sp)
   1a2fc:	b40ff06f          	j	1963c <_svfprintf_r+0x948>
   1a300:	01813783          	ld	a5,24(sp)
   1a304:	0007bb03          	ld	s6,0(a5)
   1a308:	c65fe06f          	j	18f6c <_svfprintf_r+0x278>
   1a30c:	0006841b          	sext.w	s0,a3
   1a310:	d4804ee3          	bgtz	s0,1a06c <_svfprintf_r+0x1378>
   1a314:	d81ff06f          	j	1a094 <_svfprintf_r+0x13a0>
   1a318:	01013583          	ld	a1,16(sp)
   1a31c:	11010613          	addi	a2,sp,272
   1a320:	000a8513          	mv	a0,s5
   1a324:	115030ef          	jal	ra,1dc38 <__ssprint_r>
   1a328:	00050463          	beqz	a0,1a330 <_svfprintf_r+0x163c>
   1a32c:	bb5fe06f          	j	18ee0 <_svfprintf_r+0x1ec>
   1a330:	12013783          	ld	a5,288(sp)
   1a334:	19010313          	addi	t1,sp,400
   1a338:	8adff06f          	j	19be4 <_svfprintf_r+0xef0>
   1a33c:	0204e493          	ori	s1,s1,32
   1a340:	00194403          	lbu	s0,1(s2)
   1a344:	0004849b          	sext.w	s1,s1
   1a348:	00190913          	addi	s2,s2,1
   1a34c:	b11fe06f          	j	18e5c <_svfprintf_r+0x168>
   1a350:	2004e493          	ori	s1,s1,512
   1a354:	00194403          	lbu	s0,1(s2)
   1a358:	0004849b          	sext.w	s1,s1
   1a35c:	00190913          	addi	s2,s2,1
   1a360:	afdfe06f          	j	18e5c <_svfprintf_r+0x168>
   1a364:	04813503          	ld	a0,72(sp)
   1a368:	04000593          	li	a1,64
   1a36c:	f48fc0ef          	jal	ra,16ab4 <_malloc_r>
   1a370:	01013783          	ld	a5,16(sp)
   1a374:	00a7b023          	sd	a0,0(a5)
   1a378:	00a7bc23          	sd	a0,24(a5)
   1a37c:	00051463          	bnez	a0,1a384 <_svfprintf_r+0x1690>
   1a380:	0580106f          	j	1b3d8 <_svfprintf_r+0x26e4>
   1a384:	01013703          	ld	a4,16(sp)
   1a388:	04000793          	li	a5,64
   1a38c:	02f72023          	sw	a5,32(a4)
   1a390:	9e9fe06f          	j	18d78 <_svfprintf_r+0x84>
   1a394:	000b871b          	sext.w	a4,s7
   1a398:	00600793          	li	a5,6
   1a39c:	000b8e13          	mv	t3,s7
   1a3a0:	6ce7e063          	bltu	a5,a4,1aa60 <_svfprintf_r+0x1d6c>
   1a3a4:	000e0c9b          	sext.w	s9,t3
   1a3a8:	000c8a13          	mv	s4,s9
   1a3ac:	01613c23          	sd	s6,24(sp)
   1a3b0:	00007d97          	auipc	s11,0x7
   1a3b4:	020d8d93          	addi	s11,s11,32 # 213d0 <zeroes.4539+0x98>
   1a3b8:	f99fe06f          	j	19350 <_svfprintf_r+0x65c>
   1a3bc:	11812683          	lw	a3,280(sp)
   1a3c0:	5e8d5663          	bge	s10,s0,1a9ac <_svfprintf_r+0x1cb8>
   1a3c4:	00700c93          	li	s9,7
   1a3c8:	01013b03          	ld	s6,16(sp)
   1a3cc:	00c0006f          	j	1a3d8 <_svfprintf_r+0x16e4>
   1a3d0:	ff04041b          	addiw	s0,s0,-16
   1a3d4:	5c8d5c63          	bge	s10,s0,1a9ac <_svfprintf_r+0x1cb8>
   1a3d8:	0016869b          	addiw	a3,a3,1
   1a3dc:	01078793          	addi	a5,a5,16
   1a3e0:	01833023          	sd	s8,0(t1)
   1a3e4:	01a33423          	sd	s10,8(t1)
   1a3e8:	12f13023          	sd	a5,288(sp)
   1a3ec:	10d12c23          	sw	a3,280(sp)
   1a3f0:	01030313          	addi	t1,t1,16
   1a3f4:	fcdcdee3          	bge	s9,a3,1a3d0 <_svfprintf_r+0x16dc>
   1a3f8:	11010613          	addi	a2,sp,272
   1a3fc:	000b0593          	mv	a1,s6
   1a400:	000a8513          	mv	a0,s5
   1a404:	035030ef          	jal	ra,1dc38 <__ssprint_r>
   1a408:	00050463          	beqz	a0,1a410 <_svfprintf_r+0x171c>
   1a40c:	ad5fe06f          	j	18ee0 <_svfprintf_r+0x1ec>
   1a410:	12013783          	ld	a5,288(sp)
   1a414:	11812683          	lw	a3,280(sp)
   1a418:	19010313          	addi	t1,sp,400
   1a41c:	fb5ff06f          	j	1a3d0 <_svfprintf_r+0x16dc>
   1a420:	03013703          	ld	a4,48(sp)
   1a424:	03813c83          	ld	s9,56(sp)
   1a428:	03213423          	sd	s2,40(sp)
   1a42c:	06913423          	sd	s1,104(sp)
   1a430:	09313423          	sd	s3,136(sp)
   1a434:	04013903          	ld	s2,64(sp)
   1a438:	03413c23          	sd	s4,56(sp)
   1a43c:	05b13023          	sd	s11,64(sp)
   1a440:	00700b13          	li	s6,7
   1a444:	00ed8433          	add	s0,s11,a4
   1a448:	09013983          	ld	s3,144(sp)
   1a44c:	08013483          	ld	s1,128(sp)
   1a450:	01013a03          	ld	s4,16(sp)
   1a454:	0a0c8063          	beqz	s9,1a4f4 <_svfprintf_r+0x1800>
   1a458:	0a091063          	bnez	s2,1a4f8 <_svfprintf_r+0x1804>
   1a45c:	fff48493          	addi	s1,s1,-1
   1a460:	fffc8c9b          	addiw	s9,s9,-1
   1a464:	07813703          	ld	a4,120(sp)
   1a468:	013787b3          	add	a5,a5,s3
   1a46c:	01333423          	sd	s3,8(t1)
   1a470:	00e33023          	sd	a4,0(t1)
   1a474:	11812703          	lw	a4,280(sp)
   1a478:	12f13023          	sd	a5,288(sp)
   1a47c:	01030313          	addi	t1,t1,16
   1a480:	0017069b          	addiw	a3,a4,1
   1a484:	10d12c23          	sw	a3,280(sp)
   1a488:	10db4263          	blt	s6,a3,1a58c <_svfprintf_r+0x1898>
   1a48c:	0004c603          	lbu	a2,0(s1)
   1a490:	417405bb          	subw	a1,s0,s7
   1a494:	0006071b          	sext.w	a4,a2
   1a498:	00070693          	mv	a3,a4
   1a49c:	00e5d463          	bge	a1,a4,1a4a4 <_svfprintf_r+0x17b0>
   1a4a0:	00058693          	mv	a3,a1
   1a4a4:	00068d9b          	sext.w	s11,a3
   1a4a8:	03b05863          	blez	s11,1a4d8 <_svfprintf_r+0x17e4>
   1a4ac:	11812703          	lw	a4,280(sp)
   1a4b0:	01b787b3          	add	a5,a5,s11
   1a4b4:	01733023          	sd	s7,0(t1)
   1a4b8:	0017061b          	addiw	a2,a4,1
   1a4bc:	01b33423          	sd	s11,8(t1)
   1a4c0:	12f13023          	sd	a5,288(sp)
   1a4c4:	10c12c23          	sw	a2,280(sp)
   1a4c8:	2acb4a63          	blt	s6,a2,1a77c <_svfprintf_r+0x1a88>
   1a4cc:	0004c603          	lbu	a2,0(s1)
   1a4d0:	01030313          	addi	t1,t1,16
   1a4d4:	0006071b          	sext.w	a4,a2
   1a4d8:	fffdc593          	not	a1,s11
   1a4dc:	43f5d593          	srai	a1,a1,0x3f
   1a4e0:	00bdf6b3          	and	a3,s11,a1
   1a4e4:	40d70dbb          	subw	s11,a4,a3
   1a4e8:	01b04c63          	bgtz	s11,1a500 <_svfprintf_r+0x180c>
   1a4ec:	00cb8bb3          	add	s7,s7,a2
   1a4f0:	f60c94e3          	bnez	s9,1a458 <_svfprintf_r+0x1764>
   1a4f4:	62090e63          	beqz	s2,1ab30 <_svfprintf_r+0x1e3c>
   1a4f8:	fff9091b          	addiw	s2,s2,-1
   1a4fc:	f69ff06f          	j	1a464 <_svfprintf_r+0x1770>
   1a500:	11812683          	lw	a3,280(sp)
   1a504:	01bd4863          	blt	s10,s11,1a514 <_svfprintf_r+0x1820>
   1a508:	0580006f          	j	1a560 <_svfprintf_r+0x186c>
   1a50c:	ff0d8d9b          	addiw	s11,s11,-16
   1a510:	05bd5863          	bge	s10,s11,1a560 <_svfprintf_r+0x186c>
   1a514:	0016869b          	addiw	a3,a3,1
   1a518:	01078793          	addi	a5,a5,16
   1a51c:	01833023          	sd	s8,0(t1)
   1a520:	01a33423          	sd	s10,8(t1)
   1a524:	12f13023          	sd	a5,288(sp)
   1a528:	10d12c23          	sw	a3,280(sp)
   1a52c:	01030313          	addi	t1,t1,16
   1a530:	fcdb5ee3          	bge	s6,a3,1a50c <_svfprintf_r+0x1818>
   1a534:	11010613          	addi	a2,sp,272
   1a538:	000a0593          	mv	a1,s4
   1a53c:	000a8513          	mv	a0,s5
   1a540:	6f8030ef          	jal	ra,1dc38 <__ssprint_r>
   1a544:	00050463          	beqz	a0,1a54c <_svfprintf_r+0x1858>
   1a548:	999fe06f          	j	18ee0 <_svfprintf_r+0x1ec>
   1a54c:	ff0d8d9b          	addiw	s11,s11,-16
   1a550:	12013783          	ld	a5,288(sp)
   1a554:	11812683          	lw	a3,280(sp)
   1a558:	19010313          	addi	t1,sp,400
   1a55c:	fbbd4ce3          	blt	s10,s11,1a514 <_svfprintf_r+0x1820>
   1a560:	0016871b          	addiw	a4,a3,1
   1a564:	01b787b3          	add	a5,a5,s11
   1a568:	01833023          	sd	s8,0(t1)
   1a56c:	01b33423          	sd	s11,8(t1)
   1a570:	12f13023          	sd	a5,288(sp)
   1a574:	10e12c23          	sw	a4,280(sp)
   1a578:	70eb4863          	blt	s6,a4,1ac88 <_svfprintf_r+0x1f94>
   1a57c:	0004c603          	lbu	a2,0(s1)
   1a580:	01030313          	addi	t1,t1,16
   1a584:	00cb8bb3          	add	s7,s7,a2
   1a588:	f69ff06f          	j	1a4f0 <_svfprintf_r+0x17fc>
   1a58c:	11010613          	addi	a2,sp,272
   1a590:	000a0593          	mv	a1,s4
   1a594:	000a8513          	mv	a0,s5
   1a598:	6a0030ef          	jal	ra,1dc38 <__ssprint_r>
   1a59c:	00050463          	beqz	a0,1a5a4 <_svfprintf_r+0x18b0>
   1a5a0:	941fe06f          	j	18ee0 <_svfprintf_r+0x1ec>
   1a5a4:	12013783          	ld	a5,288(sp)
   1a5a8:	19010313          	addi	t1,sp,400
   1a5ac:	ee1ff06f          	j	1a48c <_svfprintf_r+0x1798>
   1a5b0:	01013583          	ld	a1,16(sp)
   1a5b4:	11010613          	addi	a2,sp,272
   1a5b8:	000a8513          	mv	a0,s5
   1a5bc:	67c030ef          	jal	ra,1dc38 <__ssprint_r>
   1a5c0:	00050463          	beqz	a0,1a5c8 <_svfprintf_r+0x18d4>
   1a5c4:	91dfe06f          	j	18ee0 <_svfprintf_r+0x1ec>
   1a5c8:	11812583          	lw	a1,280(sp)
   1a5cc:	12013c83          	ld	s9,288(sp)
   1a5d0:	1a010313          	addi	t1,sp,416
   1a5d4:	00158b1b          	addiw	s6,a1,1
   1a5d8:	19010413          	addi	s0,sp,400
   1a5dc:	fedfe06f          	j	195c8 <_svfprintf_r+0x8d4>
   1a5e0:	11812683          	lw	a3,280(sp)
   1a5e4:	00007617          	auipc	a2,0x7
   1a5e8:	df460613          	addi	a2,a2,-524 # 213d8 <zeroes.4539+0xa0>
   1a5ec:	00c33023          	sd	a2,0(t1)
   1a5f0:	0016869b          	addiw	a3,a3,1
   1a5f4:	00100613          	li	a2,1
   1a5f8:	00178793          	addi	a5,a5,1
   1a5fc:	00c33423          	sd	a2,8(t1)
   1a600:	10d12c23          	sw	a3,280(sp)
   1a604:	0006861b          	sext.w	a2,a3
   1a608:	12f13023          	sd	a5,288(sp)
   1a60c:	00700693          	li	a3,7
   1a610:	01030313          	addi	t1,t1,16
   1a614:	06c6cc63          	blt	a3,a2,1a68c <_svfprintf_r+0x1998>
   1a618:	1e059863          	bnez	a1,1a808 <_svfprintf_r+0x1b14>
   1a61c:	03013703          	ld	a4,48(sp)
   1a620:	0014f693          	andi	a3,s1,1
   1a624:	00d766b3          	or	a3,a4,a3
   1a628:	00069463          	bnez	a3,1a630 <_svfprintf_r+0x193c>
   1a62c:	e11fe06f          	j	1943c <_svfprintf_r+0x748>
   1a630:	11812603          	lw	a2,280(sp)
   1a634:	05013703          	ld	a4,80(sp)
   1a638:	06013683          	ld	a3,96(sp)
   1a63c:	00e787b3          	add	a5,a5,a4
   1a640:	00d33023          	sd	a3,0(t1)
   1a644:	0016069b          	addiw	a3,a2,1
   1a648:	00e33423          	sd	a4,8(t1)
   1a64c:	12f13023          	sd	a5,288(sp)
   1a650:	10d12c23          	sw	a3,280(sp)
   1a654:	00700613          	li	a2,7
   1a658:	48d64c63          	blt	a2,a3,1aaf0 <_svfprintf_r+0x1dfc>
   1a65c:	01030313          	addi	t1,t1,16
   1a660:	03013703          	ld	a4,48(sp)
   1a664:	0016861b          	addiw	a2,a3,1
   1a668:	01b33023          	sd	s11,0(t1)
   1a66c:	00f707b3          	add	a5,a4,a5
   1a670:	00e33423          	sd	a4,8(t1)
   1a674:	12f13023          	sd	a5,288(sp)
   1a678:	10c12c23          	sw	a2,280(sp)
   1a67c:	00700713          	li	a4,7
   1a680:	00c74463          	blt	a4,a2,1a688 <_svfprintf_r+0x1994>
   1a684:	db5fe06f          	j	19438 <_svfprintf_r+0x744>
   1a688:	f65fe06f          	j	195ec <_svfprintf_r+0x8f8>
   1a68c:	01013583          	ld	a1,16(sp)
   1a690:	11010613          	addi	a2,sp,272
   1a694:	000a8513          	mv	a0,s5
   1a698:	5a0030ef          	jal	ra,1dc38 <__ssprint_r>
   1a69c:	00050463          	beqz	a0,1a6a4 <_svfprintf_r+0x19b0>
   1a6a0:	841fe06f          	j	18ee0 <_svfprintf_r+0x1ec>
   1a6a4:	0e812583          	lw	a1,232(sp)
   1a6a8:	12013783          	ld	a5,288(sp)
   1a6ac:	19010313          	addi	t1,sp,400
   1a6b0:	f69ff06f          	j	1a618 <_svfprintf_r+0x1924>
   1a6b4:	400a7493          	andi	s1,s4,1024
   1a6b8:	03213023          	sd	s2,32(sp)
   1a6bc:	08013903          	ld	s2,128(sp)
   1a6c0:	18c10c93          	addi	s9,sp,396
   1a6c4:	0004849b          	sext.w	s1,s1
   1a6c8:	00000793          	li	a5,0
   1a6cc:	000c8d93          	mv	s11,s9
   1a6d0:	02813423          	sd	s0,40(sp)
   1a6d4:	03313c23          	sd	s3,56(sp)
   1a6d8:	000c8413          	mv	s0,s9
   1a6dc:	000b0993          	mv	s3,s6
   1a6e0:	000a8c93          	mv	s9,s5
   1a6e4:	00048b13          	mv	s6,s1
   1a6e8:	00030a93          	mv	s5,t1
   1a6ec:	00078493          	mv	s1,a5
   1a6f0:	00a00593          	li	a1,10
   1a6f4:	00098513          	mv	a0,s3
   1a6f8:	1e1060ef          	jal	ra,210d8 <__umoddi3>
   1a6fc:	0305051b          	addiw	a0,a0,48
   1a700:	fea40fa3          	sb	a0,-1(s0)
   1a704:	0014849b          	addiw	s1,s1,1
   1a708:	fff40413          	addi	s0,s0,-1
   1a70c:	000b0663          	beqz	s6,1a718 <_svfprintf_r+0x1a24>
   1a710:	00094683          	lbu	a3,0(s2)
   1a714:	bcd48a63          	beq	s1,a3,19ae8 <_svfprintf_r+0xdf4>
   1a718:	00a00593          	li	a1,10
   1a71c:	00098513          	mv	a0,s3
   1a720:	171060ef          	jal	ra,21090 <__udivdi3>
   1a724:	00900793          	li	a5,9
   1a728:	bd37f863          	bgeu	a5,s3,19af8 <_svfprintf_r+0xe04>
   1a72c:	00050993          	mv	s3,a0
   1a730:	fc1ff06f          	j	1a6f0 <_svfprintf_r+0x19fc>
   1a734:	01013583          	ld	a1,16(sp)
   1a738:	11010613          	addi	a2,sp,272
   1a73c:	000a8513          	mv	a0,s5
   1a740:	4f8030ef          	jal	ra,1dc38 <__ssprint_r>
   1a744:	00050463          	beqz	a0,1a74c <_svfprintf_r+0x1a58>
   1a748:	f98fe06f          	j	18ee0 <_svfprintf_r+0x1ec>
   1a74c:	19010313          	addi	t1,sp,400
   1a750:	c40ff06f          	j	19b90 <_svfprintf_r+0xe9c>
   1a754:	0017069b          	addiw	a3,a4,1
   1a758:	01833023          	sd	s8,0(t1)
   1a75c:	00833423          	sd	s0,8(t1)
   1a760:	008787b3          	add	a5,a5,s0
   1a764:	12f13023          	sd	a5,288(sp)
   1a768:	10d12c23          	sw	a3,280(sp)
   1a76c:	00700713          	li	a4,7
   1a770:	00d74463          	blt	a4,a3,1a778 <_svfprintf_r+0x1a84>
   1a774:	cc5fe06f          	j	19438 <_svfprintf_r+0x744>
   1a778:	e75fe06f          	j	195ec <_svfprintf_r+0x8f8>
   1a77c:	11010613          	addi	a2,sp,272
   1a780:	000a0593          	mv	a1,s4
   1a784:	000a8513          	mv	a0,s5
   1a788:	4b0030ef          	jal	ra,1dc38 <__ssprint_r>
   1a78c:	00050463          	beqz	a0,1a794 <_svfprintf_r+0x1aa0>
   1a790:	f50fe06f          	j	18ee0 <_svfprintf_r+0x1ec>
   1a794:	0004c603          	lbu	a2,0(s1)
   1a798:	12013783          	ld	a5,288(sp)
   1a79c:	19010313          	addi	t1,sp,400
   1a7a0:	0006071b          	sext.w	a4,a2
   1a7a4:	d35ff06f          	j	1a4d8 <_svfprintf_r+0x17e4>
   1a7a8:	10013503          	ld	a0,256(sp)
   1a7ac:	10813583          	ld	a1,264(sp)
   1a7b0:	00000613          	li	a2,0
   1a7b4:	00000693          	li	a3,0
   1a7b8:	4f8050ef          	jal	ra,1fcb0 <__letf2>
   1a7bc:	02013303          	ld	t1,32(sp)
   1a7c0:	52054663          	bltz	a0,1acec <_svfprintf_r+0x1ff8>
   1a7c4:	0df14783          	lbu	a5,223(sp)
   1a7c8:	04700693          	li	a3,71
   1a7cc:	00007d97          	auipc	s11,0x7
   1a7d0:	bb4d8d93          	addi	s11,s11,-1100 # 21380 <zeroes.4539+0x48>
   1a7d4:	2286c063          	blt	a3,s0,1a9f4 <_svfprintf_r+0x1d00>
   1a7d8:	f7f4f493          	andi	s1,s1,-129
   1a7dc:	02013023          	sd	zero,32(sp)
   1a7e0:	04013023          	sd	zero,64(sp)
   1a7e4:	02013c23          	sd	zero,56(sp)
   1a7e8:	02013423          	sd	zero,40(sp)
   1a7ec:	0004849b          	sext.w	s1,s1
   1a7f0:	00300a13          	li	s4,3
   1a7f4:	00300c93          	li	s9,3
   1a7f8:	00000b93          	li	s7,0
   1a7fc:	00078463          	beqz	a5,1a804 <_svfprintf_r+0x1b10>
   1a800:	ff4fe06f          	j	18ff4 <_svfprintf_r+0x300>
   1a804:	b61fe06f          	j	19364 <_svfprintf_r+0x670>
   1a808:	11812603          	lw	a2,280(sp)
   1a80c:	05013703          	ld	a4,80(sp)
   1a810:	06013683          	ld	a3,96(sp)
   1a814:	01030313          	addi	t1,t1,16
   1a818:	00e787b3          	add	a5,a5,a4
   1a81c:	fed33823          	sd	a3,-16(t1)
   1a820:	0016069b          	addiw	a3,a2,1
   1a824:	fee33c23          	sd	a4,-8(t1)
   1a828:	12f13023          	sd	a5,288(sp)
   1a82c:	10d12c23          	sw	a3,280(sp)
   1a830:	00700613          	li	a2,7
   1a834:	2ad64e63          	blt	a2,a3,1aaf0 <_svfprintf_r+0x1dfc>
   1a838:	e205d4e3          	bgez	a1,1a660 <_svfprintf_r+0x196c>
   1a83c:	ff000613          	li	a2,-16
   1a840:	40b0043b          	negw	s0,a1
   1a844:	0ec5d6e3          	bge	a1,a2,1b130 <_svfprintf_r+0x243c>
   1a848:	00700c93          	li	s9,7
   1a84c:	01013b03          	ld	s6,16(sp)
   1a850:	00c0006f          	j	1a85c <_svfprintf_r+0x1b68>
   1a854:	ff04041b          	addiw	s0,s0,-16
   1a858:	0c8d5ce3          	bge	s10,s0,1b130 <_svfprintf_r+0x243c>
   1a85c:	0016869b          	addiw	a3,a3,1
   1a860:	01078793          	addi	a5,a5,16
   1a864:	01833023          	sd	s8,0(t1)
   1a868:	01a33423          	sd	s10,8(t1)
   1a86c:	12f13023          	sd	a5,288(sp)
   1a870:	10d12c23          	sw	a3,280(sp)
   1a874:	01030313          	addi	t1,t1,16
   1a878:	fcdcdee3          	bge	s9,a3,1a854 <_svfprintf_r+0x1b60>
   1a87c:	11010613          	addi	a2,sp,272
   1a880:	000b0593          	mv	a1,s6
   1a884:	000a8513          	mv	a0,s5
   1a888:	3b0030ef          	jal	ra,1dc38 <__ssprint_r>
   1a88c:	00050463          	beqz	a0,1a894 <_svfprintf_r+0x1ba0>
   1a890:	e50fe06f          	j	18ee0 <_svfprintf_r+0x1ec>
   1a894:	12013783          	ld	a5,288(sp)
   1a898:	11812683          	lw	a3,280(sp)
   1a89c:	19010313          	addi	t1,sp,400
   1a8a0:	fb5ff06f          	j	1a854 <_svfprintf_r+0x1b60>
   1a8a4:	000d8513          	mv	a0,s11
   1a8a8:	07913423          	sd	s9,104(sp)
   1a8ac:	aa8fe0ef          	jal	ra,18b54 <strlen>
   1a8b0:	00050c9b          	sext.w	s9,a0
   1a8b4:	fffcca13          	not	s4,s9
   1a8b8:	0df14783          	lbu	a5,223(sp)
   1a8bc:	43fa5a13          	srai	s4,s4,0x3f
   1a8c0:	014cfa33          	and	s4,s9,s4
   1a8c4:	01613c23          	sd	s6,24(sp)
   1a8c8:	02013023          	sd	zero,32(sp)
   1a8cc:	04013023          	sd	zero,64(sp)
   1a8d0:	02013c23          	sd	zero,56(sp)
   1a8d4:	02013423          	sd	zero,40(sp)
   1a8d8:	000a0a1b          	sext.w	s4,s4
   1a8dc:	00000b93          	li	s7,0
   1a8e0:	06813303          	ld	t1,104(sp)
   1a8e4:	00078463          	beqz	a5,1a8ec <_svfprintf_r+0x1bf8>
   1a8e8:	f0cfe06f          	j	18ff4 <_svfprintf_r+0x300>
   1a8ec:	a79fe06f          	j	19364 <_svfprintf_r+0x670>
   1a8f0:	00178b1b          	addiw	s6,a5,1
   1a8f4:	01040793          	addi	a5,s0,16
   1a8f8:	017c8cb3          	add	s9,s9,s7
   1a8fc:	01843023          	sd	s8,0(s0)
   1a900:	01743423          	sd	s7,8(s0)
   1a904:	13913023          	sd	s9,288(sp)
   1a908:	11612c23          	sw	s6,280(sp)
   1a90c:	00700713          	li	a4,7
   1a910:	cb6740e3          	blt	a4,s6,1a5b0 <_svfprintf_r+0x18bc>
   1a914:	001b0b1b          	addiw	s6,s6,1
   1a918:	01078313          	addi	t1,a5,16
   1a91c:	00078413          	mv	s0,a5
   1a920:	ca9fe06f          	j	195c8 <_svfprintf_r+0x8d4>
   1a924:	2004f793          	andi	a5,s1,512
   1a928:	1a078263          	beqz	a5,1aacc <_svfprintf_r+0x1dd8>
   1a92c:	0ffb7b13          	andi	s6,s6,255
   1a930:	00e13c23          	sd	a4,24(sp)
   1a934:	00048a13          	mv	s4,s1
   1a938:	00100793          	li	a5,1
   1a93c:	e60fe06f          	j	18f9c <_svfprintf_r+0x2a8>
   1a940:	2004f793          	andi	a5,s1,512
   1a944:	16078863          	beqz	a5,1aab4 <_svfprintf_r+0x1dc0>
   1a948:	01813783          	ld	a5,24(sp)
   1a94c:	00048a13          	mv	s4,s1
   1a950:	00e13c23          	sd	a4,24(sp)
   1a954:	00078b03          	lb	s6,0(a5)
   1a958:	000b0793          	mv	a5,s6
   1a95c:	8edfe06f          	j	19248 <_svfprintf_r+0x554>
   1a960:	2004f793          	andi	a5,s1,512
   1a964:	14078063          	beqz	a5,1aaa4 <_svfprintf_r+0x1db0>
   1a968:	0ffb7b13          	andi	s6,s6,255
   1a96c:	00e13c23          	sd	a4,24(sp)
   1a970:	841fe06f          	j	191b0 <_svfprintf_r+0x4bc>
   1a974:	2004f793          	andi	a5,s1,512
   1a978:	12078063          	beqz	a5,1aa98 <_svfprintf_r+0x1da4>
   1a97c:	0ffb7b13          	andi	s6,s6,255
   1a980:	decfe06f          	j	18f6c <_svfprintf_r+0x278>
   1a984:	10813783          	ld	a5,264(sp)
   1a988:	1407ce63          	bltz	a5,1aae4 <_svfprintf_r+0x1df0>
   1a98c:	0df14783          	lbu	a5,223(sp)
   1a990:	04700693          	li	a3,71
   1a994:	00007d97          	auipc	s11,0x7
   1a998:	9fcd8d93          	addi	s11,s11,-1540 # 21390 <zeroes.4539+0x58>
   1a99c:	e286dee3          	bge	a3,s0,1a7d8 <_svfprintf_r+0x1ae4>
   1a9a0:	00007d97          	auipc	s11,0x7
   1a9a4:	9f8d8d93          	addi	s11,s11,-1544 # 21398 <zeroes.4539+0x60>
   1a9a8:	e31ff06f          	j	1a7d8 <_svfprintf_r+0x1ae4>
   1a9ac:	0016861b          	addiw	a2,a3,1
   1a9b0:	008787b3          	add	a5,a5,s0
   1a9b4:	01833023          	sd	s8,0(t1)
   1a9b8:	00833423          	sd	s0,8(t1)
   1a9bc:	12f13023          	sd	a5,288(sp)
   1a9c0:	10c12c23          	sw	a2,280(sp)
   1a9c4:	00700693          	li	a3,7
   1a9c8:	01030313          	addi	t1,t1,16
   1a9cc:	eec6d063          	bge	a3,a2,1a0ac <_svfprintf_r+0x13b8>
   1a9d0:	01013583          	ld	a1,16(sp)
   1a9d4:	11010613          	addi	a2,sp,272
   1a9d8:	000a8513          	mv	a0,s5
   1a9dc:	25c030ef          	jal	ra,1dc38 <__ssprint_r>
   1a9e0:	00050463          	beqz	a0,1a9e8 <_svfprintf_r+0x1cf4>
   1a9e4:	cfcfe06f          	j	18ee0 <_svfprintf_r+0x1ec>
   1a9e8:	12013783          	ld	a5,288(sp)
   1a9ec:	19010313          	addi	t1,sp,400
   1a9f0:	ebcff06f          	j	1a0ac <_svfprintf_r+0x13b8>
   1a9f4:	00007d97          	auipc	s11,0x7
   1a9f8:	994d8d93          	addi	s11,s11,-1644 # 21388 <zeroes.4539+0x50>
   1a9fc:	dddff06f          	j	1a7d8 <_svfprintf_r+0x1ae4>
   1aa00:	01013583          	ld	a1,16(sp)
   1aa04:	11010613          	addi	a2,sp,272
   1aa08:	000a8513          	mv	a0,s5
   1aa0c:	22c030ef          	jal	ra,1dc38 <__ssprint_r>
   1aa10:	00050463          	beqz	a0,1aa18 <_svfprintf_r+0x1d24>
   1aa14:	cccfe06f          	j	18ee0 <_svfprintf_r+0x1ec>
   1aa18:	12013783          	ld	a5,288(sp)
   1aa1c:	19010313          	addi	t1,sp,400
   1aa20:	e74ff06f          	j	1a094 <_svfprintf_r+0x13a0>
   1aa24:	09013783          	ld	a5,144(sp)
   1aa28:	07813583          	ld	a1,120(sp)
   1aa2c:	00000493          	li	s1,0
   1aa30:	40f40433          	sub	s0,s0,a5
   1aa34:	00078613          	mv	a2,a5
   1aa38:	00040513          	mv	a0,s0
   1aa3c:	9e8fe0ef          	jal	ra,18c24 <strncpy>
   1aa40:	00194683          	lbu	a3,1(s2)
   1aa44:	00098513          	mv	a0,s3
   1aa48:	00a00593          	li	a1,10
   1aa4c:	00d03733          	snez	a4,a3
   1aa50:	00e90933          	add	s2,s2,a4
   1aa54:	63c060ef          	jal	ra,21090 <__udivdi3>
   1aa58:	00050993          	mv	s3,a0
   1aa5c:	c95ff06f          	j	1a6f0 <_svfprintf_r+0x19fc>
   1aa60:	00600e13          	li	t3,6
   1aa64:	941ff06f          	j	1a3a4 <_svfprintf_r+0x16b0>
   1aa68:	03013703          	ld	a4,48(sp)
   1aa6c:	40d7063b          	subw	a2,a4,a3
   1aa70:	00ed8733          	add	a4,s11,a4
   1aa74:	4177083b          	subw	a6,a4,s7
   1aa78:	00060413          	mv	s0,a2
   1aa7c:	ecc85863          	bge	a6,a2,1a14c <_svfprintf_r+0x1458>
   1aa80:	0008041b          	sext.w	s0,a6
   1aa84:	ec8ff06f          	j	1a14c <_svfprintf_r+0x1458>
   1aa88:	00813783          	ld	a5,8(sp)
   1aa8c:	00090d93          	mv	s11,s2
   1aa90:	00f71023          	sh	a5,0(a4)
   1aa94:	9f5fe06f          	j	19488 <_svfprintf_r+0x794>
   1aa98:	020b1b13          	slli	s6,s6,0x20
   1aa9c:	020b5b13          	srli	s6,s6,0x20
   1aaa0:	cccfe06f          	j	18f6c <_svfprintf_r+0x278>
   1aaa4:	020b1b13          	slli	s6,s6,0x20
   1aaa8:	020b5b13          	srli	s6,s6,0x20
   1aaac:	00e13c23          	sd	a4,24(sp)
   1aab0:	f00fe06f          	j	191b0 <_svfprintf_r+0x4bc>
   1aab4:	01813783          	ld	a5,24(sp)
   1aab8:	00048a13          	mv	s4,s1
   1aabc:	00e13c23          	sd	a4,24(sp)
   1aac0:	0007ab03          	lw	s6,0(a5)
   1aac4:	000b0793          	mv	a5,s6
   1aac8:	f80fe06f          	j	19248 <_svfprintf_r+0x554>
   1aacc:	020b1b13          	slli	s6,s6,0x20
   1aad0:	020b5b13          	srli	s6,s6,0x20
   1aad4:	00e13c23          	sd	a4,24(sp)
   1aad8:	00048a13          	mv	s4,s1
   1aadc:	00100793          	li	a5,1
   1aae0:	cbcfe06f          	j	18f9c <_svfprintf_r+0x2a8>
   1aae4:	02d00793          	li	a5,45
   1aae8:	0cf10fa3          	sb	a5,223(sp)
   1aaec:	ea5ff06f          	j	1a990 <_svfprintf_r+0x1c9c>
   1aaf0:	01013583          	ld	a1,16(sp)
   1aaf4:	11010613          	addi	a2,sp,272
   1aaf8:	000a8513          	mv	a0,s5
   1aafc:	13c030ef          	jal	ra,1dc38 <__ssprint_r>
   1ab00:	00050463          	beqz	a0,1ab08 <_svfprintf_r+0x1e14>
   1ab04:	bdcfe06f          	j	18ee0 <_svfprintf_r+0x1ec>
   1ab08:	0e812583          	lw	a1,232(sp)
   1ab0c:	12013783          	ld	a5,288(sp)
   1ab10:	11812683          	lw	a3,280(sp)
   1ab14:	19010313          	addi	t1,sp,400
   1ab18:	b405d4e3          	bgez	a1,1a660 <_svfprintf_r+0x196c>
   1ab1c:	d21ff06f          	j	1a83c <_svfprintf_r+0x1b48>
   1ab20:	00600b93          	li	s7,6
   1ab24:	b7dfe06f          	j	196a0 <_svfprintf_r+0x9ac>
   1ab28:	00048a13          	mv	s4,s1
   1ab2c:	fa5fe06f          	j	19ad0 <_svfprintf_r+0xddc>
   1ab30:	04013d83          	ld	s11,64(sp)
   1ab34:	03013703          	ld	a4,48(sp)
   1ab38:	08913023          	sd	s1,128(sp)
   1ab3c:	02813903          	ld	s2,40(sp)
   1ab40:	00ed86b3          	add	a3,s11,a4
   1ab44:	08813983          	ld	s3,136(sp)
   1ab48:	06813483          	ld	s1,104(sp)
   1ab4c:	03813a03          	ld	s4,56(sp)
   1ab50:	d776f663          	bgeu	a3,s7,1a0bc <_svfprintf_r+0x13c8>
   1ab54:	00068b93          	mv	s7,a3
   1ab58:	d64ff06f          	j	1a0bc <_svfprintf_r+0x13c8>
   1ab5c:	02813703          	ld	a4,40(sp)
   1ab60:	ffd00793          	li	a5,-3
   1ab64:	00f74463          	blt	a4,a5,1ab6c <_svfprintf_r+0x1e78>
   1ab68:	00ebda63          	bge	s7,a4,1ab7c <_svfprintf_r+0x1e88>
   1ab6c:	ffe4041b          	addiw	s0,s0,-2
   1ab70:	fdf47793          	andi	a5,s0,-33
   1ab74:	02f13c23          	sd	a5,56(sp)
   1ab78:	bfdfe06f          	j	19774 <_svfprintf_r+0xa80>
   1ab7c:	03013783          	ld	a5,48(sp)
   1ab80:	02813703          	ld	a4,40(sp)
   1ab84:	1ef74c63          	blt	a4,a5,1ad7c <_svfprintf_r+0x2088>
   1ab88:	04013783          	ld	a5,64(sp)
   1ab8c:	00070c93          	mv	s9,a4
   1ab90:	0017f793          	andi	a5,a5,1
   1ab94:	00078663          	beqz	a5,1aba0 <_svfprintf_r+0x1eac>
   1ab98:	05013783          	ld	a5,80(sp)
   1ab9c:	00e78cbb          	addw	s9,a5,a4
   1aba0:	04013783          	ld	a5,64(sp)
   1aba4:	4007f793          	andi	a5,a5,1024
   1aba8:	00078663          	beqz	a5,1abb4 <_svfprintf_r+0x1ec0>
   1abac:	02813783          	ld	a5,40(sp)
   1abb0:	68f04a63          	bgtz	a5,1b244 <_svfprintf_r+0x2550>
   1abb4:	fffcca13          	not	s4,s9
   1abb8:	43fa5a13          	srai	s4,s4,0x3f
   1abbc:	014cfa33          	and	s4,s9,s4
   1abc0:	000a0a1b          	sext.w	s4,s4
   1abc4:	06700413          	li	s0,103
   1abc8:	04013023          	sd	zero,64(sp)
   1abcc:	02013c23          	sd	zero,56(sp)
   1abd0:	ce9fe06f          	j	198b8 <_svfprintf_r+0xbc4>
   1abd4:	0e810793          	addi	a5,sp,232
   1abd8:	00300693          	li	a3,3
   1abdc:	000e8593          	mv	a1,t4
   1abe0:	0f810893          	addi	a7,sp,248
   1abe4:	0ec10813          	addi	a6,sp,236
   1abe8:	000b8713          	mv	a4,s7
   1abec:	000c8613          	mv	a2,s9
   1abf0:	000a8513          	mv	a0,s5
   1abf4:	02613823          	sd	t1,48(sp)
   1abf8:	03d13423          	sd	t4,40(sp)
   1abfc:	8a5fa0ef          	jal	ra,154a0 <_ldtoa_r>
   1ac00:	00054683          	lbu	a3,0(a0)
   1ac04:	03000793          	li	a5,48
   1ac08:	00050d93          	mv	s11,a0
   1ac0c:	02813e83          	ld	t4,40(sp)
   1ac10:	03013303          	ld	t1,48(sp)
   1ac14:	0af68063          	beq	a3,a5,1acb4 <_svfprintf_r+0x1fc0>
   1ac18:	0e812783          	lw	a5,232(sp)
   1ac1c:	017787b3          	add	a5,a5,s7
   1ac20:	00fd8a33          	add	s4,s11,a5
   1ac24:	00000613          	li	a2,0
   1ac28:	00000693          	li	a3,0
   1ac2c:	000e8513          	mv	a0,t4
   1ac30:	000c8593          	mv	a1,s9
   1ac34:	02613423          	sd	t1,40(sp)
   1ac38:	70d040ef          	jal	ra,1fb44 <__eqtf2>
   1ac3c:	000a0793          	mv	a5,s4
   1ac40:	02813303          	ld	t1,40(sp)
   1ac44:	00051463          	bnez	a0,1ac4c <_svfprintf_r+0x1f58>
   1ac48:	afdfe06f          	j	19744 <_svfprintf_r+0xa50>
   1ac4c:	0f813783          	ld	a5,248(sp)
   1ac50:	03000613          	li	a2,48
   1ac54:	0147e463          	bltu	a5,s4,1ac5c <_svfprintf_r+0x1f68>
   1ac58:	aedfe06f          	j	19744 <_svfprintf_r+0xa50>
   1ac5c:	00178713          	addi	a4,a5,1
   1ac60:	0ee13c23          	sd	a4,248(sp)
   1ac64:	00c78023          	sb	a2,0(a5)
   1ac68:	0f813783          	ld	a5,248(sp)
   1ac6c:	ff47e8e3          	bltu	a5,s4,1ac5c <_svfprintf_r+0x1f68>
   1ac70:	ad5fe06f          	j	19744 <_svfprintf_r+0xa50>
   1ac74:	0df14783          	lbu	a5,223(sp)
   1ac78:	00000b93          	li	s7,0
   1ac7c:	00078463          	beqz	a5,1ac84 <_svfprintf_r+0x1f90>
   1ac80:	b74fe06f          	j	18ff4 <_svfprintf_r+0x300>
   1ac84:	ee0fe06f          	j	19364 <_svfprintf_r+0x670>
   1ac88:	11010613          	addi	a2,sp,272
   1ac8c:	000a0593          	mv	a1,s4
   1ac90:	000a8513          	mv	a0,s5
   1ac94:	7a5020ef          	jal	ra,1dc38 <__ssprint_r>
   1ac98:	00050463          	beqz	a0,1aca0 <_svfprintf_r+0x1fac>
   1ac9c:	a44fe06f          	j	18ee0 <_svfprintf_r+0x1ec>
   1aca0:	0004c603          	lbu	a2,0(s1)
   1aca4:	12013783          	ld	a5,288(sp)
   1aca8:	19010313          	addi	t1,sp,400
   1acac:	00cb8bb3          	add	s7,s7,a2
   1acb0:	841ff06f          	j	1a4f0 <_svfprintf_r+0x17fc>
   1acb4:	000e8513          	mv	a0,t4
   1acb8:	00000613          	li	a2,0
   1acbc:	00000693          	li	a3,0
   1acc0:	000c8593          	mv	a1,s9
   1acc4:	02613823          	sd	t1,48(sp)
   1acc8:	03d13423          	sd	t4,40(sp)
   1accc:	679040ef          	jal	ra,1fb44 <__eqtf2>
   1acd0:	02813e83          	ld	t4,40(sp)
   1acd4:	03013303          	ld	t1,48(sp)
   1acd8:	f40500e3          	beqz	a0,1ac18 <_svfprintf_r+0x1f24>
   1acdc:	00100693          	li	a3,1
   1ace0:	417687bb          	subw	a5,a3,s7
   1ace4:	0ef12423          	sw	a5,232(sp)
   1ace8:	f35ff06f          	j	1ac1c <_svfprintf_r+0x1f28>
   1acec:	02d00793          	li	a5,45
   1acf0:	0cf10fa3          	sb	a5,223(sp)
   1acf4:	ad5ff06f          	j	1a7c8 <_svfprintf_r+0x1ad4>
   1acf8:	01013583          	ld	a1,16(sp)
   1acfc:	11010613          	addi	a2,sp,272
   1ad00:	000a8513          	mv	a0,s5
   1ad04:	735020ef          	jal	ra,1dc38 <__ssprint_r>
   1ad08:	00050463          	beqz	a0,1ad10 <_svfprintf_r+0x201c>
   1ad0c:	9d4fe06f          	j	18ee0 <_svfprintf_r+0x1ec>
   1ad10:	0e812683          	lw	a3,232(sp)
   1ad14:	12013783          	ld	a5,288(sp)
   1ad18:	19010313          	addi	t1,sp,400
   1ad1c:	be4ff06f          	j	1a100 <_svfprintf_r+0x140c>
   1ad20:	0df14783          	lbu	a5,223(sp)
   1ad24:	01613c23          	sd	s6,24(sp)
   1ad28:	04013023          	sd	zero,64(sp)
   1ad2c:	02013c23          	sd	zero,56(sp)
   1ad30:	02013423          	sd	zero,40(sp)
   1ad34:	000b8a13          	mv	s4,s7
   1ad38:	000b8c93          	mv	s9,s7
   1ad3c:	00000b93          	li	s7,0
   1ad40:	00078463          	beqz	a5,1ad48 <_svfprintf_r+0x2054>
   1ad44:	ab0fe06f          	j	18ff4 <_svfprintf_r+0x300>
   1ad48:	e1cfe06f          	j	19364 <_svfprintf_r+0x670>
   1ad4c:	01013583          	ld	a1,16(sp)
   1ad50:	11010613          	addi	a2,sp,272
   1ad54:	000a8513          	mv	a0,s5
   1ad58:	6e1020ef          	jal	ra,1dc38 <__ssprint_r>
   1ad5c:	00050463          	beqz	a0,1ad64 <_svfprintf_r+0x2070>
   1ad60:	980fe06f          	j	18ee0 <_svfprintf_r+0x1ec>
   1ad64:	0e812603          	lw	a2,232(sp)
   1ad68:	03013703          	ld	a4,48(sp)
   1ad6c:	12013783          	ld	a5,288(sp)
   1ad70:	19010313          	addi	t1,sp,400
   1ad74:	40c7063b          	subw	a2,a4,a2
   1ad78:	bd4ff06f          	j	1a14c <_svfprintf_r+0x1458>
   1ad7c:	03013703          	ld	a4,48(sp)
   1ad80:	05013783          	ld	a5,80(sp)
   1ad84:	06700413          	li	s0,103
   1ad88:	00e78cbb          	addw	s9,a5,a4
   1ad8c:	02813703          	ld	a4,40(sp)
   1ad90:	58e05a63          	blez	a4,1b324 <_svfprintf_r+0x2630>
   1ad94:	04013783          	ld	a5,64(sp)
   1ad98:	4007f793          	andi	a5,a5,1024
   1ad9c:	4a079663          	bnez	a5,1b248 <_svfprintf_r+0x2554>
   1ada0:	fffcca13          	not	s4,s9
   1ada4:	43fa5a13          	srai	s4,s4,0x3f
   1ada8:	014cfa33          	and	s4,s9,s4
   1adac:	000a0a1b          	sext.w	s4,s4
   1adb0:	e19ff06f          	j	1abc8 <_svfprintf_r+0x1ed4>
   1adb4:	04013783          	ld	a5,64(sp)
   1adb8:	02813703          	ld	a4,40(sp)
   1adbc:	0017f793          	andi	a5,a5,1
   1adc0:	00fbe7b3          	or	a5,s7,a5
   1adc4:	0007879b          	sext.w	a5,a5
   1adc8:	58e05863          	blez	a4,1b358 <_svfprintf_r+0x2664>
   1adcc:	54079263          	bnez	a5,1b310 <_svfprintf_r+0x261c>
   1add0:	02813c83          	ld	s9,40(sp)
   1add4:	06600413          	li	s0,102
   1add8:	fbdff06f          	j	1ad94 <_svfprintf_r+0x20a0>
   1addc:	03000793          	li	a5,48
   1ade0:	0ef10023          	sb	a5,224(sp)
   1ade4:	05800713          	li	a4,88
   1ade8:	0024e793          	ori	a5,s1,2
   1adec:	0007879b          	sext.w	a5,a5
   1adf0:	0ee100a3          	sb	a4,225(sp)
   1adf4:	06300693          	li	a3,99
   1adf8:	04f13023          	sd	a5,64(sp)
   1adfc:	02013023          	sd	zero,32(sp)
   1ae00:	12810d93          	addi	s11,sp,296
   1ae04:	2b76cc63          	blt	a3,s7,1b0bc <_svfprintf_r+0x23c8>
   1ae08:	10813c83          	ld	s9,264(sp)
   1ae0c:	fdf47793          	andi	a5,s0,-33
   1ae10:	1024e493          	ori	s1,s1,258
   1ae14:	02f13c23          	sd	a5,56(sp)
   1ae18:	06013423          	sd	zero,104(sp)
   1ae1c:	0004849b          	sext.w	s1,s1
   1ae20:	10013e83          	ld	t4,256(sp)
   1ae24:	220cc263          	bltz	s9,1b048 <_svfprintf_r+0x2354>
   1ae28:	06100793          	li	a5,97
   1ae2c:	3af40663          	beq	s0,a5,1b1d8 <_svfprintf_r+0x24e4>
   1ae30:	04100793          	li	a5,65
   1ae34:	00f40463          	beq	s0,a5,1ae3c <_svfprintf_r+0x2148>
   1ae38:	891fe06f          	j	196c8 <_svfprintf_r+0x9d4>
   1ae3c:	000e8513          	mv	a0,t4
   1ae40:	000c8593          	mv	a1,s9
   1ae44:	08613423          	sd	t1,136(sp)
   1ae48:	024060ef          	jal	ra,20e6c <__trunctfdf2>
   1ae4c:	0e810593          	addi	a1,sp,232
   1ae50:	fecfd0ef          	jal	ra,1863c <frexp>
   1ae54:	725050ef          	jal	ra,20d78 <__extenddftf2>
   1ae58:	00006797          	auipc	a5,0x6
   1ae5c:	51878793          	addi	a5,a5,1304 # 21370 <zeroes.4539+0x38>
   1ae60:	0087b683          	ld	a3,8(a5)
   1ae64:	00000613          	li	a2,0
   1ae68:	729040ef          	jal	ra,1fd90 <__multf3>
   1ae6c:	00000613          	li	a2,0
   1ae70:	00000693          	li	a3,0
   1ae74:	02a13823          	sd	a0,48(sp)
   1ae78:	02b13423          	sd	a1,40(sp)
   1ae7c:	4c9040ef          	jal	ra,1fb44 <__eqtf2>
   1ae80:	02813f03          	ld	t5,40(sp)
   1ae84:	03013e83          	ld	t4,48(sp)
   1ae88:	08813303          	ld	t1,136(sp)
   1ae8c:	00051663          	bnez	a0,1ae98 <_svfprintf_r+0x21a4>
   1ae90:	00100793          	li	a5,1
   1ae94:	0ef12423          	sw	a5,232(sp)
   1ae98:	00006797          	auipc	a5,0x6
   1ae9c:	52078793          	addi	a5,a5,1312 # 213b8 <zeroes.4539+0x80>
   1aea0:	02f13423          	sd	a5,40(sp)
   1aea4:	000b879b          	sext.w	a5,s7
   1aea8:	02079c93          	slli	s9,a5,0x20
   1aeac:	00fd873b          	addw	a4,s11,a5
   1aeb0:	00006797          	auipc	a5,0x6
   1aeb4:	4a078793          	addi	a5,a5,1184 # 21350 <zeroes.4539+0x18>
   1aeb8:	0087b783          	ld	a5,8(a5)
   1aebc:	020cdc93          	srli	s9,s9,0x20
   1aec0:	001c8c93          	addi	s9,s9,1
   1aec4:	0a913023          	sd	s1,160(sp)
   1aec8:	0b313423          	sd	s3,168(sp)
   1aecc:	0d513023          	sd	s5,192(sp)
   1aed0:	019d8cb3          	add	s9,s11,s9
   1aed4:	000d8b13          	mv	s6,s11
   1aed8:	02f13823          	sd	a5,48(sp)
   1aedc:	09213423          	sd	s2,136(sp)
   1aee0:	08813c23          	sd	s0,152(sp)
   1aee4:	0b713823          	sd	s7,176(sp)
   1aee8:	0a613c23          	sd	t1,184(sp)
   1aeec:	0db13423          	sd	s11,200(sp)
   1aef0:	000e8993          	mv	s3,t4
   1aef4:	000f0a93          	mv	s5,t5
   1aef8:	00070493          	mv	s1,a4
   1aefc:	0180006f          	j	1af14 <_svfprintf_r+0x2220>
   1af00:	00000613          	li	a2,0
   1af04:	00000693          	li	a3,0
   1af08:	43d040ef          	jal	ra,1fb44 <__eqtf2>
   1af0c:	28050463          	beqz	a0,1b194 <_svfprintf_r+0x24a0>
   1af10:	000b8b13          	mv	s6,s7
   1af14:	03013683          	ld	a3,48(sp)
   1af18:	00000613          	li	a2,0
   1af1c:	00098513          	mv	a0,s3
   1af20:	000a8593          	mv	a1,s5
   1af24:	66d040ef          	jal	ra,1fd90 <__multf3>
   1af28:	00058913          	mv	s2,a1
   1af2c:	00050413          	mv	s0,a0
   1af30:	551050ef          	jal	ra,20c80 <__fixtfsi>
   1af34:	00050a1b          	sext.w	s4,a0
   1af38:	000a0513          	mv	a0,s4
   1af3c:	5ad050ef          	jal	ra,20ce8 <__floatsitf>
   1af40:	00050613          	mv	a2,a0
   1af44:	00058693          	mv	a3,a1
   1af48:	00040513          	mv	a0,s0
   1af4c:	00090593          	mv	a1,s2
   1af50:	560050ef          	jal	ra,204b0 <__subtf3>
   1af54:	02813783          	ld	a5,40(sp)
   1af58:	001b0b93          	addi	s7,s6,1
   1af5c:	00050d93          	mv	s11,a0
   1af60:	014787b3          	add	a5,a5,s4
   1af64:	0007c703          	lbu	a4,0(a5)
   1af68:	00058413          	mv	s0,a1
   1af6c:	00050993          	mv	s3,a0
   1af70:	feeb8fa3          	sb	a4,-1(s7)
   1af74:	00058a93          	mv	s5,a1
   1af78:	4174893b          	subw	s2,s1,s7
   1af7c:	f97c92e3          	bne	s9,s7,1af00 <_svfprintf_r+0x220c>
   1af80:	08813903          	ld	s2,136(sp)
   1af84:	0a013483          	ld	s1,160(sp)
   1af88:	0a813983          	ld	s3,168(sp)
   1af8c:	0b013b83          	ld	s7,176(sp)
   1af90:	0b813303          	ld	t1,184(sp)
   1af94:	0c013a83          	ld	s5,192(sp)
   1af98:	0c813d83          	ld	s11,200(sp)
   1af9c:	09813403          	ld	s0,152(sp)
   1afa0:	fff00793          	li	a5,-1
   1afa4:	00050893          	mv	a7,a0
   1afa8:	00058813          	mv	a6,a1
   1afac:	02f13823          	sd	a5,48(sp)
   1afb0:	00006797          	auipc	a5,0x6
   1afb4:	3b078793          	addi	a5,a5,944 # 21360 <zeroes.4539+0x28>
   1afb8:	0087b783          	ld	a5,8(a5)
   1afbc:	00000613          	li	a2,0
   1afc0:	00088513          	mv	a0,a7
   1afc4:	00078693          	mv	a3,a5
   1afc8:	00080593          	mv	a1,a6
   1afcc:	08613c23          	sd	t1,152(sp)
   1afd0:	08f13423          	sd	a5,136(sp)
   1afd4:	0b113423          	sd	a7,168(sp)
   1afd8:	0b013023          	sd	a6,160(sp)
   1afdc:	3f5040ef          	jal	ra,1fbd0 <__getf2>
   1afe0:	09813303          	ld	t1,152(sp)
   1afe4:	06a04e63          	bgtz	a0,1b060 <_svfprintf_r+0x236c>
   1afe8:	0a813883          	ld	a7,168(sp)
   1afec:	0a013803          	ld	a6,160(sp)
   1aff0:	08813683          	ld	a3,136(sp)
   1aff4:	00000613          	li	a2,0
   1aff8:	00088513          	mv	a0,a7
   1affc:	00080593          	mv	a1,a6
   1b000:	345040ef          	jal	ra,1fb44 <__eqtf2>
   1b004:	09813303          	ld	t1,152(sp)
   1b008:	00051663          	bnez	a0,1b014 <_svfprintf_r+0x2320>
   1b00c:	001a7a13          	andi	s4,s4,1
   1b010:	040a1863          	bnez	s4,1b060 <_svfprintf_r+0x236c>
   1b014:	03013703          	ld	a4,48(sp)
   1b018:	03000693          	li	a3,48
   1b01c:	00170793          	addi	a5,a4,1
   1b020:	00fc87b3          	add	a5,s9,a5
   1b024:	00074863          	bltz	a4,1b034 <_svfprintf_r+0x2340>
   1b028:	001c8c93          	addi	s9,s9,1
   1b02c:	fedc8fa3          	sb	a3,-1(s9)
   1b030:	ff979ce3          	bne	a5,s9,1b028 <_svfprintf_r+0x2334>
   1b034:	41bc87bb          	subw	a5,s9,s11
   1b038:	02f13823          	sd	a5,48(sp)
   1b03c:	f10fe06f          	j	1974c <_svfprintf_r+0xa58>
   1b040:	02013023          	sd	zero,32(sp)
   1b044:	00078493          	mv	s1,a5
   1b048:	fff00793          	li	a5,-1
   1b04c:	03f79793          	slli	a5,a5,0x3f
   1b050:	00fcccb3          	xor	s9,s9,a5
   1b054:	02d00793          	li	a5,45
   1b058:	06f13423          	sd	a5,104(sp)
   1b05c:	dcdff06f          	j	1ae28 <_svfprintf_r+0x2134>
   1b060:	02813783          	ld	a5,40(sp)
   1b064:	0f613c23          	sd	s6,248(sp)
   1b068:	fffcc683          	lbu	a3,-1(s9)
   1b06c:	00f7c603          	lbu	a2,15(a5)
   1b070:	000c8793          	mv	a5,s9
   1b074:	02d61063          	bne	a2,a3,1b094 <_svfprintf_r+0x23a0>
   1b078:	03000593          	li	a1,48
   1b07c:	feb78fa3          	sb	a1,-1(a5)
   1b080:	0f813783          	ld	a5,248(sp)
   1b084:	fff78713          	addi	a4,a5,-1
   1b088:	0ee13c23          	sd	a4,248(sp)
   1b08c:	fff7c683          	lbu	a3,-1(a5)
   1b090:	fed606e3          	beq	a2,a3,1b07c <_svfprintf_r+0x2388>
   1b094:	0016861b          	addiw	a2,a3,1
   1b098:	03900593          	li	a1,57
   1b09c:	0ff67613          	andi	a2,a2,255
   1b0a0:	00b68663          	beq	a3,a1,1b0ac <_svfprintf_r+0x23b8>
   1b0a4:	fec78fa3          	sb	a2,-1(a5)
   1b0a8:	f8dff06f          	j	1b034 <_svfprintf_r+0x2340>
   1b0ac:	02813703          	ld	a4,40(sp)
   1b0b0:	00a74603          	lbu	a2,10(a4)
   1b0b4:	fec78fa3          	sb	a2,-1(a5)
   1b0b8:	f7dff06f          	j	1b034 <_svfprintf_r+0x2340>
   1b0bc:	001b859b          	addiw	a1,s7,1
   1b0c0:	000a8513          	mv	a0,s5
   1b0c4:	02613023          	sd	t1,32(sp)
   1b0c8:	9edfb0ef          	jal	ra,16ab4 <_malloc_r>
   1b0cc:	00050d93          	mv	s11,a0
   1b0d0:	02013303          	ld	t1,32(sp)
   1b0d4:	30050e63          	beqz	a0,1b3f0 <_svfprintf_r+0x26fc>
   1b0d8:	02a13023          	sd	a0,32(sp)
   1b0dc:	d2dff06f          	j	1ae08 <_svfprintf_r+0x2114>
   1b0e0:	03000793          	li	a5,48
   1b0e4:	0ef10023          	sb	a5,224(sp)
   1b0e8:	07800713          	li	a4,120
   1b0ec:	cfdff06f          	j	1ade8 <_svfprintf_r+0x20f4>
   1b0f0:	001b8a1b          	addiw	s4,s7,1
   1b0f4:	000a0713          	mv	a4,s4
   1b0f8:	000e8593          	mv	a1,t4
   1b0fc:	0f810893          	addi	a7,sp,248
   1b100:	0ec10813          	addi	a6,sp,236
   1b104:	0e810793          	addi	a5,sp,232
   1b108:	00200693          	li	a3,2
   1b10c:	000c8613          	mv	a2,s9
   1b110:	000a8513          	mv	a0,s5
   1b114:	03d13423          	sd	t4,40(sp)
   1b118:	b88fa0ef          	jal	ra,154a0 <_ldtoa_r>
   1b11c:	00050d93          	mv	s11,a0
   1b120:	02813e83          	ld	t4,40(sp)
   1b124:	03013303          	ld	t1,48(sp)
   1b128:	014d8a33          	add	s4,s11,s4
   1b12c:	af9ff06f          	j	1ac24 <_svfprintf_r+0x1f30>
   1b130:	0016869b          	addiw	a3,a3,1
   1b134:	008787b3          	add	a5,a5,s0
   1b138:	01833023          	sd	s8,0(t1)
   1b13c:	00833423          	sd	s0,8(t1)
   1b140:	12f13023          	sd	a5,288(sp)
   1b144:	10d12c23          	sw	a3,280(sp)
   1b148:	00700613          	li	a2,7
   1b14c:	d0d65863          	bge	a2,a3,1a65c <_svfprintf_r+0x1968>
   1b150:	01013583          	ld	a1,16(sp)
   1b154:	11010613          	addi	a2,sp,272
   1b158:	000a8513          	mv	a0,s5
   1b15c:	2dd020ef          	jal	ra,1dc38 <__ssprint_r>
   1b160:	00050463          	beqz	a0,1b168 <_svfprintf_r+0x2474>
   1b164:	d7dfd06f          	j	18ee0 <_svfprintf_r+0x1ec>
   1b168:	12013783          	ld	a5,288(sp)
   1b16c:	11812683          	lw	a3,280(sp)
   1b170:	19010313          	addi	t1,sp,400
   1b174:	cecff06f          	j	1a660 <_svfprintf_r+0x196c>
   1b178:	00f72023          	sw	a5,0(a4)
   1b17c:	00090d93          	mv	s11,s2
   1b180:	b08fe06f          	j	19488 <_svfprintf_r+0x794>
   1b184:	000b8463          	beqz	s7,1b18c <_svfprintf_r+0x2498>
   1b188:	d18fe06f          	j	196a0 <_svfprintf_r+0x9ac>
   1b18c:	00100b93          	li	s7,1
   1b190:	d10fe06f          	j	196a0 <_svfprintf_r+0x9ac>
   1b194:	000b8793          	mv	a5,s7
   1b198:	03213823          	sd	s2,48(sp)
   1b19c:	000d8893          	mv	a7,s11
   1b1a0:	00040813          	mv	a6,s0
   1b1a4:	0a013483          	ld	s1,160(sp)
   1b1a8:	0a813983          	ld	s3,168(sp)
   1b1ac:	0b813303          	ld	t1,184(sp)
   1b1b0:	08813903          	ld	s2,136(sp)
   1b1b4:	0b013b83          	ld	s7,176(sp)
   1b1b8:	0c013a83          	ld	s5,192(sp)
   1b1bc:	0c813d83          	ld	s11,200(sp)
   1b1c0:	09813403          	ld	s0,152(sp)
   1b1c4:	00078c93          	mv	s9,a5
   1b1c8:	de9ff06f          	j	1afb0 <_svfprintf_r+0x22bc>
   1b1cc:	fff00793          	li	a5,-1
   1b1d0:	00f13423          	sd	a5,8(sp)
   1b1d4:	d35fd06f          	j	18f08 <_svfprintf_r+0x214>
   1b1d8:	000e8513          	mv	a0,t4
   1b1dc:	000c8593          	mv	a1,s9
   1b1e0:	08613423          	sd	t1,136(sp)
   1b1e4:	489050ef          	jal	ra,20e6c <__trunctfdf2>
   1b1e8:	0e810593          	addi	a1,sp,232
   1b1ec:	c50fd0ef          	jal	ra,1863c <frexp>
   1b1f0:	389050ef          	jal	ra,20d78 <__extenddftf2>
   1b1f4:	00006797          	auipc	a5,0x6
   1b1f8:	17c78793          	addi	a5,a5,380 # 21370 <zeroes.4539+0x38>
   1b1fc:	0087b683          	ld	a3,8(a5)
   1b200:	00000613          	li	a2,0
   1b204:	38d040ef          	jal	ra,1fd90 <__multf3>
   1b208:	00000613          	li	a2,0
   1b20c:	00000693          	li	a3,0
   1b210:	02a13823          	sd	a0,48(sp)
   1b214:	02b13423          	sd	a1,40(sp)
   1b218:	12d040ef          	jal	ra,1fb44 <__eqtf2>
   1b21c:	02813f03          	ld	t5,40(sp)
   1b220:	03013e83          	ld	t4,48(sp)
   1b224:	08813303          	ld	t1,136(sp)
   1b228:	00051663          	bnez	a0,1b234 <_svfprintf_r+0x2540>
   1b22c:	00100793          	li	a5,1
   1b230:	0ef12423          	sw	a5,232(sp)
   1b234:	00006797          	auipc	a5,0x6
   1b238:	16c78793          	addi	a5,a5,364 # 213a0 <zeroes.4539+0x68>
   1b23c:	02f13423          	sd	a5,40(sp)
   1b240:	c65ff06f          	j	1aea4 <_svfprintf_r+0x21b0>
   1b244:	06700413          	li	s0,103
   1b248:	08013503          	ld	a0,128(sp)
   1b24c:	02813703          	ld	a4,40(sp)
   1b250:	04013023          	sd	zero,64(sp)
   1b254:	00054783          	lbu	a5,0(a0)
   1b258:	02013c23          	sd	zero,56(sp)
   1b25c:	0ff00593          	li	a1,255
   1b260:	04b78063          	beq	a5,a1,1b2a0 <_svfprintf_r+0x25ac>
   1b264:	0007869b          	sext.w	a3,a5
   1b268:	02e6dc63          	bge	a3,a4,1b2a0 <_svfprintf_r+0x25ac>
   1b26c:	00154603          	lbu	a2,1(a0)
   1b270:	40d7073b          	subw	a4,a4,a3
   1b274:	00060e63          	beqz	a2,1b290 <_svfprintf_r+0x259c>
   1b278:	03813783          	ld	a5,56(sp)
   1b27c:	00150513          	addi	a0,a0,1
   1b280:	0017879b          	addiw	a5,a5,1
   1b284:	02f13c23          	sd	a5,56(sp)
   1b288:	00060793          	mv	a5,a2
   1b28c:	fd5ff06f          	j	1b260 <_svfprintf_r+0x256c>
   1b290:	04013683          	ld	a3,64(sp)
   1b294:	0016869b          	addiw	a3,a3,1
   1b298:	04d13023          	sd	a3,64(sp)
   1b29c:	fc5ff06f          	j	1b260 <_svfprintf_r+0x256c>
   1b2a0:	02e13423          	sd	a4,40(sp)
   1b2a4:	03813783          	ld	a5,56(sp)
   1b2a8:	04013703          	ld	a4,64(sp)
   1b2ac:	09013583          	ld	a1,144(sp)
   1b2b0:	08a13023          	sd	a0,128(sp)
   1b2b4:	00e7853b          	addw	a0,a5,a4
   1b2b8:	08613423          	sd	t1,136(sp)
   1b2bc:	569050ef          	jal	ra,21024 <__muldi3>
   1b2c0:	0195053b          	addw	a0,a0,s9
   1b2c4:	00050c9b          	sext.w	s9,a0
   1b2c8:	fffcca13          	not	s4,s9
   1b2cc:	43fa5a13          	srai	s4,s4,0x3f
   1b2d0:	01457533          	and	a0,a0,s4
   1b2d4:	00050a1b          	sext.w	s4,a0
   1b2d8:	08813303          	ld	t1,136(sp)
   1b2dc:	ddcfe06f          	j	198b8 <_svfprintf_r+0xbc4>
   1b2e0:	0f210793          	addi	a5,sp,242
   1b2e4:	00069863          	bnez	a3,1b2f4 <_svfprintf_r+0x2600>
   1b2e8:	03000793          	li	a5,48
   1b2ec:	0ef10923          	sb	a5,242(sp)
   1b2f0:	0f310793          	addi	a5,sp,243
   1b2f4:	21010713          	addi	a4,sp,528
   1b2f8:	030a0a1b          	addiw	s4,s4,48
   1b2fc:	40e786b3          	sub	a3,a5,a4
   1b300:	01478023          	sb	s4,0(a5)
   1b304:	1216879b          	addiw	a5,a3,289
   1b308:	06f13823          	sd	a5,112(sp)
   1b30c:	d5cfe06f          	j	19868 <_svfprintf_r+0xb74>
   1b310:	05013783          	ld	a5,80(sp)
   1b314:	06600413          	li	s0,102
   1b318:	00e78cbb          	addw	s9,a5,a4
   1b31c:	017c8cbb          	addw	s9,s9,s7
   1b320:	a75ff06f          	j	1ad94 <_svfprintf_r+0x20a0>
   1b324:	40ec87bb          	subw	a5,s9,a4
   1b328:	0017879b          	addiw	a5,a5,1
   1b32c:	00078c9b          	sext.w	s9,a5
   1b330:	fffcca13          	not	s4,s9
   1b334:	43fa5a13          	srai	s4,s4,0x3f
   1b338:	0147f7b3          	and	a5,a5,s4
   1b33c:	00078a1b          	sext.w	s4,a5
   1b340:	889ff06f          	j	1abc8 <_svfprintf_r+0x1ed4>
   1b344:	04013703          	ld	a4,64(sp)
   1b348:	00177693          	andi	a3,a4,1
   1b34c:	00069463          	bnez	a3,1b354 <_svfprintf_r+0x2660>
   1b350:	d3cfe06f          	j	1988c <_svfprintf_r+0xb98>
   1b354:	d30fe06f          	j	19884 <_svfprintf_r+0xb90>
   1b358:	00079a63          	bnez	a5,1b36c <_svfprintf_r+0x2678>
   1b35c:	00100a13          	li	s4,1
   1b360:	06600413          	li	s0,102
   1b364:	00100c93          	li	s9,1
   1b368:	861ff06f          	j	1abc8 <_svfprintf_r+0x1ed4>
   1b36c:	05013783          	ld	a5,80(sp)
   1b370:	06600413          	li	s0,102
   1b374:	0017879b          	addiw	a5,a5,1
   1b378:	01778e3b          	addw	t3,a5,s7
   1b37c:	000e0c9b          	sext.w	s9,t3
   1b380:	fffcca13          	not	s4,s9
   1b384:	43fa5a13          	srai	s4,s4,0x3f
   1b388:	014e7e33          	and	t3,t3,s4
   1b38c:	000e0a1b          	sext.w	s4,t3
   1b390:	839ff06f          	j	1abc8 <_svfprintf_r+0x1ed4>
   1b394:	00030793          	mv	a5,t1
   1b398:	d60ff06f          	j	1a8f8 <_svfprintf_r+0x1c04>
   1b39c:	01813703          	ld	a4,24(sp)
   1b3a0:	00072b83          	lw	s7,0(a4)
   1b3a4:	00870713          	addi	a4,a4,8
   1b3a8:	000bd463          	bgez	s7,1b3b0 <_svfprintf_r+0x26bc>
   1b3ac:	fff00b93          	li	s7,-1
   1b3b0:	00194403          	lbu	s0,1(s2)
   1b3b4:	00e13c23          	sd	a4,24(sp)
   1b3b8:	00078913          	mv	s2,a5
   1b3bc:	aa1fd06f          	j	18e5c <_svfprintf_r+0x168>
   1b3c0:	000b8a13          	mv	s4,s7
   1b3c4:	014d8a33          	add	s4,s11,s4
   1b3c8:	85dff06f          	j	1ac24 <_svfprintf_r+0x1f30>
   1b3cc:	00200793          	li	a5,2
   1b3d0:	06f13823          	sd	a5,112(sp)
   1b3d4:	c94fe06f          	j	19868 <_svfprintf_r+0xb74>
   1b3d8:	04813703          	ld	a4,72(sp)
   1b3dc:	00c00793          	li	a5,12
   1b3e0:	00f72023          	sw	a5,0(a4)
   1b3e4:	fff00793          	li	a5,-1
   1b3e8:	00f13423          	sd	a5,8(sp)
   1b3ec:	b1dfd06f          	j	18f08 <_svfprintf_r+0x214>
   1b3f0:	01013683          	ld	a3,16(sp)
   1b3f4:	0106d783          	lhu	a5,16(a3)
   1b3f8:	0407e713          	ori	a4,a5,64
   1b3fc:	00070793          	mv	a5,a4
   1b400:	00e69823          	sh	a4,16(a3)
   1b404:	af9fd06f          	j	18efc <_svfprintf_r+0x208>

000000000001b408 <__sprint_r.part.0>:
   1b408:	0ac5a783          	lw	a5,172(a1)
   1b40c:	fb010113          	addi	sp,sp,-80
   1b410:	01513c23          	sd	s5,24(sp)
   1b414:	04113423          	sd	ra,72(sp)
   1b418:	04813023          	sd	s0,64(sp)
   1b41c:	02913c23          	sd	s1,56(sp)
   1b420:	03213823          	sd	s2,48(sp)
   1b424:	03313423          	sd	s3,40(sp)
   1b428:	03413023          	sd	s4,32(sp)
   1b42c:	01613823          	sd	s6,16(sp)
   1b430:	01713423          	sd	s7,8(sp)
   1b434:	03279713          	slli	a4,a5,0x32
   1b438:	00060a93          	mv	s5,a2
   1b43c:	0c075063          	bgez	a4,1b4fc <__sprint_r.part.0+0xf4>
   1b440:	01063703          	ld	a4,16(a2)
   1b444:	00058913          	mv	s2,a1
   1b448:	00050993          	mv	s3,a0
   1b44c:	00063b03          	ld	s6,0(a2)
   1b450:	fff00a13          	li	s4,-1
   1b454:	0a070063          	beqz	a4,1b4f4 <__sprint_r.part.0+0xec>
   1b458:	008b3783          	ld	a5,8(s6)
   1b45c:	000b3403          	ld	s0,0(s6)
   1b460:	0027d793          	srli	a5,a5,0x2
   1b464:	00078b9b          	sext.w	s7,a5
   1b468:	07705c63          	blez	s7,1b4e0 <__sprint_r.part.0+0xd8>
   1b46c:	fff7849b          	addiw	s1,a5,-1
   1b470:	02049493          	slli	s1,s1,0x20
   1b474:	01e4d493          	srli	s1,s1,0x1e
   1b478:	00440793          	addi	a5,s0,4
   1b47c:	00f484b3          	add	s1,s1,a5
   1b480:	0080006f          	j	1b488 <__sprint_r.part.0+0x80>
   1b484:	04848c63          	beq	s1,s0,1b4dc <__sprint_r.part.0+0xd4>
   1b488:	00042583          	lw	a1,0(s0)
   1b48c:	00090613          	mv	a2,s2
   1b490:	00098513          	mv	a0,s3
   1b494:	78c010ef          	jal	ra,1cc20 <_fputwc_r>
   1b498:	0005051b          	sext.w	a0,a0
   1b49c:	00440413          	addi	s0,s0,4
   1b4a0:	ff4512e3          	bne	a0,s4,1b484 <__sprint_r.part.0+0x7c>
   1b4a4:	fff00513          	li	a0,-1
   1b4a8:	04813083          	ld	ra,72(sp)
   1b4ac:	04013403          	ld	s0,64(sp)
   1b4b0:	000ab823          	sd	zero,16(s5)
   1b4b4:	000aa423          	sw	zero,8(s5)
   1b4b8:	03813483          	ld	s1,56(sp)
   1b4bc:	03013903          	ld	s2,48(sp)
   1b4c0:	02813983          	ld	s3,40(sp)
   1b4c4:	02013a03          	ld	s4,32(sp)
   1b4c8:	01813a83          	ld	s5,24(sp)
   1b4cc:	01013b03          	ld	s6,16(sp)
   1b4d0:	00813b83          	ld	s7,8(sp)
   1b4d4:	05010113          	addi	sp,sp,80
   1b4d8:	00008067          	ret
   1b4dc:	010ab703          	ld	a4,16(s5)
   1b4e0:	002b9b93          	slli	s7,s7,0x2
   1b4e4:	41770733          	sub	a4,a4,s7
   1b4e8:	00eab823          	sd	a4,16(s5)
   1b4ec:	010b0b13          	addi	s6,s6,16
   1b4f0:	f60714e3          	bnez	a4,1b458 <__sprint_r.part.0+0x50>
   1b4f4:	00000513          	li	a0,0
   1b4f8:	fb1ff06f          	j	1b4a8 <__sprint_r.part.0+0xa0>
   1b4fc:	039010ef          	jal	ra,1cd34 <__sfvwrite_r>
   1b500:	fa9ff06f          	j	1b4a8 <__sprint_r.part.0+0xa0>

000000000001b504 <__sprint_r>:
   1b504:	01063703          	ld	a4,16(a2)
   1b508:	00070463          	beqz	a4,1b510 <__sprint_r+0xc>
   1b50c:	efdff06f          	j	1b408 <__sprint_r.part.0>
   1b510:	00062423          	sw	zero,8(a2)
   1b514:	00000513          	li	a0,0
   1b518:	00008067          	ret

000000000001b51c <_vfiprintf_r>:
   1b51c:	e3010113          	addi	sp,sp,-464
   1b520:	1b213823          	sd	s2,432(sp)
   1b524:	1b313423          	sd	s3,424(sp)
   1b528:	19713423          	sd	s7,392(sp)
   1b52c:	1c113423          	sd	ra,456(sp)
   1b530:	1c813023          	sd	s0,448(sp)
   1b534:	1a913c23          	sd	s1,440(sp)
   1b538:	1b413023          	sd	s4,416(sp)
   1b53c:	19513c23          	sd	s5,408(sp)
   1b540:	19613823          	sd	s6,400(sp)
   1b544:	19813023          	sd	s8,384(sp)
   1b548:	17913c23          	sd	s9,376(sp)
   1b54c:	17a13823          	sd	s10,368(sp)
   1b550:	17b13423          	sd	s11,360(sp)
   1b554:	00d13823          	sd	a3,16(sp)
   1b558:	00050993          	mv	s3,a0
   1b55c:	00058913          	mv	s2,a1
   1b560:	00060b93          	mv	s7,a2
   1b564:	00050663          	beqz	a0,1b570 <_vfiprintf_r+0x54>
   1b568:	05052783          	lw	a5,80(a0)
   1b56c:	0e0780e3          	beqz	a5,1be4c <_vfiprintf_r+0x930>
   1b570:	01091703          	lh	a4,16(s2)
   1b574:	03071793          	slli	a5,a4,0x30
   1b578:	0307d793          	srli	a5,a5,0x30
   1b57c:	03279693          	slli	a3,a5,0x32
   1b580:	0206c663          	bltz	a3,1b5ac <_vfiprintf_r+0x90>
   1b584:	0ac92683          	lw	a3,172(s2)
   1b588:	000027b7          	lui	a5,0x2
   1b58c:	00f767b3          	or	a5,a4,a5
   1b590:	ffffe737          	lui	a4,0xffffe
   1b594:	fff70713          	addi	a4,a4,-1 # ffffffffffffdfff <__BSS_END__+0xfffffffffffdadf7>
   1b598:	00e6f733          	and	a4,a3,a4
   1b59c:	00f91823          	sh	a5,16(s2)
   1b5a0:	03079793          	slli	a5,a5,0x30
   1b5a4:	0ae92623          	sw	a4,172(s2)
   1b5a8:	0307d793          	srli	a5,a5,0x30
   1b5ac:	0087f713          	andi	a4,a5,8
   1b5b0:	14070463          	beqz	a4,1b6f8 <_vfiprintf_r+0x1dc>
   1b5b4:	01893703          	ld	a4,24(s2)
   1b5b8:	14070063          	beqz	a4,1b6f8 <_vfiprintf_r+0x1dc>
   1b5bc:	01a7f793          	andi	a5,a5,26
   1b5c0:	00a00713          	li	a4,10
   1b5c4:	14e78c63          	beq	a5,a4,1b71c <_vfiprintf_r+0x200>
   1b5c8:	ffff87b7          	lui	a5,0xffff8
   1b5cc:	0e010493          	addi	s1,sp,224
   1b5d0:	8307c793          	xori	a5,a5,-2000
   1b5d4:	000b8c13          	mv	s8,s7
   1b5d8:	06913023          	sd	s1,96(sp)
   1b5dc:	06013823          	sd	zero,112(sp)
   1b5e0:	06012423          	sw	zero,104(sp)
   1b5e4:	00013c23          	sd	zero,24(sp)
   1b5e8:	02013423          	sd	zero,40(sp)
   1b5ec:	02013c23          	sd	zero,56(sp)
   1b5f0:	02013823          	sd	zero,48(sp)
   1b5f4:	00013023          	sd	zero,0(sp)
   1b5f8:	00006a17          	auipc	s4,0x6
   1b5fc:	358a0a13          	addi	s4,s4,856 # 21950 <zeroes.4524+0x10>
   1b600:	04f13023          	sd	a5,64(sp)
   1b604:	00048b93          	mv	s7,s1
   1b608:	000c4783          	lbu	a5,0(s8)
   1b60c:	14078063          	beqz	a5,1b74c <_vfiprintf_r+0x230>
   1b610:	02500713          	li	a4,37
   1b614:	56e78ce3          	beq	a5,a4,1c38c <_vfiprintf_r+0xe70>
   1b618:	000c0413          	mv	s0,s8
   1b61c:	00c0006f          	j	1b628 <_vfiprintf_r+0x10c>
   1b620:	12e78063          	beq	a5,a4,1b740 <_vfiprintf_r+0x224>
   1b624:	000c8413          	mv	s0,s9
   1b628:	00144783          	lbu	a5,1(s0)
   1b62c:	00140c93          	addi	s9,s0,1
   1b630:	fe0798e3          	bnez	a5,1b620 <_vfiprintf_r+0x104>
   1b634:	418c8d3b          	subw	s10,s9,s8
   1b638:	100d0a63          	beqz	s10,1b74c <_vfiprintf_r+0x230>
   1b63c:	06812783          	lw	a5,104(sp)
   1b640:	07013703          	ld	a4,112(sp)
   1b644:	018bb023          	sd	s8,0(s7)
   1b648:	0017869b          	addiw	a3,a5,1
   1b64c:	00ed0733          	add	a4,s10,a4
   1b650:	01abb423          	sd	s10,8(s7)
   1b654:	06e13823          	sd	a4,112(sp)
   1b658:	06d12423          	sw	a3,104(sp)
   1b65c:	00700793          	li	a5,7
   1b660:	010b8b93          	addi	s7,s7,16
   1b664:	02d7d063          	bge	a5,a3,1b684 <_vfiprintf_r+0x168>
   1b668:	4e0708e3          	beqz	a4,1c358 <_vfiprintf_r+0xe3c>
   1b66c:	06010613          	addi	a2,sp,96
   1b670:	00090593          	mv	a1,s2
   1b674:	00098513          	mv	a0,s3
   1b678:	d91ff0ef          	jal	ra,1b408 <__sprint_r.part.0>
   1b67c:	0e051463          	bnez	a0,1b764 <_vfiprintf_r+0x248>
   1b680:	00048b93          	mv	s7,s1
   1b684:	00013703          	ld	a4,0(sp)
   1b688:	00144783          	lbu	a5,1(s0)
   1b68c:	01a7073b          	addw	a4,a4,s10
   1b690:	00e13023          	sd	a4,0(sp)
   1b694:	0a078c63          	beqz	a5,1b74c <_vfiprintf_r+0x230>
   1b698:	001c8c13          	addi	s8,s9,1
   1b69c:	001cc703          	lbu	a4,1(s9)
   1b6a0:	04010ba3          	sb	zero,87(sp)
   1b6a4:	fff00a93          	li	s5,-1
   1b6a8:	00000413          	li	s0,0
   1b6ac:	00000b13          	li	s6,0
   1b6b0:	00900c93          	li	s9,9
   1b6b4:	02a00d13          	li	s10,42
   1b6b8:	001c0c13          	addi	s8,s8,1
   1b6bc:	0007071b          	sext.w	a4,a4
   1b6c0:	05a00613          	li	a2,90
   1b6c4:	fe07079b          	addiw	a5,a4,-32
   1b6c8:	0007869b          	sext.w	a3,a5
   1b6cc:	1cd66063          	bltu	a2,a3,1b88c <_vfiprintf_r+0x370>
   1b6d0:	02079793          	slli	a5,a5,0x20
   1b6d4:	01e7d793          	srli	a5,a5,0x1e
   1b6d8:	014787b3          	add	a5,a5,s4
   1b6dc:	0007a783          	lw	a5,0(a5) # ffffffffffff8000 <__BSS_END__+0xfffffffffffd4df8>
   1b6e0:	014787b3          	add	a5,a5,s4
   1b6e4:	00078067          	jr	a5
   1b6e8:	010b6b13          	ori	s6,s6,16
   1b6ec:	000b0b1b          	sext.w	s6,s6
   1b6f0:	000c4703          	lbu	a4,0(s8)
   1b6f4:	fc5ff06f          	j	1b6b8 <_vfiprintf_r+0x19c>
   1b6f8:	00090593          	mv	a1,s2
   1b6fc:	00098513          	mv	a0,s3
   1b700:	da0f70ef          	jal	ra,12ca0 <__swsetup_r>
   1b704:	00050463          	beqz	a0,1b70c <_vfiprintf_r+0x1f0>
   1b708:	7dd0006f          	j	1c6e4 <_vfiprintf_r+0x11c8>
   1b70c:	01095783          	lhu	a5,16(s2)
   1b710:	00a00713          	li	a4,10
   1b714:	01a7f793          	andi	a5,a5,26
   1b718:	eae798e3          	bne	a5,a4,1b5c8 <_vfiprintf_r+0xac>
   1b71c:	01291783          	lh	a5,18(s2)
   1b720:	ea07c4e3          	bltz	a5,1b5c8 <_vfiprintf_r+0xac>
   1b724:	01013683          	ld	a3,16(sp)
   1b728:	000b8613          	mv	a2,s7
   1b72c:	00090593          	mv	a1,s2
   1b730:	00098513          	mv	a0,s3
   1b734:	014010ef          	jal	ra,1c748 <__sbprintf>
   1b738:	00a13023          	sd	a0,0(sp)
   1b73c:	0340006f          	j	1b770 <_vfiprintf_r+0x254>
   1b740:	418c8d3b          	subw	s10,s9,s8
   1b744:	f40d0ae3          	beqz	s10,1b698 <_vfiprintf_r+0x17c>
   1b748:	ef5ff06f          	j	1b63c <_vfiprintf_r+0x120>
   1b74c:	07013783          	ld	a5,112(sp)
   1b750:	00078a63          	beqz	a5,1b764 <_vfiprintf_r+0x248>
   1b754:	06010613          	addi	a2,sp,96
   1b758:	00090593          	mv	a1,s2
   1b75c:	00098513          	mv	a0,s3
   1b760:	ca9ff0ef          	jal	ra,1b408 <__sprint_r.part.0>
   1b764:	01095783          	lhu	a5,16(s2)
   1b768:	0407f793          	andi	a5,a5,64
   1b76c:	76079ce3          	bnez	a5,1c6e4 <_vfiprintf_r+0x11c8>
   1b770:	1c813083          	ld	ra,456(sp)
   1b774:	1c013403          	ld	s0,448(sp)
   1b778:	00013503          	ld	a0,0(sp)
   1b77c:	1b813483          	ld	s1,440(sp)
   1b780:	1b013903          	ld	s2,432(sp)
   1b784:	1a813983          	ld	s3,424(sp)
   1b788:	1a013a03          	ld	s4,416(sp)
   1b78c:	19813a83          	ld	s5,408(sp)
   1b790:	19013b03          	ld	s6,400(sp)
   1b794:	18813b83          	ld	s7,392(sp)
   1b798:	18013c03          	ld	s8,384(sp)
   1b79c:	17813c83          	ld	s9,376(sp)
   1b7a0:	17013d03          	ld	s10,368(sp)
   1b7a4:	16813d83          	ld	s11,360(sp)
   1b7a8:	1d010113          	addi	sp,sp,464
   1b7ac:	00008067          	ret
   1b7b0:	01013683          	ld	a3,16(sp)
   1b7b4:	00006797          	auipc	a5,0x6
   1b7b8:	c0478793          	addi	a5,a5,-1020 # 213b8 <zeroes.4539+0x80>
   1b7bc:	00f13c23          	sd	a5,24(sp)
   1b7c0:	020b7793          	andi	a5,s6,32
   1b7c4:	00868613          	addi	a2,a3,8
   1b7c8:	66078063          	beqz	a5,1be28 <_vfiprintf_r+0x90c>
   1b7cc:	0006bd83          	ld	s11,0(a3)
   1b7d0:	001b7793          	andi	a5,s6,1
   1b7d4:	00078e63          	beqz	a5,1b7f0 <_vfiprintf_r+0x2d4>
   1b7d8:	000d8c63          	beqz	s11,1b7f0 <_vfiprintf_r+0x2d4>
   1b7dc:	002b6813          	ori	a6,s6,2
   1b7e0:	03000793          	li	a5,48
   1b7e4:	04f10c23          	sb	a5,88(sp)
   1b7e8:	04e10ca3          	sb	a4,89(sp)
   1b7ec:	00080b1b          	sext.w	s6,a6
   1b7f0:	bffb7813          	andi	a6,s6,-1025
   1b7f4:	00080c9b          	sext.w	s9,a6
   1b7f8:	00c13823          	sd	a2,16(sp)
   1b7fc:	00200793          	li	a5,2
   1b800:	04010ba3          	sb	zero,87(sp)
   1b804:	fff00713          	li	a4,-1
   1b808:	5aea8063          	beq	s5,a4,1bda8 <_vfiprintf_r+0x88c>
   1b80c:	f7fcf813          	andi	a6,s9,-129
   1b810:	00080b1b          	sext.w	s6,a6
   1b814:	100d90e3          	bnez	s11,1c114 <_vfiprintf_r+0xbf8>
   1b818:	640a9463          	bnez	s5,1be60 <_vfiprintf_r+0x944>
   1b81c:	340796e3          	bnez	a5,1c368 <_vfiprintf_r+0xe4c>
   1b820:	001cf793          	andi	a5,s9,1
   1b824:	00f13423          	sd	a5,8(sp)
   1b828:	0dc10d13          	addi	s10,sp,220
   1b82c:	36079ee3          	bnez	a5,1c3a8 <_vfiprintf_r+0xe8c>
   1b830:	00813703          	ld	a4,8(sp)
   1b834:	000a8793          	mv	a5,s5
   1b838:	00ead463          	bge	s5,a4,1b840 <_vfiprintf_r+0x324>
   1b83c:	00070793          	mv	a5,a4
   1b840:	05714703          	lbu	a4,87(sp)
   1b844:	00078c9b          	sext.w	s9,a5
   1b848:	06070263          	beqz	a4,1b8ac <_vfiprintf_r+0x390>
   1b84c:	00178c9b          	addiw	s9,a5,1
   1b850:	05c0006f          	j	1b8ac <_vfiprintf_r+0x390>
   1b854:	00000413          	li	s0,0
   1b858:	001c0c13          	addi	s8,s8,1
   1b85c:	fffc4683          	lbu	a3,-1(s8)
   1b860:	0024179b          	slliw	a5,s0,0x2
   1b864:	0087843b          	addw	s0,a5,s0
   1b868:	fd07071b          	addiw	a4,a4,-48
   1b86c:	0014141b          	slliw	s0,s0,0x1
   1b870:	fd06879b          	addiw	a5,a3,-48
   1b874:	0087043b          	addw	s0,a4,s0
   1b878:	0006871b          	sext.w	a4,a3
   1b87c:	fcfcfee3          	bgeu	s9,a5,1b858 <_vfiprintf_r+0x33c>
   1b880:	fe07079b          	addiw	a5,a4,-32
   1b884:	0007869b          	sext.w	a3,a5
   1b888:	e4d674e3          	bgeu	a2,a3,1b6d0 <_vfiprintf_r+0x1b4>
   1b88c:	ec0700e3          	beqz	a4,1b74c <_vfiprintf_r+0x230>
   1b890:	00100793          	li	a5,1
   1b894:	06e10c23          	sb	a4,120(sp)
   1b898:	04010ba3          	sb	zero,87(sp)
   1b89c:	00100c93          	li	s9,1
   1b8a0:	00f13423          	sd	a5,8(sp)
   1b8a4:	07810d13          	addi	s10,sp,120
   1b8a8:	00000a93          	li	s5,0
   1b8ac:	002b7e93          	andi	t4,s6,2
   1b8b0:	000e8e9b          	sext.w	t4,t4
   1b8b4:	000e8463          	beqz	t4,1b8bc <_vfiprintf_r+0x3a0>
   1b8b8:	002c8c9b          	addiw	s9,s9,2
   1b8bc:	06812703          	lw	a4,104(sp)
   1b8c0:	084b7f13          	andi	t5,s6,132
   1b8c4:	07013783          	ld	a5,112(sp)
   1b8c8:	0017061b          	addiw	a2,a4,1
   1b8cc:	00060593          	mv	a1,a2
   1b8d0:	000f1663          	bnez	t5,1b8dc <_vfiprintf_r+0x3c0>
   1b8d4:	41940dbb          	subw	s11,s0,s9
   1b8d8:	05b042e3          	bgtz	s11,1c11c <_vfiprintf_r+0xc00>
   1b8dc:	05714503          	lbu	a0,87(sp)
   1b8e0:	010b8593          	addi	a1,s7,16
   1b8e4:	02050c63          	beqz	a0,1b91c <_vfiprintf_r+0x400>
   1b8e8:	05710713          	addi	a4,sp,87
   1b8ec:	00178793          	addi	a5,a5,1
   1b8f0:	00ebb023          	sd	a4,0(s7)
   1b8f4:	00100713          	li	a4,1
   1b8f8:	00ebb423          	sd	a4,8(s7)
   1b8fc:	06f13823          	sd	a5,112(sp)
   1b900:	06c12423          	sw	a2,104(sp)
   1b904:	00700713          	li	a4,7
   1b908:	78c74863          	blt	a4,a2,1c098 <_vfiprintf_r+0xb7c>
   1b90c:	00060713          	mv	a4,a2
   1b910:	00058b93          	mv	s7,a1
   1b914:	0016061b          	addiw	a2,a2,1
   1b918:	01058593          	addi	a1,a1,16
   1b91c:	040e8e63          	beqz	t4,1b978 <_vfiprintf_r+0x45c>
   1b920:	05810713          	addi	a4,sp,88
   1b924:	00278793          	addi	a5,a5,2
   1b928:	00ebb023          	sd	a4,0(s7)
   1b92c:	00200713          	li	a4,2
   1b930:	00ebb423          	sd	a4,8(s7)
   1b934:	06f13823          	sd	a5,112(sp)
   1b938:	06c12423          	sw	a2,104(sp)
   1b93c:	00700713          	li	a4,7
   1b940:	7cc75063          	bge	a4,a2,1c100 <_vfiprintf_r+0xbe4>
   1b944:	22078ae3          	beqz	a5,1c378 <_vfiprintf_r+0xe5c>
   1b948:	06010613          	addi	a2,sp,96
   1b94c:	00090593          	mv	a1,s2
   1b950:	00098513          	mv	a0,s3
   1b954:	03e13023          	sd	t5,32(sp)
   1b958:	ab1ff0ef          	jal	ra,1b408 <__sprint_r.part.0>
   1b95c:	e00514e3          	bnez	a0,1b764 <_vfiprintf_r+0x248>
   1b960:	06812703          	lw	a4,104(sp)
   1b964:	07013783          	ld	a5,112(sp)
   1b968:	02013f03          	ld	t5,32(sp)
   1b96c:	0f010593          	addi	a1,sp,240
   1b970:	0017061b          	addiw	a2,a4,1
   1b974:	00048b93          	mv	s7,s1
   1b978:	08000513          	li	a0,128
   1b97c:	52af0863          	beq	t5,a0,1beac <_vfiprintf_r+0x990>
   1b980:	00813683          	ld	a3,8(sp)
   1b984:	40da8abb          	subw	s5,s5,a3
   1b988:	61504c63          	bgtz	s5,1bfa0 <_vfiprintf_r+0xa84>
   1b98c:	00813703          	ld	a4,8(sp)
   1b990:	01abb023          	sd	s10,0(s7)
   1b994:	06c12423          	sw	a2,104(sp)
   1b998:	00f707b3          	add	a5,a4,a5
   1b99c:	00ebb423          	sd	a4,8(s7)
   1b9a0:	06f13823          	sd	a5,112(sp)
   1b9a4:	00700713          	li	a4,7
   1b9a8:	02c75263          	bge	a4,a2,1b9cc <_vfiprintf_r+0x4b0>
   1b9ac:	06078ae3          	beqz	a5,1c220 <_vfiprintf_r+0xd04>
   1b9b0:	06010613          	addi	a2,sp,96
   1b9b4:	00090593          	mv	a1,s2
   1b9b8:	00098513          	mv	a0,s3
   1b9bc:	a4dff0ef          	jal	ra,1b408 <__sprint_r.part.0>
   1b9c0:	da0512e3          	bnez	a0,1b764 <_vfiprintf_r+0x248>
   1b9c4:	07013783          	ld	a5,112(sp)
   1b9c8:	00048593          	mv	a1,s1
   1b9cc:	004b7813          	andi	a6,s6,4
   1b9d0:	00080663          	beqz	a6,1b9dc <_vfiprintf_r+0x4c0>
   1b9d4:	41940bbb          	subw	s7,s0,s9
   1b9d8:	077040e3          	bgtz	s7,1c238 <_vfiprintf_r+0xd1c>
   1b9dc:	00040713          	mv	a4,s0
   1b9e0:	01945463          	bge	s0,s9,1b9e8 <_vfiprintf_r+0x4cc>
   1b9e4:	000c8713          	mv	a4,s9
   1b9e8:	00013683          	ld	a3,0(sp)
   1b9ec:	00d7073b          	addw	a4,a4,a3
   1b9f0:	00e13023          	sd	a4,0(sp)
   1b9f4:	66079e63          	bnez	a5,1c070 <_vfiprintf_r+0xb54>
   1b9f8:	06012423          	sw	zero,104(sp)
   1b9fc:	00048b93          	mv	s7,s1
   1ba00:	c09ff06f          	j	1b608 <_vfiprintf_r+0xec>
   1ba04:	01013703          	ld	a4,16(sp)
   1ba08:	04010ba3          	sb	zero,87(sp)
   1ba0c:	00100c93          	li	s9,1
   1ba10:	00072783          	lw	a5,0(a4)
   1ba14:	00870713          	addi	a4,a4,8
   1ba18:	00e13823          	sd	a4,16(sp)
   1ba1c:	06f10c23          	sb	a5,120(sp)
   1ba20:	00100793          	li	a5,1
   1ba24:	00f13423          	sd	a5,8(sp)
   1ba28:	07810d13          	addi	s10,sp,120
   1ba2c:	e7dff06f          	j	1b8a8 <_vfiprintf_r+0x38c>
   1ba30:	01013703          	ld	a4,16(sp)
   1ba34:	020b7793          	andi	a5,s6,32
   1ba38:	00870713          	addi	a4,a4,8
   1ba3c:	1c0798e3          	bnez	a5,1c40c <_vfiprintf_r+0xef0>
   1ba40:	010b7793          	andi	a5,s6,16
   1ba44:	1c0794e3          	bnez	a5,1c40c <_vfiprintf_r+0xef0>
   1ba48:	01013683          	ld	a3,16(sp)
   1ba4c:	040b7793          	andi	a5,s6,64
   1ba50:	0006ae03          	lw	t3,0(a3)
   1ba54:	3a0784e3          	beqz	a5,1c5fc <_vfiprintf_r+0x10e0>
   1ba58:	030e1d93          	slli	s11,t3,0x30
   1ba5c:	030ddd93          	srli	s11,s11,0x30
   1ba60:	00e13823          	sd	a4,16(sp)
   1ba64:	000b0c93          	mv	s9,s6
   1ba68:	00100793          	li	a5,1
   1ba6c:	d95ff06f          	j	1b800 <_vfiprintf_r+0x2e4>
   1ba70:	080b6b13          	ori	s6,s6,128
   1ba74:	000b0b1b          	sext.w	s6,s6
   1ba78:	000c4703          	lbu	a4,0(s8)
   1ba7c:	c3dff06f          	j	1b6b8 <_vfiprintf_r+0x19c>
   1ba80:	000c4703          	lbu	a4,0(s8)
   1ba84:	001c0793          	addi	a5,s8,1
   1ba88:	49a702e3          	beq	a4,s10,1c70c <_vfiprintf_r+0x11f0>
   1ba8c:	fd07069b          	addiw	a3,a4,-48
   1ba90:	00078c13          	mv	s8,a5
   1ba94:	00000a93          	li	s5,0
   1ba98:	c2dce6e3          	bltu	s9,a3,1b6c4 <_vfiprintf_r+0x1a8>
   1ba9c:	001c0c13          	addi	s8,s8,1
   1baa0:	002a979b          	slliw	a5,s5,0x2
   1baa4:	fffc4703          	lbu	a4,-1(s8)
   1baa8:	01578abb          	addw	s5,a5,s5
   1baac:	001a9a9b          	slliw	s5,s5,0x1
   1bab0:	00da8abb          	addw	s5,s5,a3
   1bab4:	fd07069b          	addiw	a3,a4,-48
   1bab8:	fedcf2e3          	bgeu	s9,a3,1ba9c <_vfiprintf_r+0x580>
   1babc:	c09ff06f          	j	1b6c4 <_vfiprintf_r+0x1a8>
   1bac0:	000c4703          	lbu	a4,0(s8)
   1bac4:	004b6b13          	ori	s6,s6,4
   1bac8:	000b0b1b          	sext.w	s6,s6
   1bacc:	bedff06f          	j	1b6b8 <_vfiprintf_r+0x19c>
   1bad0:	02b00793          	li	a5,43
   1bad4:	04f10ba3          	sb	a5,87(sp)
   1bad8:	000c4703          	lbu	a4,0(s8)
   1badc:	bddff06f          	j	1b6b8 <_vfiprintf_r+0x19c>
   1bae0:	01013783          	ld	a5,16(sp)
   1bae4:	000c4703          	lbu	a4,0(s8)
   1bae8:	0007a403          	lw	s0,0(a5)
   1baec:	00878793          	addi	a5,a5,8
   1baf0:	00f13823          	sd	a5,16(sp)
   1baf4:	bc0452e3          	bgez	s0,1b6b8 <_vfiprintf_r+0x19c>
   1baf8:	4080043b          	negw	s0,s0
   1bafc:	fc9ff06f          	j	1bac4 <_vfiprintf_r+0x5a8>
   1bb00:	00098513          	mv	a0,s3
   1bb04:	d19fa0ef          	jal	ra,1681c <_localeconv_r>
   1bb08:	00853783          	ld	a5,8(a0)
   1bb0c:	00078513          	mv	a0,a5
   1bb10:	02f13823          	sd	a5,48(sp)
   1bb14:	840fd0ef          	jal	ra,18b54 <strlen>
   1bb18:	02a13c23          	sd	a0,56(sp)
   1bb1c:	00050d93          	mv	s11,a0
   1bb20:	00098513          	mv	a0,s3
   1bb24:	cf9fa0ef          	jal	ra,1681c <_localeconv_r>
   1bb28:	01053783          	ld	a5,16(a0)
   1bb2c:	000c4703          	lbu	a4,0(s8)
   1bb30:	02f13423          	sd	a5,40(sp)
   1bb34:	b80d82e3          	beqz	s11,1b6b8 <_vfiprintf_r+0x19c>
   1bb38:	b80780e3          	beqz	a5,1b6b8 <_vfiprintf_r+0x19c>
   1bb3c:	0007c783          	lbu	a5,0(a5)
   1bb40:	b6078ce3          	beqz	a5,1b6b8 <_vfiprintf_r+0x19c>
   1bb44:	400b6b13          	ori	s6,s6,1024
   1bb48:	000b0b1b          	sext.w	s6,s6
   1bb4c:	b6dff06f          	j	1b6b8 <_vfiprintf_r+0x19c>
   1bb50:	001b6b13          	ori	s6,s6,1
   1bb54:	000b0b1b          	sext.w	s6,s6
   1bb58:	000c4703          	lbu	a4,0(s8)
   1bb5c:	b5dff06f          	j	1b6b8 <_vfiprintf_r+0x19c>
   1bb60:	05714783          	lbu	a5,87(sp)
   1bb64:	000c4703          	lbu	a4,0(s8)
   1bb68:	b40798e3          	bnez	a5,1b6b8 <_vfiprintf_r+0x19c>
   1bb6c:	02000793          	li	a5,32
   1bb70:	04f10ba3          	sb	a5,87(sp)
   1bb74:	b45ff06f          	j	1b6b8 <_vfiprintf_r+0x19c>
   1bb78:	010b6793          	ori	a5,s6,16
   1bb7c:	0007881b          	sext.w	a6,a5
   1bb80:	01013783          	ld	a5,16(sp)
   1bb84:	00878793          	addi	a5,a5,8
   1bb88:	01013703          	ld	a4,16(sp)
   1bb8c:	00073d83          	ld	s11,0(a4)
   1bb90:	00f13823          	sd	a5,16(sp)
   1bb94:	bff87813          	andi	a6,a6,-1025
   1bb98:	00080c9b          	sext.w	s9,a6
   1bb9c:	00000793          	li	a5,0
   1bba0:	c61ff06f          	j	1b800 <_vfiprintf_r+0x2e4>
   1bba4:	01013783          	ld	a5,16(sp)
   1bba8:	010b6e93          	ori	t4,s6,16
   1bbac:	000e8c9b          	sext.w	s9,t4
   1bbb0:	00878713          	addi	a4,a5,8
   1bbb4:	01013783          	ld	a5,16(sp)
   1bbb8:	0007b783          	ld	a5,0(a5)
   1bbbc:	00e13823          	sd	a4,16(sp)
   1bbc0:	00078d93          	mv	s11,a5
   1bbc4:	1c07c663          	bltz	a5,1bd90 <_vfiprintf_r+0x874>
   1bbc8:	fff00793          	li	a5,-1
   1bbcc:	00fa8a63          	beq	s5,a5,1bbe0 <_vfiprintf_r+0x6c4>
   1bbd0:	f7fcf813          	andi	a6,s9,-129
   1bbd4:	00080b1b          	sext.w	s6,a6
   1bbd8:	780d8663          	beqz	s11,1c364 <_vfiprintf_r+0xe48>
   1bbdc:	000b0c93          	mv	s9,s6
   1bbe0:	00900793          	li	a5,9
   1bbe4:	09b7e0e3          	bltu	a5,s11,1c464 <_vfiprintf_r+0xf48>
   1bbe8:	030d8e1b          	addiw	t3,s11,48
   1bbec:	00100793          	li	a5,1
   1bbf0:	0dc10da3          	sb	t3,219(sp)
   1bbf4:	000c8b13          	mv	s6,s9
   1bbf8:	00f13423          	sd	a5,8(sp)
   1bbfc:	0db10d13          	addi	s10,sp,219
   1bc00:	c31ff06f          	j	1b830 <_vfiprintf_r+0x314>
   1bc04:	01013783          	ld	a5,16(sp)
   1bc08:	010b6e93          	ori	t4,s6,16
   1bc0c:	000e8c9b          	sext.w	s9,t4
   1bc10:	00878713          	addi	a4,a5,8
   1bc14:	01013783          	ld	a5,16(sp)
   1bc18:	0007bd83          	ld	s11,0(a5)
   1bc1c:	00100793          	li	a5,1
   1bc20:	00e13823          	sd	a4,16(sp)
   1bc24:	bddff06f          	j	1b800 <_vfiprintf_r+0x2e4>
   1bc28:	01013783          	ld	a5,16(sp)
   1bc2c:	04010ba3          	sb	zero,87(sp)
   1bc30:	0007bd03          	ld	s10,0(a5)
   1bc34:	00878d93          	addi	s11,a5,8
   1bc38:	140d04e3          	beqz	s10,1c580 <_vfiprintf_r+0x1064>
   1bc3c:	fff00793          	li	a5,-1
   1bc40:	7efa8463          	beq	s5,a5,1c428 <_vfiprintf_r+0xf0c>
   1bc44:	000a8613          	mv	a2,s5
   1bc48:	00000593          	li	a1,0
   1bc4c:	000d0513          	mv	a0,s10
   1bc50:	f30fb0ef          	jal	ra,17380 <memchr>
   1bc54:	260502e3          	beqz	a0,1c6b8 <_vfiprintf_r+0x119c>
   1bc58:	41a507bb          	subw	a5,a0,s10
   1bc5c:	00f13423          	sd	a5,8(sp)
   1bc60:	01b13823          	sd	s11,16(sp)
   1bc64:	00000a93          	li	s5,0
   1bc68:	bc9ff06f          	j	1b830 <_vfiprintf_r+0x314>
   1bc6c:	020b6b13          	ori	s6,s6,32
   1bc70:	000b0b1b          	sext.w	s6,s6
   1bc74:	000c4703          	lbu	a4,0(s8)
   1bc78:	a41ff06f          	j	1b6b8 <_vfiprintf_r+0x19c>
   1bc7c:	01013783          	ld	a5,16(sp)
   1bc80:	04013703          	ld	a4,64(sp)
   1bc84:	002b6813          	ori	a6,s6,2
   1bc88:	0007bd83          	ld	s11,0(a5)
   1bc8c:	00878793          	addi	a5,a5,8
   1bc90:	00f13823          	sd	a5,16(sp)
   1bc94:	00005797          	auipc	a5,0x5
   1bc98:	70c78793          	addi	a5,a5,1804 # 213a0 <zeroes.4539+0x68>
   1bc9c:	00f13c23          	sd	a5,24(sp)
   1bca0:	00080c9b          	sext.w	s9,a6
   1bca4:	04e11c23          	sh	a4,88(sp)
   1bca8:	00200793          	li	a5,2
   1bcac:	b55ff06f          	j	1b800 <_vfiprintf_r+0x2e4>
   1bcb0:	01013783          	ld	a5,16(sp)
   1bcb4:	020b7713          	andi	a4,s6,32
   1bcb8:	00878793          	addi	a5,a5,8
   1bcbc:	74071463          	bnez	a4,1c404 <_vfiprintf_r+0xee8>
   1bcc0:	010b7713          	andi	a4,s6,16
   1bcc4:	74071063          	bnez	a4,1c404 <_vfiprintf_r+0xee8>
   1bcc8:	01013683          	ld	a3,16(sp)
   1bccc:	040b7713          	andi	a4,s6,64
   1bcd0:	0006ae03          	lw	t3,0(a3)
   1bcd4:	100708e3          	beqz	a4,1c5e4 <_vfiprintf_r+0x10c8>
   1bcd8:	030e1d93          	slli	s11,t3,0x30
   1bcdc:	030ddd93          	srli	s11,s11,0x30
   1bce0:	000b0813          	mv	a6,s6
   1bce4:	00f13823          	sd	a5,16(sp)
   1bce8:	eadff06f          	j	1bb94 <_vfiprintf_r+0x678>
   1bcec:	01013683          	ld	a3,16(sp)
   1bcf0:	020b7793          	andi	a5,s6,32
   1bcf4:	0006b703          	ld	a4,0(a3)
   1bcf8:	00868693          	addi	a3,a3,8
   1bcfc:	00d13823          	sd	a3,16(sp)
   1bd00:	14079a63          	bnez	a5,1be54 <_vfiprintf_r+0x938>
   1bd04:	010b7793          	andi	a5,s6,16
   1bd08:	14079663          	bnez	a5,1be54 <_vfiprintf_r+0x938>
   1bd0c:	040b7793          	andi	a5,s6,64
   1bd10:	140798e3          	bnez	a5,1c660 <_vfiprintf_r+0x1144>
   1bd14:	200b7813          	andi	a6,s6,512
   1bd18:	00013783          	ld	a5,0(sp)
   1bd1c:	1e0804e3          	beqz	a6,1c704 <_vfiprintf_r+0x11e8>
   1bd20:	00f70023          	sb	a5,0(a4)
   1bd24:	8e5ff06f          	j	1b608 <_vfiprintf_r+0xec>
   1bd28:	000c4703          	lbu	a4,0(s8)
   1bd2c:	06c00793          	li	a5,108
   1bd30:	02f70ee3          	beq	a4,a5,1c56c <_vfiprintf_r+0x1050>
   1bd34:	010b6b13          	ori	s6,s6,16
   1bd38:	000b0b1b          	sext.w	s6,s6
   1bd3c:	97dff06f          	j	1b6b8 <_vfiprintf_r+0x19c>
   1bd40:	000c4703          	lbu	a4,0(s8)
   1bd44:	06800793          	li	a5,104
   1bd48:	00f708e3          	beq	a4,a5,1c558 <_vfiprintf_r+0x103c>
   1bd4c:	040b6b13          	ori	s6,s6,64
   1bd50:	000b0b1b          	sext.w	s6,s6
   1bd54:	965ff06f          	j	1b6b8 <_vfiprintf_r+0x19c>
   1bd58:	01013703          	ld	a4,16(sp)
   1bd5c:	020b7793          	andi	a5,s6,32
   1bd60:	00870713          	addi	a4,a4,8
   1bd64:	6a079e63          	bnez	a5,1c420 <_vfiprintf_r+0xf04>
   1bd68:	010b7793          	andi	a5,s6,16
   1bd6c:	6a079a63          	bnez	a5,1c420 <_vfiprintf_r+0xf04>
   1bd70:	040b7793          	andi	a5,s6,64
   1bd74:	040788e3          	beqz	a5,1c5c4 <_vfiprintf_r+0x10a8>
   1bd78:	01013783          	ld	a5,16(sp)
   1bd7c:	00e13823          	sd	a4,16(sp)
   1bd80:	000b0c93          	mv	s9,s6
   1bd84:	00079d83          	lh	s11,0(a5)
   1bd88:	000d8793          	mv	a5,s11
   1bd8c:	e207dee3          	bgez	a5,1bbc8 <_vfiprintf_r+0x6ac>
   1bd90:	02d00793          	li	a5,45
   1bd94:	04f10ba3          	sb	a5,87(sp)
   1bd98:	fff00713          	li	a4,-1
   1bd9c:	41b00db3          	neg	s11,s11
   1bda0:	00100793          	li	a5,1
   1bda4:	a6ea94e3          	bne	s5,a4,1b80c <_vfiprintf_r+0x2f0>
   1bda8:	00100713          	li	a4,1
   1bdac:	e2e78ae3          	beq	a5,a4,1bbe0 <_vfiprintf_r+0x6c4>
   1bdb0:	00200713          	li	a4,2
   1bdb4:	0ce78063          	beq	a5,a4,1be74 <_vfiprintf_r+0x958>
   1bdb8:	0dc10713          	addi	a4,sp,220
   1bdbc:	0080006f          	j	1bdc4 <_vfiprintf_r+0x8a8>
   1bdc0:	000d0713          	mv	a4,s10
   1bdc4:	007df793          	andi	a5,s11,7
   1bdc8:	03078793          	addi	a5,a5,48
   1bdcc:	fef70fa3          	sb	a5,-1(a4)
   1bdd0:	003ddd93          	srli	s11,s11,0x3
   1bdd4:	fff70d13          	addi	s10,a4,-1
   1bdd8:	fe0d94e3          	bnez	s11,1bdc0 <_vfiprintf_r+0x8a4>
   1bddc:	001cf613          	andi	a2,s9,1
   1bde0:	0a060c63          	beqz	a2,1be98 <_vfiprintf_r+0x97c>
   1bde4:	03000613          	li	a2,48
   1bde8:	0ac78863          	beq	a5,a2,1be98 <_vfiprintf_r+0x97c>
   1bdec:	ffe70713          	addi	a4,a4,-2
   1bdf0:	0dc10793          	addi	a5,sp,220
   1bdf4:	40e787bb          	subw	a5,a5,a4
   1bdf8:	fecd0fa3          	sb	a2,-1(s10)
   1bdfc:	00f13423          	sd	a5,8(sp)
   1be00:	000c8b13          	mv	s6,s9
   1be04:	00070d13          	mv	s10,a4
   1be08:	a29ff06f          	j	1b830 <_vfiprintf_r+0x314>
   1be0c:	01013683          	ld	a3,16(sp)
   1be10:	00005797          	auipc	a5,0x5
   1be14:	59078793          	addi	a5,a5,1424 # 213a0 <zeroes.4539+0x68>
   1be18:	00f13c23          	sd	a5,24(sp)
   1be1c:	020b7793          	andi	a5,s6,32
   1be20:	00868613          	addi	a2,a3,8
   1be24:	9a0794e3          	bnez	a5,1b7cc <_vfiprintf_r+0x2b0>
   1be28:	010b7793          	andi	a5,s6,16
   1be2c:	5e079463          	bnez	a5,1c414 <_vfiprintf_r+0xef8>
   1be30:	01013683          	ld	a3,16(sp)
   1be34:	040b7793          	andi	a5,s6,64
   1be38:	0006ae03          	lw	t3,0(a3)
   1be3c:	76078863          	beqz	a5,1c5ac <_vfiprintf_r+0x1090>
   1be40:	030e1d93          	slli	s11,t3,0x30
   1be44:	030ddd93          	srli	s11,s11,0x30
   1be48:	989ff06f          	j	1b7d0 <_vfiprintf_r+0x2b4>
   1be4c:	f90f70ef          	jal	ra,135dc <__sinit>
   1be50:	f20ff06f          	j	1b570 <_vfiprintf_r+0x54>
   1be54:	00013783          	ld	a5,0(sp)
   1be58:	00f73023          	sd	a5,0(a4)
   1be5c:	facff06f          	j	1b608 <_vfiprintf_r+0xec>
   1be60:	00100713          	li	a4,1
   1be64:	04e786e3          	beq	a5,a4,1c6b0 <_vfiprintf_r+0x1194>
   1be68:	00200713          	li	a4,2
   1be6c:	000b0c93          	mv	s9,s6
   1be70:	f4e794e3          	bne	a5,a4,1bdb8 <_vfiprintf_r+0x89c>
   1be74:	01813703          	ld	a4,24(sp)
   1be78:	0dc10d13          	addi	s10,sp,220
   1be7c:	00fdf793          	andi	a5,s11,15
   1be80:	00f707b3          	add	a5,a4,a5
   1be84:	0007c783          	lbu	a5,0(a5)
   1be88:	fffd0d13          	addi	s10,s10,-1
   1be8c:	004ddd93          	srli	s11,s11,0x4
   1be90:	00fd0023          	sb	a5,0(s10)
   1be94:	fe0d94e3          	bnez	s11,1be7c <_vfiprintf_r+0x960>
   1be98:	0dc10793          	addi	a5,sp,220
   1be9c:	41a787bb          	subw	a5,a5,s10
   1bea0:	00f13423          	sd	a5,8(sp)
   1bea4:	000c8b13          	mv	s6,s9
   1bea8:	989ff06f          	j	1b830 <_vfiprintf_r+0x314>
   1beac:	41940dbb          	subw	s11,s0,s9
   1beb0:	adb058e3          	blez	s11,1b980 <_vfiprintf_r+0x464>
   1beb4:	01000513          	li	a0,16
   1beb8:	03b55ce3          	bge	a0,s11,1c6f0 <_vfiprintf_r+0x11d4>
   1bebc:	00006e17          	auipc	t3,0x6
   1bec0:	c14e0e13          	addi	t3,t3,-1004 # 21ad0 <zeroes.4515>
   1bec4:	02813023          	sd	s0,32(sp)
   1bec8:	01000e93          	li	t4,16
   1becc:	00700f13          	li	t5,7
   1bed0:	000e0413          	mv	s0,t3
   1bed4:	0180006f          	j	1beec <_vfiprintf_r+0x9d0>
   1bed8:	0027051b          	addiw	a0,a4,2
   1bedc:	010b8b93          	addi	s7,s7,16
   1bee0:	00060713          	mv	a4,a2
   1bee4:	ff0d8d9b          	addiw	s11,s11,-16
   1bee8:	05bedc63          	bge	t4,s11,1bf40 <_vfiprintf_r+0xa24>
   1beec:	0017061b          	addiw	a2,a4,1
   1bef0:	01078793          	addi	a5,a5,16
   1bef4:	008bb023          	sd	s0,0(s7)
   1bef8:	01dbb423          	sd	t4,8(s7)
   1befc:	06f13823          	sd	a5,112(sp)
   1bf00:	06c12423          	sw	a2,104(sp)
   1bf04:	fccf5ae3          	bge	t5,a2,1bed8 <_vfiprintf_r+0x9bc>
   1bf08:	18078063          	beqz	a5,1c088 <_vfiprintf_r+0xb6c>
   1bf0c:	06010613          	addi	a2,sp,96
   1bf10:	00090593          	mv	a1,s2
   1bf14:	00098513          	mv	a0,s3
   1bf18:	cf0ff0ef          	jal	ra,1b408 <__sprint_r.part.0>
   1bf1c:	840514e3          	bnez	a0,1b764 <_vfiprintf_r+0x248>
   1bf20:	06812703          	lw	a4,104(sp)
   1bf24:	01000e93          	li	t4,16
   1bf28:	ff0d8d9b          	addiw	s11,s11,-16
   1bf2c:	07013783          	ld	a5,112(sp)
   1bf30:	00048b93          	mv	s7,s1
   1bf34:	0017051b          	addiw	a0,a4,1
   1bf38:	00700f13          	li	t5,7
   1bf3c:	fbbec8e3          	blt	t4,s11,1beec <_vfiprintf_r+0x9d0>
   1bf40:	00040e13          	mv	t3,s0
   1bf44:	02013403          	ld	s0,32(sp)
   1bf48:	010b8e93          	addi	t4,s7,16
   1bf4c:	01b787b3          	add	a5,a5,s11
   1bf50:	01cbb023          	sd	t3,0(s7)
   1bf54:	01bbb423          	sd	s11,8(s7)
   1bf58:	06f13823          	sd	a5,112(sp)
   1bf5c:	06a12423          	sw	a0,104(sp)
   1bf60:	00700713          	li	a4,7
   1bf64:	48a75663          	bge	a4,a0,1c3f0 <_vfiprintf_r+0xed4>
   1bf68:	6c078063          	beqz	a5,1c628 <_vfiprintf_r+0x110c>
   1bf6c:	06010613          	addi	a2,sp,96
   1bf70:	00090593          	mv	a1,s2
   1bf74:	00098513          	mv	a0,s3
   1bf78:	c90ff0ef          	jal	ra,1b408 <__sprint_r.part.0>
   1bf7c:	fe051463          	bnez	a0,1b764 <_vfiprintf_r+0x248>
   1bf80:	00813683          	ld	a3,8(sp)
   1bf84:	06812703          	lw	a4,104(sp)
   1bf88:	07013783          	ld	a5,112(sp)
   1bf8c:	40da8abb          	subw	s5,s5,a3
   1bf90:	0f010593          	addi	a1,sp,240
   1bf94:	0017061b          	addiw	a2,a4,1
   1bf98:	00048b93          	mv	s7,s1
   1bf9c:	9f5058e3          	blez	s5,1b98c <_vfiprintf_r+0x470>
   1bfa0:	01000513          	li	a0,16
   1bfa4:	67555a63          	bge	a0,s5,1c618 <_vfiprintf_r+0x10fc>
   1bfa8:	00006e17          	auipc	t3,0x6
   1bfac:	b28e0e13          	addi	t3,t3,-1240 # 21ad0 <zeroes.4515>
   1bfb0:	02813023          	sd	s0,32(sp)
   1bfb4:	01000893          	li	a7,16
   1bfb8:	00700d93          	li	s11,7
   1bfbc:	000e0413          	mv	s0,t3
   1bfc0:	0180006f          	j	1bfd8 <_vfiprintf_r+0xabc>
   1bfc4:	0027061b          	addiw	a2,a4,2
   1bfc8:	010b8b93          	addi	s7,s7,16
   1bfcc:	00058713          	mv	a4,a1
   1bfd0:	ff0a8a9b          	addiw	s5,s5,-16
   1bfd4:	0558da63          	bge	a7,s5,1c028 <_vfiprintf_r+0xb0c>
   1bfd8:	0017059b          	addiw	a1,a4,1
   1bfdc:	01078793          	addi	a5,a5,16
   1bfe0:	008bb023          	sd	s0,0(s7)
   1bfe4:	011bb423          	sd	a7,8(s7)
   1bfe8:	06f13823          	sd	a5,112(sp)
   1bfec:	06b12423          	sw	a1,104(sp)
   1bff0:	fcbddae3          	bge	s11,a1,1bfc4 <_vfiprintf_r+0xaa8>
   1bff4:	06078663          	beqz	a5,1c060 <_vfiprintf_r+0xb44>
   1bff8:	06010613          	addi	a2,sp,96
   1bffc:	00090593          	mv	a1,s2
   1c000:	00098513          	mv	a0,s3
   1c004:	c04ff0ef          	jal	ra,1b408 <__sprint_r.part.0>
   1c008:	f4051e63          	bnez	a0,1b764 <_vfiprintf_r+0x248>
   1c00c:	06812703          	lw	a4,104(sp)
   1c010:	01000893          	li	a7,16
   1c014:	ff0a8a9b          	addiw	s5,s5,-16
   1c018:	07013783          	ld	a5,112(sp)
   1c01c:	00048b93          	mv	s7,s1
   1c020:	0017061b          	addiw	a2,a4,1
   1c024:	fb58cae3          	blt	a7,s5,1bfd8 <_vfiprintf_r+0xabc>
   1c028:	00040e13          	mv	t3,s0
   1c02c:	02013403          	ld	s0,32(sp)
   1c030:	010b8513          	addi	a0,s7,16
   1c034:	015787b3          	add	a5,a5,s5
   1c038:	01cbb023          	sd	t3,0(s7)
   1c03c:	015bb423          	sd	s5,8(s7)
   1c040:	06f13823          	sd	a5,112(sp)
   1c044:	06c12423          	sw	a2,104(sp)
   1c048:	00700713          	li	a4,7
   1c04c:	2cc74e63          	blt	a4,a2,1c328 <_vfiprintf_r+0xe0c>
   1c050:	0016061b          	addiw	a2,a2,1
   1c054:	01050593          	addi	a1,a0,16
   1c058:	00050b93          	mv	s7,a0
   1c05c:	931ff06f          	j	1b98c <_vfiprintf_r+0x470>
   1c060:	00100613          	li	a2,1
   1c064:	00000713          	li	a4,0
   1c068:	00048b93          	mv	s7,s1
   1c06c:	f65ff06f          	j	1bfd0 <_vfiprintf_r+0xab4>
   1c070:	06010613          	addi	a2,sp,96
   1c074:	00090593          	mv	a1,s2
   1c078:	00098513          	mv	a0,s3
   1c07c:	b8cff0ef          	jal	ra,1b408 <__sprint_r.part.0>
   1c080:	96050ce3          	beqz	a0,1b9f8 <_vfiprintf_r+0x4dc>
   1c084:	ee0ff06f          	j	1b764 <_vfiprintf_r+0x248>
   1c088:	00100513          	li	a0,1
   1c08c:	00000713          	li	a4,0
   1c090:	00048b93          	mv	s7,s1
   1c094:	e51ff06f          	j	1bee4 <_vfiprintf_r+0x9c8>
   1c098:	04078663          	beqz	a5,1c0e4 <_vfiprintf_r+0xbc8>
   1c09c:	06010613          	addi	a2,sp,96
   1c0a0:	00090593          	mv	a1,s2
   1c0a4:	00098513          	mv	a0,s3
   1c0a8:	05e13423          	sd	t5,72(sp)
   1c0ac:	03d13023          	sd	t4,32(sp)
   1c0b0:	b58ff0ef          	jal	ra,1b408 <__sprint_r.part.0>
   1c0b4:	ea051863          	bnez	a0,1b764 <_vfiprintf_r+0x248>
   1c0b8:	06812703          	lw	a4,104(sp)
   1c0bc:	07013783          	ld	a5,112(sp)
   1c0c0:	0f010593          	addi	a1,sp,240
   1c0c4:	0017061b          	addiw	a2,a4,1
   1c0c8:	00048b93          	mv	s7,s1
   1c0cc:	04813f03          	ld	t5,72(sp)
   1c0d0:	02013e83          	ld	t4,32(sp)
   1c0d4:	849ff06f          	j	1b91c <_vfiprintf_r+0x400>
   1c0d8:	2e079063          	bnez	a5,1c3b8 <_vfiprintf_r+0xe9c>
   1c0dc:	05714703          	lbu	a4,87(sp)
   1c0e0:	56071263          	bnez	a4,1c644 <_vfiprintf_r+0x1128>
   1c0e4:	2a0e8863          	beqz	t4,1c394 <_vfiprintf_r+0xe78>
   1c0e8:	05810793          	addi	a5,sp,88
   1c0ec:	0ef13023          	sd	a5,224(sp)
   1c0f0:	00200793          	li	a5,2
   1c0f4:	0ef13423          	sd	a5,232(sp)
   1c0f8:	00100613          	li	a2,1
   1c0fc:	0f010593          	addi	a1,sp,240
   1c100:	00060713          	mv	a4,a2
   1c104:	00058b93          	mv	s7,a1
   1c108:	0016061b          	addiw	a2,a2,1
   1c10c:	01058593          	addi	a1,a1,16
   1c110:	869ff06f          	j	1b978 <_vfiprintf_r+0x45c>
   1c114:	000b0c93          	mv	s9,s6
   1c118:	c91ff06f          	j	1bda8 <_vfiprintf_r+0x88c>
   1c11c:	01000513          	li	a0,16
   1c120:	5bb55463          	bge	a0,s11,1c6c8 <_vfiprintf_r+0x11ac>
   1c124:	00006e17          	auipc	t3,0x6
   1c128:	99ce0e13          	addi	t3,t3,-1636 # 21ac0 <blanks.4514>
   1c12c:	000b8693          	mv	a3,s7
   1c130:	01000f93          	li	t6,16
   1c134:	00040b93          	mv	s7,s0
   1c138:	00700293          	li	t0,7
   1c13c:	000d8413          	mv	s0,s11
   1c140:	03d13023          	sd	t4,32(sp)
   1c144:	000c0d93          	mv	s11,s8
   1c148:	05e13423          	sd	t5,72(sp)
   1c14c:	000a8c13          	mv	s8,s5
   1c150:	000e0a93          	mv	s5,t3
   1c154:	01c0006f          	j	1c170 <_vfiprintf_r+0xc54>
   1c158:	0027059b          	addiw	a1,a4,2
   1c15c:	01068693          	addi	a3,a3,16
   1c160:	00060713          	mv	a4,a2
   1c164:	ff04041b          	addiw	s0,s0,-16
   1c168:	048fde63          	bge	t6,s0,1c1c4 <_vfiprintf_r+0xca8>
   1c16c:	0017059b          	addiw	a1,a4,1
   1c170:	01078793          	addi	a5,a5,16
   1c174:	0156b023          	sd	s5,0(a3)
   1c178:	01f6b423          	sd	t6,8(a3)
   1c17c:	06f13823          	sd	a5,112(sp)
   1c180:	0005861b          	sext.w	a2,a1
   1c184:	06b12423          	sw	a1,104(sp)
   1c188:	fcc2d8e3          	bge	t0,a2,1c158 <_vfiprintf_r+0xc3c>
   1c18c:	08078263          	beqz	a5,1c210 <_vfiprintf_r+0xcf4>
   1c190:	06010613          	addi	a2,sp,96
   1c194:	00090593          	mv	a1,s2
   1c198:	00098513          	mv	a0,s3
   1c19c:	a6cff0ef          	jal	ra,1b408 <__sprint_r.part.0>
   1c1a0:	dc051263          	bnez	a0,1b764 <_vfiprintf_r+0x248>
   1c1a4:	06812703          	lw	a4,104(sp)
   1c1a8:	01000f93          	li	t6,16
   1c1ac:	ff04041b          	addiw	s0,s0,-16
   1c1b0:	07013783          	ld	a5,112(sp)
   1c1b4:	00048693          	mv	a3,s1
   1c1b8:	0017059b          	addiw	a1,a4,1
   1c1bc:	00700293          	li	t0,7
   1c1c0:	fa8fc6e3          	blt	t6,s0,1c16c <_vfiprintf_r+0xc50>
   1c1c4:	02013e83          	ld	t4,32(sp)
   1c1c8:	04813f03          	ld	t5,72(sp)
   1c1cc:	000a8e13          	mv	t3,s5
   1c1d0:	000c0a93          	mv	s5,s8
   1c1d4:	000d8c13          	mv	s8,s11
   1c1d8:	00040d93          	mv	s11,s0
   1c1dc:	000b8413          	mv	s0,s7
   1c1e0:	00068b93          	mv	s7,a3
   1c1e4:	01b787b3          	add	a5,a5,s11
   1c1e8:	01cbb023          	sd	t3,0(s7)
   1c1ec:	01bbb423          	sd	s11,8(s7)
   1c1f0:	06f13823          	sd	a5,112(sp)
   1c1f4:	06b12423          	sw	a1,104(sp)
   1c1f8:	00700713          	li	a4,7
   1c1fc:	ecb74ee3          	blt	a4,a1,1c0d8 <_vfiprintf_r+0xbbc>
   1c200:	010b8b93          	addi	s7,s7,16
   1c204:	0015861b          	addiw	a2,a1,1
   1c208:	00058713          	mv	a4,a1
   1c20c:	ed0ff06f          	j	1b8dc <_vfiprintf_r+0x3c0>
   1c210:	00000713          	li	a4,0
   1c214:	00100593          	li	a1,1
   1c218:	00048693          	mv	a3,s1
   1c21c:	f49ff06f          	j	1c164 <_vfiprintf_r+0xc48>
   1c220:	06012423          	sw	zero,104(sp)
   1c224:	004b7813          	andi	a6,s6,4
   1c228:	0e080263          	beqz	a6,1c30c <_vfiprintf_r+0xdf0>
   1c22c:	41940bbb          	subw	s7,s0,s9
   1c230:	0d705e63          	blez	s7,1c30c <_vfiprintf_r+0xdf0>
   1c234:	00048593          	mv	a1,s1
   1c238:	01000713          	li	a4,16
   1c23c:	06812603          	lw	a2,104(sp)
   1c240:	49775a63          	bge	a4,s7,1c6d4 <_vfiprintf_r+0x11b8>
   1c244:	00006e17          	auipc	t3,0x6
   1c248:	87ce0e13          	addi	t3,t3,-1924 # 21ac0 <blanks.4514>
   1c24c:	01000d13          	li	s10,16
   1c250:	00700d93          	li	s11,7
   1c254:	000e0a93          	mv	s5,t3
   1c258:	0180006f          	j	1c270 <_vfiprintf_r+0xd54>
   1c25c:	0026071b          	addiw	a4,a2,2
   1c260:	01058593          	addi	a1,a1,16
   1c264:	00068613          	mv	a2,a3
   1c268:	ff0b8b9b          	addiw	s7,s7,-16
   1c26c:	057d5863          	bge	s10,s7,1c2bc <_vfiprintf_r+0xda0>
   1c270:	0016069b          	addiw	a3,a2,1
   1c274:	01078793          	addi	a5,a5,16
   1c278:	0155b023          	sd	s5,0(a1)
   1c27c:	01a5b423          	sd	s10,8(a1)
   1c280:	06f13823          	sd	a5,112(sp)
   1c284:	06d12423          	sw	a3,104(sp)
   1c288:	fcdddae3          	bge	s11,a3,1c25c <_vfiprintf_r+0xd40>
   1c28c:	06078863          	beqz	a5,1c2fc <_vfiprintf_r+0xde0>
   1c290:	06010613          	addi	a2,sp,96
   1c294:	00090593          	mv	a1,s2
   1c298:	00098513          	mv	a0,s3
   1c29c:	96cff0ef          	jal	ra,1b408 <__sprint_r.part.0>
   1c2a0:	cc051263          	bnez	a0,1b764 <_vfiprintf_r+0x248>
   1c2a4:	06812603          	lw	a2,104(sp)
   1c2a8:	ff0b8b9b          	addiw	s7,s7,-16
   1c2ac:	07013783          	ld	a5,112(sp)
   1c2b0:	00048593          	mv	a1,s1
   1c2b4:	0016071b          	addiw	a4,a2,1
   1c2b8:	fb7d4ce3          	blt	s10,s7,1c270 <_vfiprintf_r+0xd54>
   1c2bc:	000a8e13          	mv	t3,s5
   1c2c0:	017787b3          	add	a5,a5,s7
   1c2c4:	01c5b023          	sd	t3,0(a1)
   1c2c8:	0175b423          	sd	s7,8(a1)
   1c2cc:	06f13823          	sd	a5,112(sp)
   1c2d0:	06e12423          	sw	a4,104(sp)
   1c2d4:	00700613          	li	a2,7
   1c2d8:	f0e65263          	bge	a2,a4,1b9dc <_vfiprintf_r+0x4c0>
   1c2dc:	02078863          	beqz	a5,1c30c <_vfiprintf_r+0xdf0>
   1c2e0:	06010613          	addi	a2,sp,96
   1c2e4:	00090593          	mv	a1,s2
   1c2e8:	00098513          	mv	a0,s3
   1c2ec:	91cff0ef          	jal	ra,1b408 <__sprint_r.part.0>
   1c2f0:	c6051a63          	bnez	a0,1b764 <_vfiprintf_r+0x248>
   1c2f4:	07013783          	ld	a5,112(sp)
   1c2f8:	ee4ff06f          	j	1b9dc <_vfiprintf_r+0x4c0>
   1c2fc:	00100713          	li	a4,1
   1c300:	00000613          	li	a2,0
   1c304:	00048593          	mv	a1,s1
   1c308:	f61ff06f          	j	1c268 <_vfiprintf_r+0xd4c>
   1c30c:	00040793          	mv	a5,s0
   1c310:	01945463          	bge	s0,s9,1c318 <_vfiprintf_r+0xdfc>
   1c314:	000c8793          	mv	a5,s9
   1c318:	00013703          	ld	a4,0(sp)
   1c31c:	00e787bb          	addw	a5,a5,a4
   1c320:	00f13023          	sd	a5,0(sp)
   1c324:	ed4ff06f          	j	1b9f8 <_vfiprintf_r+0x4dc>
   1c328:	10078e63          	beqz	a5,1c444 <_vfiprintf_r+0xf28>
   1c32c:	06010613          	addi	a2,sp,96
   1c330:	00090593          	mv	a1,s2
   1c334:	00098513          	mv	a0,s3
   1c338:	8d0ff0ef          	jal	ra,1b408 <__sprint_r.part.0>
   1c33c:	c2051463          	bnez	a0,1b764 <_vfiprintf_r+0x248>
   1c340:	06812603          	lw	a2,104(sp)
   1c344:	07013783          	ld	a5,112(sp)
   1c348:	0f010593          	addi	a1,sp,240
   1c34c:	0016061b          	addiw	a2,a2,1
   1c350:	00048b93          	mv	s7,s1
   1c354:	e38ff06f          	j	1b98c <_vfiprintf_r+0x470>
   1c358:	06012423          	sw	zero,104(sp)
   1c35c:	00048b93          	mv	s7,s1
   1c360:	b24ff06f          	j	1b684 <_vfiprintf_r+0x168>
   1c364:	340a9663          	bnez	s5,1c6b0 <_vfiprintf_r+0x1194>
   1c368:	00000a93          	li	s5,0
   1c36c:	00013423          	sd	zero,8(sp)
   1c370:	0dc10d13          	addi	s10,sp,220
   1c374:	cbcff06f          	j	1b830 <_vfiprintf_r+0x314>
   1c378:	0f010593          	addi	a1,sp,240
   1c37c:	00100613          	li	a2,1
   1c380:	00000713          	li	a4,0
   1c384:	00048b93          	mv	s7,s1
   1c388:	df0ff06f          	j	1b978 <_vfiprintf_r+0x45c>
   1c38c:	000c0c93          	mv	s9,s8
   1c390:	b08ff06f          	j	1b698 <_vfiprintf_r+0x17c>
   1c394:	00000713          	li	a4,0
   1c398:	0f010593          	addi	a1,sp,240
   1c39c:	00100613          	li	a2,1
   1c3a0:	00048b93          	mv	s7,s1
   1c3a4:	dd4ff06f          	j	1b978 <_vfiprintf_r+0x45c>
   1c3a8:	03000793          	li	a5,48
   1c3ac:	0cf10da3          	sb	a5,219(sp)
   1c3b0:	0db10d13          	addi	s10,sp,219
   1c3b4:	c7cff06f          	j	1b830 <_vfiprintf_r+0x314>
   1c3b8:	06010613          	addi	a2,sp,96
   1c3bc:	00090593          	mv	a1,s2
   1c3c0:	00098513          	mv	a0,s3
   1c3c4:	05e13423          	sd	t5,72(sp)
   1c3c8:	03d13023          	sd	t4,32(sp)
   1c3cc:	83cff0ef          	jal	ra,1b408 <__sprint_r.part.0>
   1c3d0:	b8051a63          	bnez	a0,1b764 <_vfiprintf_r+0x248>
   1c3d4:	06812703          	lw	a4,104(sp)
   1c3d8:	07013783          	ld	a5,112(sp)
   1c3dc:	00048b93          	mv	s7,s1
   1c3e0:	0017061b          	addiw	a2,a4,1
   1c3e4:	04813f03          	ld	t5,72(sp)
   1c3e8:	02013e83          	ld	t4,32(sp)
   1c3ec:	cf0ff06f          	j	1b8dc <_vfiprintf_r+0x3c0>
   1c3f0:	0015061b          	addiw	a2,a0,1
   1c3f4:	010e8593          	addi	a1,t4,16
   1c3f8:	00050713          	mv	a4,a0
   1c3fc:	000e8b93          	mv	s7,t4
   1c400:	d80ff06f          	j	1b980 <_vfiprintf_r+0x464>
   1c404:	000b0813          	mv	a6,s6
   1c408:	f80ff06f          	j	1bb88 <_vfiprintf_r+0x66c>
   1c40c:	000b0c93          	mv	s9,s6
   1c410:	805ff06f          	j	1bc14 <_vfiprintf_r+0x6f8>
   1c414:	01013783          	ld	a5,16(sp)
   1c418:	0007bd83          	ld	s11,0(a5)
   1c41c:	bb4ff06f          	j	1b7d0 <_vfiprintf_r+0x2b4>
   1c420:	000b0c93          	mv	s9,s6
   1c424:	f90ff06f          	j	1bbb4 <_vfiprintf_r+0x698>
   1c428:	000d0513          	mv	a0,s10
   1c42c:	f28fc0ef          	jal	ra,18b54 <strlen>
   1c430:	0005079b          	sext.w	a5,a0
   1c434:	00f13423          	sd	a5,8(sp)
   1c438:	01b13823          	sd	s11,16(sp)
   1c43c:	00000a93          	li	s5,0
   1c440:	bf0ff06f          	j	1b830 <_vfiprintf_r+0x314>
   1c444:	00813783          	ld	a5,8(sp)
   1c448:	00100713          	li	a4,1
   1c44c:	0fa13023          	sd	s10,224(sp)
   1c450:	0ef13423          	sd	a5,232(sp)
   1c454:	06f13823          	sd	a5,112(sp)
   1c458:	06e12423          	sw	a4,104(sp)
   1c45c:	0f010593          	addi	a1,sp,240
   1c460:	d6cff06f          	j	1b9cc <_vfiprintf_r+0x4b0>
   1c464:	400cfd13          	andi	s10,s9,1024
   1c468:	000d079b          	sext.w	a5,s10
   1c46c:	00813423          	sd	s0,8(sp)
   1c470:	02813403          	ld	s0,40(sp)
   1c474:	0dc10d13          	addi	s10,sp,220
   1c478:	03313023          	sd	s3,32(sp)
   1c47c:	000d8993          	mv	s3,s11
   1c480:	00078d93          	mv	s11,a5
   1c484:	000c0793          	mv	a5,s8
   1c488:	00000b13          	li	s6,0
   1c48c:	00090c13          	mv	s8,s2
   1c490:	000d0913          	mv	s2,s10
   1c494:	00078d13          	mv	s10,a5
   1c498:	00a00593          	li	a1,10
   1c49c:	00098513          	mv	a0,s3
   1c4a0:	439040ef          	jal	ra,210d8 <__umoddi3>
   1c4a4:	0305051b          	addiw	a0,a0,48
   1c4a8:	fea90fa3          	sb	a0,-1(s2)
   1c4ac:	001b0b1b          	addiw	s6,s6,1
   1c4b0:	fff90913          	addi	s2,s2,-1
   1c4b4:	000d8663          	beqz	s11,1c4c0 <_vfiprintf_r+0xfa4>
   1c4b8:	00044683          	lbu	a3,0(s0)
   1c4bc:	05668863          	beq	a3,s6,1c50c <_vfiprintf_r+0xff0>
   1c4c0:	00a00593          	li	a1,10
   1c4c4:	00098513          	mv	a0,s3
   1c4c8:	3c9040ef          	jal	ra,21090 <__udivdi3>
   1c4cc:	00900793          	li	a5,9
   1c4d0:	0137f663          	bgeu	a5,s3,1c4dc <_vfiprintf_r+0xfc0>
   1c4d4:	00050993          	mv	s3,a0
   1c4d8:	fc1ff06f          	j	1c498 <_vfiprintf_r+0xf7c>
   1c4dc:	000d0793          	mv	a5,s10
   1c4e0:	00090d13          	mv	s10,s2
   1c4e4:	000c0913          	mv	s2,s8
   1c4e8:	00078c13          	mv	s8,a5
   1c4ec:	0dc10793          	addi	a5,sp,220
   1c4f0:	41a787bb          	subw	a5,a5,s10
   1c4f4:	02813423          	sd	s0,40(sp)
   1c4f8:	02013983          	ld	s3,32(sp)
   1c4fc:	00813403          	ld	s0,8(sp)
   1c500:	000c8b13          	mv	s6,s9
   1c504:	00f13423          	sd	a5,8(sp)
   1c508:	b28ff06f          	j	1b830 <_vfiprintf_r+0x314>
   1c50c:	0ff00793          	li	a5,255
   1c510:	faf688e3          	beq	a3,a5,1c4c0 <_vfiprintf_r+0xfa4>
   1c514:	00900793          	li	a5,9
   1c518:	fd37f2e3          	bgeu	a5,s3,1c4dc <_vfiprintf_r+0xfc0>
   1c51c:	03813783          	ld	a5,56(sp)
   1c520:	03013583          	ld	a1,48(sp)
   1c524:	00000b13          	li	s6,0
   1c528:	40f90933          	sub	s2,s2,a5
   1c52c:	00078613          	mv	a2,a5
   1c530:	00090513          	mv	a0,s2
   1c534:	ef0fc0ef          	jal	ra,18c24 <strncpy>
   1c538:	00144683          	lbu	a3,1(s0)
   1c53c:	00098513          	mv	a0,s3
   1c540:	00a00593          	li	a1,10
   1c544:	00d03733          	snez	a4,a3
   1c548:	00e40433          	add	s0,s0,a4
   1c54c:	345040ef          	jal	ra,21090 <__udivdi3>
   1c550:	00050993          	mv	s3,a0
   1c554:	f45ff06f          	j	1c498 <_vfiprintf_r+0xf7c>
   1c558:	200b6b13          	ori	s6,s6,512
   1c55c:	001c4703          	lbu	a4,1(s8)
   1c560:	000b0b1b          	sext.w	s6,s6
   1c564:	001c0c13          	addi	s8,s8,1
   1c568:	950ff06f          	j	1b6b8 <_vfiprintf_r+0x19c>
   1c56c:	020b6b13          	ori	s6,s6,32
   1c570:	001c4703          	lbu	a4,1(s8)
   1c574:	000b0b1b          	sext.w	s6,s6
   1c578:	001c0c13          	addi	s8,s8,1
   1c57c:	93cff06f          	j	1b6b8 <_vfiprintf_r+0x19c>
   1c580:	000a871b          	sext.w	a4,s5
   1c584:	00600793          	li	a5,6
   1c588:	000a8693          	mv	a3,s5
   1c58c:	0ae7e863          	bltu	a5,a4,1c63c <_vfiprintf_r+0x1120>
   1c590:	0006879b          	sext.w	a5,a3
   1c594:	00f13423          	sd	a5,8(sp)
   1c598:	00078c93          	mv	s9,a5
   1c59c:	01b13823          	sd	s11,16(sp)
   1c5a0:	00005d17          	auipc	s10,0x5
   1c5a4:	e30d0d13          	addi	s10,s10,-464 # 213d0 <zeroes.4539+0x98>
   1c5a8:	b00ff06f          	j	1b8a8 <_vfiprintf_r+0x38c>
   1c5ac:	200b7793          	andi	a5,s6,512
   1c5b0:	0ffe7d93          	andi	s11,t3,255
   1c5b4:	a0079e63          	bnez	a5,1b7d0 <_vfiprintf_r+0x2b4>
   1c5b8:	020e1d93          	slli	s11,t3,0x20
   1c5bc:	020ddd93          	srli	s11,s11,0x20
   1c5c0:	a10ff06f          	j	1b7d0 <_vfiprintf_r+0x2b4>
   1c5c4:	200b7793          	andi	a5,s6,512
   1c5c8:	0c078863          	beqz	a5,1c698 <_vfiprintf_r+0x117c>
   1c5cc:	01013783          	ld	a5,16(sp)
   1c5d0:	000b0c93          	mv	s9,s6
   1c5d4:	00e13823          	sd	a4,16(sp)
   1c5d8:	00078d83          	lb	s11,0(a5)
   1c5dc:	000d8793          	mv	a5,s11
   1c5e0:	de4ff06f          	j	1bbc4 <_vfiprintf_r+0x6a8>
   1c5e4:	200b7713          	andi	a4,s6,512
   1c5e8:	08070e63          	beqz	a4,1c684 <_vfiprintf_r+0x1168>
   1c5ec:	0ffe7d93          	andi	s11,t3,255
   1c5f0:	000b0813          	mv	a6,s6
   1c5f4:	00f13823          	sd	a5,16(sp)
   1c5f8:	d9cff06f          	j	1bb94 <_vfiprintf_r+0x678>
   1c5fc:	200b7793          	andi	a5,s6,512
   1c600:	06078663          	beqz	a5,1c66c <_vfiprintf_r+0x1150>
   1c604:	0ffe7d93          	andi	s11,t3,255
   1c608:	00e13823          	sd	a4,16(sp)
   1c60c:	000b0c93          	mv	s9,s6
   1c610:	00100793          	li	a5,1
   1c614:	9ecff06f          	j	1b800 <_vfiprintf_r+0x2e4>
   1c618:	00058513          	mv	a0,a1
   1c61c:	00005e17          	auipc	t3,0x5
   1c620:	4b4e0e13          	addi	t3,t3,1204 # 21ad0 <zeroes.4515>
   1c624:	a11ff06f          	j	1c034 <_vfiprintf_r+0xb18>
   1c628:	0f010593          	addi	a1,sp,240
   1c62c:	00100613          	li	a2,1
   1c630:	00000713          	li	a4,0
   1c634:	00048b93          	mv	s7,s1
   1c638:	b48ff06f          	j	1b980 <_vfiprintf_r+0x464>
   1c63c:	00600693          	li	a3,6
   1c640:	f51ff06f          	j	1c590 <_vfiprintf_r+0x1074>
   1c644:	05710793          	addi	a5,sp,87
   1c648:	0ef13023          	sd	a5,224(sp)
   1c64c:	00100793          	li	a5,1
   1c650:	0ef13423          	sd	a5,232(sp)
   1c654:	00100613          	li	a2,1
   1c658:	0f010593          	addi	a1,sp,240
   1c65c:	ab0ff06f          	j	1b90c <_vfiprintf_r+0x3f0>
   1c660:	00013783          	ld	a5,0(sp)
   1c664:	00f71023          	sh	a5,0(a4)
   1c668:	fa1fe06f          	j	1b608 <_vfiprintf_r+0xec>
   1c66c:	020e1d93          	slli	s11,t3,0x20
   1c670:	020ddd93          	srli	s11,s11,0x20
   1c674:	00e13823          	sd	a4,16(sp)
   1c678:	000b0c93          	mv	s9,s6
   1c67c:	00100793          	li	a5,1
   1c680:	980ff06f          	j	1b800 <_vfiprintf_r+0x2e4>
   1c684:	020e1d93          	slli	s11,t3,0x20
   1c688:	020ddd93          	srli	s11,s11,0x20
   1c68c:	000b0813          	mv	a6,s6
   1c690:	00f13823          	sd	a5,16(sp)
   1c694:	d00ff06f          	j	1bb94 <_vfiprintf_r+0x678>
   1c698:	01013783          	ld	a5,16(sp)
   1c69c:	000b0c93          	mv	s9,s6
   1c6a0:	00e13823          	sd	a4,16(sp)
   1c6a4:	0007ad83          	lw	s11,0(a5)
   1c6a8:	000d8793          	mv	a5,s11
   1c6ac:	d18ff06f          	j	1bbc4 <_vfiprintf_r+0x6a8>
   1c6b0:	000b0c93          	mv	s9,s6
   1c6b4:	d34ff06f          	j	1bbe8 <_vfiprintf_r+0x6cc>
   1c6b8:	01513423          	sd	s5,8(sp)
   1c6bc:	01b13823          	sd	s11,16(sp)
   1c6c0:	00000a93          	li	s5,0
   1c6c4:	96cff06f          	j	1b830 <_vfiprintf_r+0x314>
   1c6c8:	00005e17          	auipc	t3,0x5
   1c6cc:	3f8e0e13          	addi	t3,t3,1016 # 21ac0 <blanks.4514>
   1c6d0:	b15ff06f          	j	1c1e4 <_vfiprintf_r+0xcc8>
   1c6d4:	0016071b          	addiw	a4,a2,1
   1c6d8:	00005e17          	auipc	t3,0x5
   1c6dc:	3e8e0e13          	addi	t3,t3,1000 # 21ac0 <blanks.4514>
   1c6e0:	be1ff06f          	j	1c2c0 <_vfiprintf_r+0xda4>
   1c6e4:	fff00793          	li	a5,-1
   1c6e8:	00f13023          	sd	a5,0(sp)
   1c6ec:	884ff06f          	j	1b770 <_vfiprintf_r+0x254>
   1c6f0:	00058e93          	mv	t4,a1
   1c6f4:	00060513          	mv	a0,a2
   1c6f8:	00005e17          	auipc	t3,0x5
   1c6fc:	3d8e0e13          	addi	t3,t3,984 # 21ad0 <zeroes.4515>
   1c700:	84dff06f          	j	1bf4c <_vfiprintf_r+0xa30>
   1c704:	00f72023          	sw	a5,0(a4)
   1c708:	f01fe06f          	j	1b608 <_vfiprintf_r+0xec>
   1c70c:	01013703          	ld	a4,16(sp)
   1c710:	00072a83          	lw	s5,0(a4)
   1c714:	00870693          	addi	a3,a4,8
   1c718:	000ad463          	bgez	s5,1c720 <_vfiprintf_r+0x1204>
   1c71c:	fff00a93          	li	s5,-1
   1c720:	001c4703          	lbu	a4,1(s8)
   1c724:	00d13823          	sd	a3,16(sp)
   1c728:	00078c13          	mv	s8,a5
   1c72c:	f8dfe06f          	j	1b6b8 <_vfiprintf_r+0x19c>

000000000001c730 <vfiprintf>:
   1c730:	75818793          	addi	a5,gp,1880 # 23160 <_impure_ptr>
   1c734:	00060693          	mv	a3,a2
   1c738:	00058613          	mv	a2,a1
   1c73c:	00050593          	mv	a1,a0
   1c740:	0007b503          	ld	a0,0(a5)
   1c744:	dd9fe06f          	j	1b51c <_vfiprintf_r>

000000000001c748 <__sbprintf>:
   1c748:	0105d783          	lhu	a5,16(a1)
   1c74c:	0ac5ae03          	lw	t3,172(a1)
   1c750:	0125d303          	lhu	t1,18(a1)
   1c754:	0305b883          	ld	a7,48(a1)
   1c758:	0405b803          	ld	a6,64(a1)
   1c75c:	b3010113          	addi	sp,sp,-1232
   1c760:	ffd7f793          	andi	a5,a5,-3
   1c764:	40000713          	li	a4,1024
   1c768:	4c813023          	sd	s0,1216(sp)
   1c76c:	00f11823          	sh	a5,16(sp)
   1c770:	00058413          	mv	s0,a1
   1c774:	0b010793          	addi	a5,sp,176
   1c778:	00010593          	mv	a1,sp
   1c77c:	4a913c23          	sd	s1,1208(sp)
   1c780:	4b213823          	sd	s2,1200(sp)
   1c784:	4c113423          	sd	ra,1224(sp)
   1c788:	00050913          	mv	s2,a0
   1c78c:	0bc12623          	sw	t3,172(sp)
   1c790:	00611923          	sh	t1,18(sp)
   1c794:	03113823          	sd	a7,48(sp)
   1c798:	05013023          	sd	a6,64(sp)
   1c79c:	00f13023          	sd	a5,0(sp)
   1c7a0:	00f13c23          	sd	a5,24(sp)
   1c7a4:	00e12623          	sw	a4,12(sp)
   1c7a8:	02e12023          	sw	a4,32(sp)
   1c7ac:	02012423          	sw	zero,40(sp)
   1c7b0:	d6dfe0ef          	jal	ra,1b51c <_vfiprintf_r>
   1c7b4:	00050493          	mv	s1,a0
   1c7b8:	02055c63          	bgez	a0,1c7f0 <__sbprintf+0xa8>
   1c7bc:	01015783          	lhu	a5,16(sp)
   1c7c0:	0407f793          	andi	a5,a5,64
   1c7c4:	00078863          	beqz	a5,1c7d4 <__sbprintf+0x8c>
   1c7c8:	01045783          	lhu	a5,16(s0)
   1c7cc:	0407e793          	ori	a5,a5,64
   1c7d0:	00f41823          	sh	a5,16(s0)
   1c7d4:	4c813083          	ld	ra,1224(sp)
   1c7d8:	4c013403          	ld	s0,1216(sp)
   1c7dc:	00048513          	mv	a0,s1
   1c7e0:	4b013903          	ld	s2,1200(sp)
   1c7e4:	4b813483          	ld	s1,1208(sp)
   1c7e8:	4d010113          	addi	sp,sp,1232
   1c7ec:	00008067          	ret
   1c7f0:	00010593          	mv	a1,sp
   1c7f4:	00090513          	mv	a0,s2
   1c7f8:	a3df60ef          	jal	ra,13234 <_fflush_r>
   1c7fc:	fc0500e3          	beqz	a0,1c7bc <__sbprintf+0x74>
   1c800:	fff00493          	li	s1,-1
   1c804:	fb9ff06f          	j	1c7bc <__sbprintf+0x74>

000000000001c808 <_wctomb_r>:
   1c808:	d6018793          	addi	a5,gp,-672 # 22768 <__global_locale>
   1c80c:	0e07b303          	ld	t1,224(a5)
   1c810:	00030067          	jr	t1

000000000001c814 <__ascii_wctomb>:
   1c814:	0006079b          	sext.w	a5,a2
   1c818:	02058463          	beqz	a1,1c840 <__ascii_wctomb+0x2c>
   1c81c:	0ff00713          	li	a4,255
   1c820:	00f76863          	bltu	a4,a5,1c830 <__ascii_wctomb+0x1c>
   1c824:	00c58023          	sb	a2,0(a1)
   1c828:	00100513          	li	a0,1
   1c82c:	00008067          	ret
   1c830:	08a00793          	li	a5,138
   1c834:	00f52023          	sw	a5,0(a0)
   1c838:	fff00513          	li	a0,-1
   1c83c:	00008067          	ret
   1c840:	00000513          	li	a0,0
   1c844:	00008067          	ret

000000000001c848 <_write_r>:
   1c848:	00058793          	mv	a5,a1
   1c84c:	ff010113          	addi	sp,sp,-16
   1c850:	00813023          	sd	s0,0(sp)
   1c854:	00060593          	mv	a1,a2
   1c858:	00050413          	mv	s0,a0
   1c85c:	00068613          	mv	a2,a3
   1c860:	00078513          	mv	a0,a5
   1c864:	00113423          	sd	ra,8(sp)
   1c868:	00007797          	auipc	a5,0x7
   1c86c:	9807ac23          	sw	zero,-1640(a5) # 23200 <errno>
   1c870:	30d020ef          	jal	ra,1f37c <_write>
   1c874:	fff00793          	li	a5,-1
   1c878:	00f50a63          	beq	a0,a5,1c88c <_write_r+0x44>
   1c87c:	00813083          	ld	ra,8(sp)
   1c880:	00013403          	ld	s0,0(sp)
   1c884:	01010113          	addi	sp,sp,16
   1c888:	00008067          	ret
   1c88c:	00007797          	auipc	a5,0x7
   1c890:	97478793          	addi	a5,a5,-1676 # 23200 <errno>
   1c894:	0007a783          	lw	a5,0(a5)
   1c898:	fe0782e3          	beqz	a5,1c87c <_write_r+0x34>
   1c89c:	00f42023          	sw	a5,0(s0)
   1c8a0:	00813083          	ld	ra,8(sp)
   1c8a4:	00013403          	ld	s0,0(sp)
   1c8a8:	01010113          	addi	sp,sp,16
   1c8ac:	00008067          	ret

000000000001c8b0 <_calloc_r>:
   1c8b0:	ff010113          	addi	sp,sp,-16
   1c8b4:	00058793          	mv	a5,a1
   1c8b8:	00813023          	sd	s0,0(sp)
   1c8bc:	00060593          	mv	a1,a2
   1c8c0:	00050413          	mv	s0,a0
   1c8c4:	00078513          	mv	a0,a5
   1c8c8:	00113423          	sd	ra,8(sp)
   1c8cc:	758040ef          	jal	ra,21024 <__muldi3>
   1c8d0:	00050593          	mv	a1,a0
   1c8d4:	00040513          	mv	a0,s0
   1c8d8:	9dcfa0ef          	jal	ra,16ab4 <_malloc_r>
   1c8dc:	00050413          	mv	s0,a0
   1c8e0:	02050863          	beqz	a0,1c910 <_calloc_r+0x60>
   1c8e4:	ff853603          	ld	a2,-8(a0)
   1c8e8:	04800713          	li	a4,72
   1c8ec:	ffc67613          	andi	a2,a2,-4
   1c8f0:	ff860613          	addi	a2,a2,-8
   1c8f4:	06c76063          	bltu	a4,a2,1c954 <_calloc_r+0xa4>
   1c8f8:	02700693          	li	a3,39
   1c8fc:	00050793          	mv	a5,a0
   1c900:	02c6e263          	bltu	a3,a2,1c924 <_calloc_r+0x74>
   1c904:	0007b023          	sd	zero,0(a5)
   1c908:	0007b423          	sd	zero,8(a5)
   1c90c:	0007b823          	sd	zero,16(a5)
   1c910:	00040513          	mv	a0,s0
   1c914:	00813083          	ld	ra,8(sp)
   1c918:	00013403          	ld	s0,0(sp)
   1c91c:	01010113          	addi	sp,sp,16
   1c920:	00008067          	ret
   1c924:	00053023          	sd	zero,0(a0)
   1c928:	00053423          	sd	zero,8(a0)
   1c92c:	03700793          	li	a5,55
   1c930:	04c7f063          	bgeu	a5,a2,1c970 <_calloc_r+0xc0>
   1c934:	00053823          	sd	zero,16(a0)
   1c938:	00053c23          	sd	zero,24(a0)
   1c93c:	02050793          	addi	a5,a0,32
   1c940:	fce612e3          	bne	a2,a4,1c904 <_calloc_r+0x54>
   1c944:	02053023          	sd	zero,32(a0)
   1c948:	03050793          	addi	a5,a0,48
   1c94c:	02053423          	sd	zero,40(a0)
   1c950:	fb5ff06f          	j	1c904 <_calloc_r+0x54>
   1c954:	00000593          	li	a1,0
   1c958:	9a1f30ef          	jal	ra,102f8 <memset>
   1c95c:	00040513          	mv	a0,s0
   1c960:	00813083          	ld	ra,8(sp)
   1c964:	00013403          	ld	s0,0(sp)
   1c968:	01010113          	addi	sp,sp,16
   1c96c:	00008067          	ret
   1c970:	01050793          	addi	a5,a0,16
   1c974:	f91ff06f          	j	1c904 <_calloc_r+0x54>

000000000001c978 <_close_r>:
   1c978:	ff010113          	addi	sp,sp,-16
   1c97c:	00813023          	sd	s0,0(sp)
   1c980:	00050413          	mv	s0,a0
   1c984:	00058513          	mv	a0,a1
   1c988:	00007797          	auipc	a5,0x7
   1c98c:	8607ac23          	sw	zero,-1928(a5) # 23200 <errno>
   1c990:	00113423          	sd	ra,8(sp)
   1c994:	758020ef          	jal	ra,1f0ec <_close>
   1c998:	fff00793          	li	a5,-1
   1c99c:	00f50a63          	beq	a0,a5,1c9b0 <_close_r+0x38>
   1c9a0:	00813083          	ld	ra,8(sp)
   1c9a4:	00013403          	ld	s0,0(sp)
   1c9a8:	01010113          	addi	sp,sp,16
   1c9ac:	00008067          	ret
   1c9b0:	00007797          	auipc	a5,0x7
   1c9b4:	85078793          	addi	a5,a5,-1968 # 23200 <errno>
   1c9b8:	0007a783          	lw	a5,0(a5)
   1c9bc:	fe0782e3          	beqz	a5,1c9a0 <_close_r+0x28>
   1c9c0:	00f42023          	sw	a5,0(s0)
   1c9c4:	00813083          	ld	ra,8(sp)
   1c9c8:	00013403          	ld	s0,0(sp)
   1c9cc:	01010113          	addi	sp,sp,16
   1c9d0:	00008067          	ret

000000000001c9d4 <_fclose_r>:
   1c9d4:	fe010113          	addi	sp,sp,-32
   1c9d8:	00113c23          	sd	ra,24(sp)
   1c9dc:	00813823          	sd	s0,16(sp)
   1c9e0:	00913423          	sd	s1,8(sp)
   1c9e4:	01213023          	sd	s2,0(sp)
   1c9e8:	02058063          	beqz	a1,1ca08 <_fclose_r+0x34>
   1c9ec:	00050493          	mv	s1,a0
   1c9f0:	00058413          	mv	s0,a1
   1c9f4:	00050663          	beqz	a0,1ca00 <_fclose_r+0x2c>
   1c9f8:	05052783          	lw	a5,80(a0)
   1c9fc:	0a078c63          	beqz	a5,1cab4 <_fclose_r+0xe0>
   1ca00:	01041783          	lh	a5,16(s0)
   1ca04:	02079263          	bnez	a5,1ca28 <_fclose_r+0x54>
   1ca08:	01813083          	ld	ra,24(sp)
   1ca0c:	01013403          	ld	s0,16(sp)
   1ca10:	00000913          	li	s2,0
   1ca14:	00090513          	mv	a0,s2
   1ca18:	00813483          	ld	s1,8(sp)
   1ca1c:	00013903          	ld	s2,0(sp)
   1ca20:	02010113          	addi	sp,sp,32
   1ca24:	00008067          	ret
   1ca28:	00040593          	mv	a1,s0
   1ca2c:	00048513          	mv	a0,s1
   1ca30:	da8f60ef          	jal	ra,12fd8 <__sflush_r>
   1ca34:	05043783          	ld	a5,80(s0)
   1ca38:	00050913          	mv	s2,a0
   1ca3c:	00078a63          	beqz	a5,1ca50 <_fclose_r+0x7c>
   1ca40:	03043583          	ld	a1,48(s0)
   1ca44:	00048513          	mv	a0,s1
   1ca48:	000780e7          	jalr	a5
   1ca4c:	06054c63          	bltz	a0,1cac4 <_fclose_r+0xf0>
   1ca50:	01045783          	lhu	a5,16(s0)
   1ca54:	0807f793          	andi	a5,a5,128
   1ca58:	06079e63          	bnez	a5,1cad4 <_fclose_r+0x100>
   1ca5c:	05843583          	ld	a1,88(s0)
   1ca60:	00058c63          	beqz	a1,1ca78 <_fclose_r+0xa4>
   1ca64:	07440793          	addi	a5,s0,116
   1ca68:	00f58663          	beq	a1,a5,1ca74 <_fclose_r+0xa0>
   1ca6c:	00048513          	mv	a0,s1
   1ca70:	cedf60ef          	jal	ra,1375c <_free_r>
   1ca74:	04043c23          	sd	zero,88(s0)
   1ca78:	07843583          	ld	a1,120(s0)
   1ca7c:	00058863          	beqz	a1,1ca8c <_fclose_r+0xb8>
   1ca80:	00048513          	mv	a0,s1
   1ca84:	cd9f60ef          	jal	ra,1375c <_free_r>
   1ca88:	06043c23          	sd	zero,120(s0)
   1ca8c:	b61f60ef          	jal	ra,135ec <__sfp_lock_acquire>
   1ca90:	00041823          	sh	zero,16(s0)
   1ca94:	b5df60ef          	jal	ra,135f0 <__sfp_lock_release>
   1ca98:	01813083          	ld	ra,24(sp)
   1ca9c:	01013403          	ld	s0,16(sp)
   1caa0:	00090513          	mv	a0,s2
   1caa4:	00813483          	ld	s1,8(sp)
   1caa8:	00013903          	ld	s2,0(sp)
   1caac:	02010113          	addi	sp,sp,32
   1cab0:	00008067          	ret
   1cab4:	b29f60ef          	jal	ra,135dc <__sinit>
   1cab8:	01041783          	lh	a5,16(s0)
   1cabc:	f40786e3          	beqz	a5,1ca08 <_fclose_r+0x34>
   1cac0:	f69ff06f          	j	1ca28 <_fclose_r+0x54>
   1cac4:	01045783          	lhu	a5,16(s0)
   1cac8:	fff00913          	li	s2,-1
   1cacc:	0807f793          	andi	a5,a5,128
   1cad0:	f80786e3          	beqz	a5,1ca5c <_fclose_r+0x88>
   1cad4:	01843583          	ld	a1,24(s0)
   1cad8:	00048513          	mv	a0,s1
   1cadc:	c81f60ef          	jal	ra,1375c <_free_r>
   1cae0:	f7dff06f          	j	1ca5c <_fclose_r+0x88>

000000000001cae4 <fclose>:
   1cae4:	75818793          	addi	a5,gp,1880 # 23160 <_impure_ptr>
   1cae8:	00050593          	mv	a1,a0
   1caec:	0007b503          	ld	a0,0(a5)
   1caf0:	ee5ff06f          	j	1c9d4 <_fclose_r>

000000000001caf4 <__fputwc>:
   1caf4:	fb010113          	addi	sp,sp,-80
   1caf8:	04813023          	sd	s0,64(sp)
   1cafc:	03213823          	sd	s2,48(sp)
   1cb00:	03313423          	sd	s3,40(sp)
   1cb04:	04113423          	sd	ra,72(sp)
   1cb08:	02913c23          	sd	s1,56(sp)
   1cb0c:	03413023          	sd	s4,32(sp)
   1cb10:	01513c23          	sd	s5,24(sp)
   1cb14:	01613823          	sd	s6,16(sp)
   1cb18:	00050913          	mv	s2,a0
   1cb1c:	00058993          	mv	s3,a1
   1cb20:	00060413          	mv	s0,a2
   1cb24:	d85f90ef          	jal	ra,168a8 <__locale_mb_cur_max>
   1cb28:	00100793          	li	a5,1
   1cb2c:	02f51063          	bne	a0,a5,1cb4c <__fputwc+0x58>
   1cb30:	fff9879b          	addiw	a5,s3,-1
   1cb34:	0fe00713          	li	a4,254
   1cb38:	00f76a63          	bltu	a4,a5,1cb4c <__fputwc+0x58>
   1cb3c:	0ff9f713          	andi	a4,s3,255
   1cb40:	00e10423          	sb	a4,8(sp)
   1cb44:	00100a93          	li	s5,1
   1cb48:	02c0006f          	j	1cb74 <__fputwc+0x80>
   1cb4c:	0a440693          	addi	a3,s0,164
   1cb50:	00098613          	mv	a2,s3
   1cb54:	00810593          	addi	a1,sp,8
   1cb58:	00090513          	mv	a0,s2
   1cb5c:	488020ef          	jal	ra,1efe4 <_wcrtomb_r>
   1cb60:	fff00793          	li	a5,-1
   1cb64:	00050a93          	mv	s5,a0
   1cb68:	0af50263          	beq	a0,a5,1cc0c <__fputwc+0x118>
   1cb6c:	08050c63          	beqz	a0,1cc04 <__fputwc+0x110>
   1cb70:	00814703          	lbu	a4,8(sp)
   1cb74:	00000493          	li	s1,0
   1cb78:	fff00a13          	li	s4,-1
   1cb7c:	00a00b13          	li	s6,10
   1cb80:	0280006f          	j	1cba8 <__fputwc+0xb4>
   1cb84:	00043783          	ld	a5,0(s0)
   1cb88:	00178693          	addi	a3,a5,1
   1cb8c:	00d43023          	sd	a3,0(s0)
   1cb90:	00e78023          	sb	a4,0(a5)
   1cb94:	00148493          	addi	s1,s1,1
   1cb98:	00810793          	addi	a5,sp,8
   1cb9c:	009787b3          	add	a5,a5,s1
   1cba0:	0754f263          	bgeu	s1,s5,1cc04 <__fputwc+0x110>
   1cba4:	0007c703          	lbu	a4,0(a5)
   1cba8:	00c42783          	lw	a5,12(s0)
   1cbac:	fff7879b          	addiw	a5,a5,-1
   1cbb0:	00f42623          	sw	a5,12(s0)
   1cbb4:	fc07d8e3          	bgez	a5,1cb84 <__fputwc+0x90>
   1cbb8:	02842683          	lw	a3,40(s0)
   1cbbc:	00070593          	mv	a1,a4
   1cbc0:	00040613          	mv	a2,s0
   1cbc4:	00090513          	mv	a0,s2
   1cbc8:	00d7c463          	blt	a5,a3,1cbd0 <__fputwc+0xdc>
   1cbcc:	fb671ce3          	bne	a4,s6,1cb84 <__fputwc+0x90>
   1cbd0:	27c020ef          	jal	ra,1ee4c <__swbuf_r>
   1cbd4:	fd4510e3          	bne	a0,s4,1cb94 <__fputwc+0xa0>
   1cbd8:	fff00513          	li	a0,-1
   1cbdc:	04813083          	ld	ra,72(sp)
   1cbe0:	04013403          	ld	s0,64(sp)
   1cbe4:	03813483          	ld	s1,56(sp)
   1cbe8:	03013903          	ld	s2,48(sp)
   1cbec:	02813983          	ld	s3,40(sp)
   1cbf0:	02013a03          	ld	s4,32(sp)
   1cbf4:	01813a83          	ld	s5,24(sp)
   1cbf8:	01013b03          	ld	s6,16(sp)
   1cbfc:	05010113          	addi	sp,sp,80
   1cc00:	00008067          	ret
   1cc04:	0009851b          	sext.w	a0,s3
   1cc08:	fd5ff06f          	j	1cbdc <__fputwc+0xe8>
   1cc0c:	01045783          	lhu	a5,16(s0)
   1cc10:	fff00513          	li	a0,-1
   1cc14:	0407e793          	ori	a5,a5,64
   1cc18:	00f41823          	sh	a5,16(s0)
   1cc1c:	fc1ff06f          	j	1cbdc <__fputwc+0xe8>

000000000001cc20 <_fputwc_r>:
   1cc20:	01061783          	lh	a5,16(a2)
   1cc24:	03279713          	slli	a4,a5,0x32
   1cc28:	02074063          	bltz	a4,1cc48 <_fputwc_r+0x28>
   1cc2c:	0ac62703          	lw	a4,172(a2)
   1cc30:	000026b7          	lui	a3,0x2
   1cc34:	00d7e7b3          	or	a5,a5,a3
   1cc38:	000026b7          	lui	a3,0x2
   1cc3c:	00d76733          	or	a4,a4,a3
   1cc40:	00f61823          	sh	a5,16(a2)
   1cc44:	0ae62623          	sw	a4,172(a2)
   1cc48:	eadff06f          	j	1caf4 <__fputwc>

000000000001cc4c <fputwc>:
   1cc4c:	fd010113          	addi	sp,sp,-48
   1cc50:	75818793          	addi	a5,gp,1880 # 23160 <_impure_ptr>
   1cc54:	02813023          	sd	s0,32(sp)
   1cc58:	0007b403          	ld	s0,0(a5)
   1cc5c:	00913c23          	sd	s1,24(sp)
   1cc60:	02113423          	sd	ra,40(sp)
   1cc64:	00050493          	mv	s1,a0
   1cc68:	00058613          	mv	a2,a1
   1cc6c:	00040663          	beqz	s0,1cc78 <fputwc+0x2c>
   1cc70:	05042783          	lw	a5,80(s0)
   1cc74:	04078463          	beqz	a5,1ccbc <fputwc+0x70>
   1cc78:	01061783          	lh	a5,16(a2)
   1cc7c:	03279713          	slli	a4,a5,0x32
   1cc80:	02074063          	bltz	a4,1cca0 <fputwc+0x54>
   1cc84:	0ac62703          	lw	a4,172(a2)
   1cc88:	000026b7          	lui	a3,0x2
   1cc8c:	00d7e7b3          	or	a5,a5,a3
   1cc90:	000026b7          	lui	a3,0x2
   1cc94:	00d76733          	or	a4,a4,a3
   1cc98:	00f61823          	sh	a5,16(a2)
   1cc9c:	0ae62623          	sw	a4,172(a2)
   1cca0:	00040513          	mv	a0,s0
   1cca4:	02013403          	ld	s0,32(sp)
   1cca8:	02813083          	ld	ra,40(sp)
   1ccac:	00048593          	mv	a1,s1
   1ccb0:	01813483          	ld	s1,24(sp)
   1ccb4:	03010113          	addi	sp,sp,48
   1ccb8:	e3dff06f          	j	1caf4 <__fputwc>
   1ccbc:	00040513          	mv	a0,s0
   1ccc0:	00b13423          	sd	a1,8(sp)
   1ccc4:	919f60ef          	jal	ra,135dc <__sinit>
   1ccc8:	00813603          	ld	a2,8(sp)
   1cccc:	fadff06f          	j	1cc78 <fputwc+0x2c>

000000000001ccd0 <_fstat_r>:
   1ccd0:	00058793          	mv	a5,a1
   1ccd4:	ff010113          	addi	sp,sp,-16
   1ccd8:	00813023          	sd	s0,0(sp)
   1ccdc:	00060593          	mv	a1,a2
   1cce0:	00050413          	mv	s0,a0
   1cce4:	00078513          	mv	a0,a5
   1cce8:	00113423          	sd	ra,8(sp)
   1ccec:	00006797          	auipc	a5,0x6
   1ccf0:	5007aa23          	sw	zero,1300(a5) # 23200 <errno>
   1ccf4:	494020ef          	jal	ra,1f188 <_fstat>
   1ccf8:	fff00793          	li	a5,-1
   1ccfc:	00f50a63          	beq	a0,a5,1cd10 <_fstat_r+0x40>
   1cd00:	00813083          	ld	ra,8(sp)
   1cd04:	00013403          	ld	s0,0(sp)
   1cd08:	01010113          	addi	sp,sp,16
   1cd0c:	00008067          	ret
   1cd10:	00006797          	auipc	a5,0x6
   1cd14:	4f078793          	addi	a5,a5,1264 # 23200 <errno>
   1cd18:	0007a783          	lw	a5,0(a5)
   1cd1c:	fe0782e3          	beqz	a5,1cd00 <_fstat_r+0x30>
   1cd20:	00f42023          	sw	a5,0(s0)
   1cd24:	00813083          	ld	ra,8(sp)
   1cd28:	00013403          	ld	s0,0(sp)
   1cd2c:	01010113          	addi	sp,sp,16
   1cd30:	00008067          	ret

000000000001cd34 <__sfvwrite_r>:
   1cd34:	01063783          	ld	a5,16(a2)
   1cd38:	28078c63          	beqz	a5,1cfd0 <__sfvwrite_r+0x29c>
   1cd3c:	0105d783          	lhu	a5,16(a1)
   1cd40:	fa010113          	addi	sp,sp,-96
   1cd44:	04813823          	sd	s0,80(sp)
   1cd48:	03413823          	sd	s4,48(sp)
   1cd4c:	03513423          	sd	s5,40(sp)
   1cd50:	04113c23          	sd	ra,88(sp)
   1cd54:	04913423          	sd	s1,72(sp)
   1cd58:	05213023          	sd	s2,64(sp)
   1cd5c:	03313c23          	sd	s3,56(sp)
   1cd60:	03613023          	sd	s6,32(sp)
   1cd64:	01713c23          	sd	s7,24(sp)
   1cd68:	01813823          	sd	s8,16(sp)
   1cd6c:	01913423          	sd	s9,8(sp)
   1cd70:	01a13023          	sd	s10,0(sp)
   1cd74:	0087f713          	andi	a4,a5,8
   1cd78:	00058413          	mv	s0,a1
   1cd7c:	00050a93          	mv	s5,a0
   1cd80:	00060a13          	mv	s4,a2
   1cd84:	08070c63          	beqz	a4,1ce1c <__sfvwrite_r+0xe8>
   1cd88:	0185b703          	ld	a4,24(a1)
   1cd8c:	08070863          	beqz	a4,1ce1c <__sfvwrite_r+0xe8>
   1cd90:	0027f713          	andi	a4,a5,2
   1cd94:	000a3903          	ld	s2,0(s4)
   1cd98:	0a070263          	beqz	a4,1ce3c <__sfvwrite_r+0x108>
   1cd9c:	04043703          	ld	a4,64(s0)
   1cda0:	03043783          	ld	a5,48(s0)
   1cda4:	80000b37          	lui	s6,0x80000
   1cda8:	00000993          	li	s3,0
   1cdac:	00000493          	li	s1,0
   1cdb0:	c00b4b13          	xori	s6,s6,-1024
   1cdb4:	00098613          	mv	a2,s3
   1cdb8:	00078593          	mv	a1,a5
   1cdbc:	000a8513          	mv	a0,s5
   1cdc0:	04048663          	beqz	s1,1ce0c <__sfvwrite_r+0xd8>
   1cdc4:	00048693          	mv	a3,s1
   1cdc8:	009b7463          	bgeu	s6,s1,1cdd0 <__sfvwrite_r+0x9c>
   1cdcc:	000b0693          	mv	a3,s6
   1cdd0:	0006869b          	sext.w	a3,a3
   1cdd4:	000700e7          	jalr	a4
   1cdd8:	1ea05263          	blez	a0,1cfbc <__sfvwrite_r+0x288>
   1cddc:	010a3783          	ld	a5,16(s4)
   1cde0:	00a989b3          	add	s3,s3,a0
   1cde4:	40a484b3          	sub	s1,s1,a0
   1cde8:	40a78533          	sub	a0,a5,a0
   1cdec:	00aa3823          	sd	a0,16(s4)
   1cdf0:	18050063          	beqz	a0,1cf70 <__sfvwrite_r+0x23c>
   1cdf4:	03043783          	ld	a5,48(s0)
   1cdf8:	04043703          	ld	a4,64(s0)
   1cdfc:	00098613          	mv	a2,s3
   1ce00:	00078593          	mv	a1,a5
   1ce04:	000a8513          	mv	a0,s5
   1ce08:	fa049ee3          	bnez	s1,1cdc4 <__sfvwrite_r+0x90>
   1ce0c:	00093983          	ld	s3,0(s2)
   1ce10:	00893483          	ld	s1,8(s2)
   1ce14:	01090913          	addi	s2,s2,16
   1ce18:	f9dff06f          	j	1cdb4 <__sfvwrite_r+0x80>
   1ce1c:	00040593          	mv	a1,s0
   1ce20:	000a8513          	mv	a0,s5
   1ce24:	e7df50ef          	jal	ra,12ca0 <__swsetup_r>
   1ce28:	3c051663          	bnez	a0,1d1f4 <__sfvwrite_r+0x4c0>
   1ce2c:	01045783          	lhu	a5,16(s0)
   1ce30:	000a3903          	ld	s2,0(s4)
   1ce34:	0027f713          	andi	a4,a5,2
   1ce38:	f60712e3          	bnez	a4,1cd9c <__sfvwrite_r+0x68>
   1ce3c:	0017f713          	andi	a4,a5,1
   1ce40:	0a071263          	bnez	a4,1cee4 <__sfvwrite_r+0x1b0>
   1ce44:	00c42483          	lw	s1,12(s0)
   1ce48:	00043503          	ld	a0,0(s0)
   1ce4c:	80000b37          	lui	s6,0x80000
   1ce50:	ffeb4b93          	xori	s7,s6,-2
   1ce54:	00000c13          	li	s8,0
   1ce58:	00000993          	li	s3,0
   1ce5c:	fffb4b13          	not	s6,s6
   1ce60:	00048c93          	mv	s9,s1
   1ce64:	06098863          	beqz	s3,1ced4 <__sfvwrite_r+0x1a0>
   1ce68:	2007f713          	andi	a4,a5,512
   1ce6c:	1c070863          	beqz	a4,1d03c <__sfvwrite_r+0x308>
   1ce70:	00048d13          	mv	s10,s1
   1ce74:	2699f663          	bgeu	s3,s1,1d0e0 <__sfvwrite_r+0x3ac>
   1ce78:	00098c93          	mv	s9,s3
   1ce7c:	00098d13          	mv	s10,s3
   1ce80:	000d0613          	mv	a2,s10
   1ce84:	000c0593          	mv	a1,s8
   1ce88:	554000ef          	jal	ra,1d3dc <memmove>
   1ce8c:	00c42783          	lw	a5,12(s0)
   1ce90:	00043603          	ld	a2,0(s0)
   1ce94:	00098493          	mv	s1,s3
   1ce98:	41978cbb          	subw	s9,a5,s9
   1ce9c:	01a60633          	add	a2,a2,s10
   1cea0:	01942623          	sw	s9,12(s0)
   1cea4:	00c43023          	sd	a2,0(s0)
   1cea8:	00000993          	li	s3,0
   1ceac:	010a3783          	ld	a5,16(s4)
   1ceb0:	009c0c33          	add	s8,s8,s1
   1ceb4:	409784b3          	sub	s1,a5,s1
   1ceb8:	009a3823          	sd	s1,16(s4)
   1cebc:	0a048a63          	beqz	s1,1cf70 <__sfvwrite_r+0x23c>
   1cec0:	00c42483          	lw	s1,12(s0)
   1cec4:	00043503          	ld	a0,0(s0)
   1cec8:	01045783          	lhu	a5,16(s0)
   1cecc:	00048c93          	mv	s9,s1
   1ced0:	f8099ce3          	bnez	s3,1ce68 <__sfvwrite_r+0x134>
   1ced4:	00093c03          	ld	s8,0(s2)
   1ced8:	00893983          	ld	s3,8(s2)
   1cedc:	01090913          	addi	s2,s2,16
   1cee0:	f81ff06f          	j	1ce60 <__sfvwrite_r+0x12c>
   1cee4:	00000993          	li	s3,0
   1cee8:	00000513          	li	a0,0
   1ceec:	00000c93          	li	s9,0
   1cef0:	00000493          	li	s1,0
   1cef4:	0e048263          	beqz	s1,1cfd8 <__sfvwrite_r+0x2a4>
   1cef8:	0e050863          	beqz	a0,1cfe8 <__sfvwrite_r+0x2b4>
   1cefc:	00098c13          	mv	s8,s3
   1cf00:	0134f463          	bgeu	s1,s3,1cf08 <__sfvwrite_r+0x1d4>
   1cf04:	00048c13          	mv	s8,s1
   1cf08:	00043503          	ld	a0,0(s0)
   1cf0c:	01843783          	ld	a5,24(s0)
   1cf10:	000c0b13          	mv	s6,s8
   1cf14:	02042683          	lw	a3,32(s0)
   1cf18:	00a7f863          	bgeu	a5,a0,1cf28 <__sfvwrite_r+0x1f4>
   1cf1c:	00c42603          	lw	a2,12(s0)
   1cf20:	00d60bbb          	addw	s7,a2,a3
   1cf24:	0f8bc263          	blt	s7,s8,1d008 <__sfvwrite_r+0x2d4>
   1cf28:	24dc4a63          	blt	s8,a3,1d17c <__sfvwrite_r+0x448>
   1cf2c:	04043783          	ld	a5,64(s0)
   1cf30:	03043583          	ld	a1,48(s0)
   1cf34:	000c8613          	mv	a2,s9
   1cf38:	000a8513          	mv	a0,s5
   1cf3c:	000780e7          	jalr	a5
   1cf40:	00050b13          	mv	s6,a0
   1cf44:	06a05c63          	blez	a0,1cfbc <__sfvwrite_r+0x288>
   1cf48:	0005061b          	sext.w	a2,a0
   1cf4c:	40c989bb          	subw	s3,s3,a2
   1cf50:	00100513          	li	a0,1
   1cf54:	04098c63          	beqz	s3,1cfac <__sfvwrite_r+0x278>
   1cf58:	010a3783          	ld	a5,16(s4)
   1cf5c:	016c8cb3          	add	s9,s9,s6
   1cf60:	416484b3          	sub	s1,s1,s6
   1cf64:	41678b33          	sub	s6,a5,s6
   1cf68:	016a3823          	sd	s6,16(s4)
   1cf6c:	f80b14e3          	bnez	s6,1cef4 <__sfvwrite_r+0x1c0>
   1cf70:	00000513          	li	a0,0
   1cf74:	05813083          	ld	ra,88(sp)
   1cf78:	05013403          	ld	s0,80(sp)
   1cf7c:	04813483          	ld	s1,72(sp)
   1cf80:	04013903          	ld	s2,64(sp)
   1cf84:	03813983          	ld	s3,56(sp)
   1cf88:	03013a03          	ld	s4,48(sp)
   1cf8c:	02813a83          	ld	s5,40(sp)
   1cf90:	02013b03          	ld	s6,32(sp)
   1cf94:	01813b83          	ld	s7,24(sp)
   1cf98:	01013c03          	ld	s8,16(sp)
   1cf9c:	00813c83          	ld	s9,8(sp)
   1cfa0:	00013d03          	ld	s10,0(sp)
   1cfa4:	06010113          	addi	sp,sp,96
   1cfa8:	00008067          	ret
   1cfac:	00040593          	mv	a1,s0
   1cfb0:	000a8513          	mv	a0,s5
   1cfb4:	a80f60ef          	jal	ra,13234 <_fflush_r>
   1cfb8:	fa0500e3          	beqz	a0,1cf58 <__sfvwrite_r+0x224>
   1cfbc:	01041783          	lh	a5,16(s0)
   1cfc0:	0407e793          	ori	a5,a5,64
   1cfc4:	00f41823          	sh	a5,16(s0)
   1cfc8:	fff00513          	li	a0,-1
   1cfcc:	fa9ff06f          	j	1cf74 <__sfvwrite_r+0x240>
   1cfd0:	00000513          	li	a0,0
   1cfd4:	00008067          	ret
   1cfd8:	00893483          	ld	s1,8(s2)
   1cfdc:	00093c83          	ld	s9,0(s2)
   1cfe0:	01090913          	addi	s2,s2,16
   1cfe4:	fe048ae3          	beqz	s1,1cfd8 <__sfvwrite_r+0x2a4>
   1cfe8:	00048613          	mv	a2,s1
   1cfec:	00a00593          	li	a1,10
   1cff0:	000c8513          	mv	a0,s9
   1cff4:	b8cfa0ef          	jal	ra,17380 <memchr>
   1cff8:	1e050263          	beqz	a0,1d1dc <__sfvwrite_r+0x4a8>
   1cffc:	00150513          	addi	a0,a0,1
   1d000:	419509bb          	subw	s3,a0,s9
   1d004:	ef9ff06f          	j	1cefc <__sfvwrite_r+0x1c8>
   1d008:	000c8593          	mv	a1,s9
   1d00c:	000b8613          	mv	a2,s7
   1d010:	3cc000ef          	jal	ra,1d3dc <memmove>
   1d014:	00043783          	ld	a5,0(s0)
   1d018:	00040593          	mv	a1,s0
   1d01c:	000a8513          	mv	a0,s5
   1d020:	017787b3          	add	a5,a5,s7
   1d024:	00f43023          	sd	a5,0(s0)
   1d028:	a0cf60ef          	jal	ra,13234 <_fflush_r>
   1d02c:	f80518e3          	bnez	a0,1cfbc <__sfvwrite_r+0x288>
   1d030:	000b8613          	mv	a2,s7
   1d034:	000b8b13          	mv	s6,s7
   1d038:	f15ff06f          	j	1cf4c <__sfvwrite_r+0x218>
   1d03c:	01843783          	ld	a5,24(s0)
   1d040:	04a7ec63          	bltu	a5,a0,1d098 <__sfvwrite_r+0x364>
   1d044:	02042c83          	lw	s9,32(s0)
   1d048:	0599e863          	bltu	s3,s9,1d098 <__sfvwrite_r+0x364>
   1d04c:	00098513          	mv	a0,s3
   1d050:	013bf463          	bgeu	s7,s3,1d058 <__sfvwrite_r+0x324>
   1d054:	000b0513          	mv	a0,s6
   1d058:	000c8593          	mv	a1,s9
   1d05c:	0005051b          	sext.w	a0,a0
   1d060:	028040ef          	jal	ra,21088 <__divdi3>
   1d064:	00050593          	mv	a1,a0
   1d068:	000c8513          	mv	a0,s9
   1d06c:	7b9030ef          	jal	ra,21024 <__muldi3>
   1d070:	03043583          	ld	a1,48(s0)
   1d074:	04043783          	ld	a5,64(s0)
   1d078:	0005069b          	sext.w	a3,a0
   1d07c:	000c0613          	mv	a2,s8
   1d080:	000a8513          	mv	a0,s5
   1d084:	000780e7          	jalr	a5
   1d088:	f2a05ae3          	blez	a0,1cfbc <__sfvwrite_r+0x288>
   1d08c:	00050493          	mv	s1,a0
   1d090:	409989b3          	sub	s3,s3,s1
   1d094:	e19ff06f          	j	1ceac <__sfvwrite_r+0x178>
   1d098:	0099f463          	bgeu	s3,s1,1d0a0 <__sfvwrite_r+0x36c>
   1d09c:	00098493          	mv	s1,s3
   1d0a0:	00048613          	mv	a2,s1
   1d0a4:	000c0593          	mv	a1,s8
   1d0a8:	334000ef          	jal	ra,1d3dc <memmove>
   1d0ac:	00c42783          	lw	a5,12(s0)
   1d0b0:	00043703          	ld	a4,0(s0)
   1d0b4:	409786bb          	subw	a3,a5,s1
   1d0b8:	00970733          	add	a4,a4,s1
   1d0bc:	00d42623          	sw	a3,12(s0)
   1d0c0:	00e43023          	sd	a4,0(s0)
   1d0c4:	fc0696e3          	bnez	a3,1d090 <__sfvwrite_r+0x35c>
   1d0c8:	00040593          	mv	a1,s0
   1d0cc:	000a8513          	mv	a0,s5
   1d0d0:	964f60ef          	jal	ra,13234 <_fflush_r>
   1d0d4:	ee0514e3          	bnez	a0,1cfbc <__sfvwrite_r+0x288>
   1d0d8:	409989b3          	sub	s3,s3,s1
   1d0dc:	dd1ff06f          	j	1ceac <__sfvwrite_r+0x178>
   1d0e0:	4807f713          	andi	a4,a5,1152
   1d0e4:	d8070ee3          	beqz	a4,1ce80 <__sfvwrite_r+0x14c>
   1d0e8:	02042683          	lw	a3,32(s0)
   1d0ec:	01843583          	ld	a1,24(s0)
   1d0f0:	00198713          	addi	a4,s3,1
   1d0f4:	0016949b          	slliw	s1,a3,0x1
   1d0f8:	00d486bb          	addw	a3,s1,a3
   1d0fc:	40b50533          	sub	a0,a0,a1
   1d100:	01f6d49b          	srliw	s1,a3,0x1f
   1d104:	00050c9b          	sext.w	s9,a0
   1d108:	00d484bb          	addw	s1,s1,a3
   1d10c:	4014d49b          	sraiw	s1,s1,0x1
   1d110:	01970733          	add	a4,a4,s9
   1d114:	00e4f663          	bgeu	s1,a4,1d120 <__sfvwrite_r+0x3ec>
   1d118:	0019849b          	addiw	s1,s3,1
   1d11c:	00a484bb          	addw	s1,s1,a0
   1d120:	4007f793          	andi	a5,a5,1024
   1d124:	08078263          	beqz	a5,1d1a8 <__sfvwrite_r+0x474>
   1d128:	00048593          	mv	a1,s1
   1d12c:	000a8513          	mv	a0,s5
   1d130:	985f90ef          	jal	ra,16ab4 <_malloc_r>
   1d134:	00050d13          	mv	s10,a0
   1d138:	0a050663          	beqz	a0,1d1e4 <__sfvwrite_r+0x4b0>
   1d13c:	01843583          	ld	a1,24(s0)
   1d140:	000c8613          	mv	a2,s9
   1d144:	17c000ef          	jal	ra,1d2c0 <memcpy>
   1d148:	01045783          	lhu	a5,16(s0)
   1d14c:	b7f7f793          	andi	a5,a5,-1153
   1d150:	0807e793          	ori	a5,a5,128
   1d154:	00f41823          	sh	a5,16(s0)
   1d158:	019d0533          	add	a0,s10,s9
   1d15c:	419487bb          	subw	a5,s1,s9
   1d160:	01a43c23          	sd	s10,24(s0)
   1d164:	00a43023          	sd	a0,0(s0)
   1d168:	02942023          	sw	s1,32(s0)
   1d16c:	00098c93          	mv	s9,s3
   1d170:	00f42623          	sw	a5,12(s0)
   1d174:	00098d13          	mv	s10,s3
   1d178:	d09ff06f          	j	1ce80 <__sfvwrite_r+0x14c>
   1d17c:	000c0613          	mv	a2,s8
   1d180:	000c8593          	mv	a1,s9
   1d184:	258000ef          	jal	ra,1d3dc <memmove>
   1d188:	00c42703          	lw	a4,12(s0)
   1d18c:	00043783          	ld	a5,0(s0)
   1d190:	000c061b          	sext.w	a2,s8
   1d194:	40c7073b          	subw	a4,a4,a2
   1d198:	01878c33          	add	s8,a5,s8
   1d19c:	00e42623          	sw	a4,12(s0)
   1d1a0:	01843023          	sd	s8,0(s0)
   1d1a4:	da9ff06f          	j	1cf4c <__sfvwrite_r+0x218>
   1d1a8:	00048613          	mv	a2,s1
   1d1ac:	000a8513          	mv	a0,s5
   1d1b0:	3b4000ef          	jal	ra,1d564 <_realloc_r>
   1d1b4:	00050d13          	mv	s10,a0
   1d1b8:	fa0510e3          	bnez	a0,1d158 <__sfvwrite_r+0x424>
   1d1bc:	01843583          	ld	a1,24(s0)
   1d1c0:	000a8513          	mv	a0,s5
   1d1c4:	d98f60ef          	jal	ra,1375c <_free_r>
   1d1c8:	01041783          	lh	a5,16(s0)
   1d1cc:	00c00713          	li	a4,12
   1d1d0:	00eaa023          	sw	a4,0(s5)
   1d1d4:	f7f7f793          	andi	a5,a5,-129
   1d1d8:	de9ff06f          	j	1cfc0 <__sfvwrite_r+0x28c>
   1d1dc:	0014899b          	addiw	s3,s1,1
   1d1e0:	d1dff06f          	j	1cefc <__sfvwrite_r+0x1c8>
   1d1e4:	00c00793          	li	a5,12
   1d1e8:	00faa023          	sw	a5,0(s5)
   1d1ec:	01041783          	lh	a5,16(s0)
   1d1f0:	dd1ff06f          	j	1cfc0 <__sfvwrite_r+0x28c>
   1d1f4:	fff00513          	li	a0,-1
   1d1f8:	d7dff06f          	j	1cf74 <__sfvwrite_r+0x240>

000000000001d1fc <_isatty_r>:
   1d1fc:	ff010113          	addi	sp,sp,-16
   1d200:	00813023          	sd	s0,0(sp)
   1d204:	00050413          	mv	s0,a0
   1d208:	00058513          	mv	a0,a1
   1d20c:	00006797          	auipc	a5,0x6
   1d210:	fe07aa23          	sw	zero,-12(a5) # 23200 <errno>
   1d214:	00113423          	sd	ra,8(sp)
   1d218:	7e5010ef          	jal	ra,1f1fc <_isatty>
   1d21c:	fff00793          	li	a5,-1
   1d220:	00f50a63          	beq	a0,a5,1d234 <_isatty_r+0x38>
   1d224:	00813083          	ld	ra,8(sp)
   1d228:	00013403          	ld	s0,0(sp)
   1d22c:	01010113          	addi	sp,sp,16
   1d230:	00008067          	ret
   1d234:	00006797          	auipc	a5,0x6
   1d238:	fcc78793          	addi	a5,a5,-52 # 23200 <errno>
   1d23c:	0007a783          	lw	a5,0(a5)
   1d240:	fe0782e3          	beqz	a5,1d224 <_isatty_r+0x28>
   1d244:	00f42023          	sw	a5,0(s0)
   1d248:	00813083          	ld	ra,8(sp)
   1d24c:	00013403          	ld	s0,0(sp)
   1d250:	01010113          	addi	sp,sp,16
   1d254:	00008067          	ret

000000000001d258 <_lseek_r>:
   1d258:	00058793          	mv	a5,a1
   1d25c:	ff010113          	addi	sp,sp,-16
   1d260:	00813023          	sd	s0,0(sp)
   1d264:	00060593          	mv	a1,a2
   1d268:	00050413          	mv	s0,a0
   1d26c:	00068613          	mv	a2,a3
   1d270:	00078513          	mv	a0,a5
   1d274:	00113423          	sd	ra,8(sp)
   1d278:	00006797          	auipc	a5,0x6
   1d27c:	f807a423          	sw	zero,-120(a5) # 23200 <errno>
   1d280:	7bd010ef          	jal	ra,1f23c <_lseek>
   1d284:	fff00793          	li	a5,-1
   1d288:	00f50a63          	beq	a0,a5,1d29c <_lseek_r+0x44>
   1d28c:	00813083          	ld	ra,8(sp)
   1d290:	00013403          	ld	s0,0(sp)
   1d294:	01010113          	addi	sp,sp,16
   1d298:	00008067          	ret
   1d29c:	00006797          	auipc	a5,0x6
   1d2a0:	f6478793          	addi	a5,a5,-156 # 23200 <errno>
   1d2a4:	0007a783          	lw	a5,0(a5)
   1d2a8:	fe0782e3          	beqz	a5,1d28c <_lseek_r+0x34>
   1d2ac:	00f42023          	sw	a5,0(s0)
   1d2b0:	00813083          	ld	ra,8(sp)
   1d2b4:	00013403          	ld	s0,0(sp)
   1d2b8:	01010113          	addi	sp,sp,16
   1d2bc:	00008067          	ret

000000000001d2c0 <memcpy>:
   1d2c0:	00a5c7b3          	xor	a5,a1,a0
   1d2c4:	0077f793          	andi	a5,a5,7
   1d2c8:	00c508b3          	add	a7,a0,a2
   1d2cc:	06079263          	bnez	a5,1d330 <memcpy+0x70>
   1d2d0:	00700793          	li	a5,7
   1d2d4:	04c7fe63          	bgeu	a5,a2,1d330 <memcpy+0x70>
   1d2d8:	00757793          	andi	a5,a0,7
   1d2dc:	00050713          	mv	a4,a0
   1d2e0:	06079863          	bnez	a5,1d350 <memcpy+0x90>
   1d2e4:	ff88f613          	andi	a2,a7,-8
   1d2e8:	fc060793          	addi	a5,a2,-64
   1d2ec:	08f76c63          	bltu	a4,a5,1d384 <memcpy+0xc4>
   1d2f0:	02c77c63          	bgeu	a4,a2,1d328 <memcpy+0x68>
   1d2f4:	00058693          	mv	a3,a1
   1d2f8:	00070793          	mv	a5,a4
   1d2fc:	0006b803          	ld	a6,0(a3) # 2000 <register_fini-0xe0b0>
   1d300:	00878793          	addi	a5,a5,8
   1d304:	00868693          	addi	a3,a3,8
   1d308:	ff07bc23          	sd	a6,-8(a5)
   1d30c:	fec7e8e3          	bltu	a5,a2,1d2fc <memcpy+0x3c>
   1d310:	fff60793          	addi	a5,a2,-1
   1d314:	40e787b3          	sub	a5,a5,a4
   1d318:	ff87f793          	andi	a5,a5,-8
   1d31c:	00878793          	addi	a5,a5,8
   1d320:	00f70733          	add	a4,a4,a5
   1d324:	00f585b3          	add	a1,a1,a5
   1d328:	01176863          	bltu	a4,a7,1d338 <memcpy+0x78>
   1d32c:	00008067          	ret
   1d330:	00050713          	mv	a4,a0
   1d334:	ff157ce3          	bgeu	a0,a7,1d32c <memcpy+0x6c>
   1d338:	0005c783          	lbu	a5,0(a1)
   1d33c:	00170713          	addi	a4,a4,1
   1d340:	00158593          	addi	a1,a1,1
   1d344:	fef70fa3          	sb	a5,-1(a4)
   1d348:	ff1768e3          	bltu	a4,a7,1d338 <memcpy+0x78>
   1d34c:	00008067          	ret
   1d350:	0005c683          	lbu	a3,0(a1)
   1d354:	00170713          	addi	a4,a4,1
   1d358:	00777793          	andi	a5,a4,7
   1d35c:	fed70fa3          	sb	a3,-1(a4)
   1d360:	00158593          	addi	a1,a1,1
   1d364:	f80780e3          	beqz	a5,1d2e4 <memcpy+0x24>
   1d368:	0005c683          	lbu	a3,0(a1)
   1d36c:	00170713          	addi	a4,a4,1
   1d370:	00777793          	andi	a5,a4,7
   1d374:	fed70fa3          	sb	a3,-1(a4)
   1d378:	00158593          	addi	a1,a1,1
   1d37c:	fc079ae3          	bnez	a5,1d350 <memcpy+0x90>
   1d380:	f65ff06f          	j	1d2e4 <memcpy+0x24>
   1d384:	0005b683          	ld	a3,0(a1)
   1d388:	0085b283          	ld	t0,8(a1)
   1d38c:	0105bf83          	ld	t6,16(a1)
   1d390:	0185bf03          	ld	t5,24(a1)
   1d394:	0205be83          	ld	t4,32(a1)
   1d398:	0285be03          	ld	t3,40(a1)
   1d39c:	0305b303          	ld	t1,48(a1)
   1d3a0:	0385b803          	ld	a6,56(a1)
   1d3a4:	04858593          	addi	a1,a1,72
   1d3a8:	00d73023          	sd	a3,0(a4)
   1d3ac:	ff85b683          	ld	a3,-8(a1)
   1d3b0:	00573423          	sd	t0,8(a4)
   1d3b4:	01f73823          	sd	t6,16(a4)
   1d3b8:	01e73c23          	sd	t5,24(a4)
   1d3bc:	03d73023          	sd	t4,32(a4)
   1d3c0:	03c73423          	sd	t3,40(a4)
   1d3c4:	02673823          	sd	t1,48(a4)
   1d3c8:	03073c23          	sd	a6,56(a4)
   1d3cc:	04870713          	addi	a4,a4,72
   1d3d0:	fed73c23          	sd	a3,-8(a4)
   1d3d4:	faf768e3          	bltu	a4,a5,1d384 <memcpy+0xc4>
   1d3d8:	f19ff06f          	j	1d2f0 <memcpy+0x30>

000000000001d3dc <memmove>:
   1d3dc:	02a5f663          	bgeu	a1,a0,1d408 <memmove+0x2c>
   1d3e0:	00c587b3          	add	a5,a1,a2
   1d3e4:	02f57263          	bgeu	a0,a5,1d408 <memmove+0x2c>
   1d3e8:	00c50733          	add	a4,a0,a2
   1d3ec:	0e060a63          	beqz	a2,1d4e0 <memmove+0x104>
   1d3f0:	fff78793          	addi	a5,a5,-1
   1d3f4:	0007c683          	lbu	a3,0(a5)
   1d3f8:	fff70713          	addi	a4,a4,-1
   1d3fc:	00d70023          	sb	a3,0(a4)
   1d400:	fef598e3          	bne	a1,a5,1d3f0 <memmove+0x14>
   1d404:	00008067          	ret
   1d408:	01f00793          	li	a5,31
   1d40c:	02c7e863          	bltu	a5,a2,1d43c <memmove+0x60>
   1d410:	00050793          	mv	a5,a0
   1d414:	fff60693          	addi	a3,a2,-1
   1d418:	0c060c63          	beqz	a2,1d4f0 <memmove+0x114>
   1d41c:	00168693          	addi	a3,a3,1
   1d420:	00d786b3          	add	a3,a5,a3
   1d424:	00158593          	addi	a1,a1,1
   1d428:	fff5c703          	lbu	a4,-1(a1)
   1d42c:	00178793          	addi	a5,a5,1
   1d430:	fee78fa3          	sb	a4,-1(a5)
   1d434:	fed798e3          	bne	a5,a3,1d424 <memmove+0x48>
   1d438:	00008067          	ret
   1d43c:	00a5e7b3          	or	a5,a1,a0
   1d440:	0077f793          	andi	a5,a5,7
   1d444:	0a079063          	bnez	a5,1d4e4 <memmove+0x108>
   1d448:	fe060893          	addi	a7,a2,-32
   1d44c:	fe08f893          	andi	a7,a7,-32
   1d450:	02088893          	addi	a7,a7,32
   1d454:	01150833          	add	a6,a0,a7
   1d458:	00058713          	mv	a4,a1
   1d45c:	00050793          	mv	a5,a0
   1d460:	00073683          	ld	a3,0(a4)
   1d464:	02078793          	addi	a5,a5,32
   1d468:	02070713          	addi	a4,a4,32
   1d46c:	fed7b023          	sd	a3,-32(a5)
   1d470:	fe873683          	ld	a3,-24(a4)
   1d474:	fed7b423          	sd	a3,-24(a5)
   1d478:	ff073683          	ld	a3,-16(a4)
   1d47c:	fed7b823          	sd	a3,-16(a5)
   1d480:	ff873683          	ld	a3,-8(a4)
   1d484:	fed7bc23          	sd	a3,-8(a5)
   1d488:	fcf81ce3          	bne	a6,a5,1d460 <memmove+0x84>
   1d48c:	01867713          	andi	a4,a2,24
   1d490:	011585b3          	add	a1,a1,a7
   1d494:	01f67813          	andi	a6,a2,31
   1d498:	04070e63          	beqz	a4,1d4f4 <memmove+0x118>
   1d49c:	00058713          	mv	a4,a1
   1d4a0:	00078893          	mv	a7,a5
   1d4a4:	00700e13          	li	t3,7
   1d4a8:	00870713          	addi	a4,a4,8
   1d4ac:	ff873303          	ld	t1,-8(a4)
   1d4b0:	00888893          	addi	a7,a7,8
   1d4b4:	40e806b3          	sub	a3,a6,a4
   1d4b8:	fe68bc23          	sd	t1,-8(a7)
   1d4bc:	00d586b3          	add	a3,a1,a3
   1d4c0:	fede64e3          	bltu	t3,a3,1d4a8 <memmove+0xcc>
   1d4c4:	ff880713          	addi	a4,a6,-8
   1d4c8:	ff877713          	andi	a4,a4,-8
   1d4cc:	00870713          	addi	a4,a4,8
   1d4d0:	00767613          	andi	a2,a2,7
   1d4d4:	00e787b3          	add	a5,a5,a4
   1d4d8:	00e585b3          	add	a1,a1,a4
   1d4dc:	f39ff06f          	j	1d414 <memmove+0x38>
   1d4e0:	00008067          	ret
   1d4e4:	fff60693          	addi	a3,a2,-1
   1d4e8:	00050793          	mv	a5,a0
   1d4ec:	f31ff06f          	j	1d41c <memmove+0x40>
   1d4f0:	00008067          	ret
   1d4f4:	00080613          	mv	a2,a6
   1d4f8:	f1dff06f          	j	1d414 <memmove+0x38>

000000000001d4fc <_read_r>:
   1d4fc:	00058793          	mv	a5,a1
   1d500:	ff010113          	addi	sp,sp,-16
   1d504:	00813023          	sd	s0,0(sp)
   1d508:	00060593          	mv	a1,a2
   1d50c:	00050413          	mv	s0,a0
   1d510:	00068613          	mv	a2,a3
   1d514:	00078513          	mv	a0,a5
   1d518:	00113423          	sd	ra,8(sp)
   1d51c:	00006797          	auipc	a5,0x6
   1d520:	ce07a223          	sw	zero,-796(a5) # 23200 <errno>
   1d524:	569010ef          	jal	ra,1f28c <_read>
   1d528:	fff00793          	li	a5,-1
   1d52c:	00f50a63          	beq	a0,a5,1d540 <_read_r+0x44>
   1d530:	00813083          	ld	ra,8(sp)
   1d534:	00013403          	ld	s0,0(sp)
   1d538:	01010113          	addi	sp,sp,16
   1d53c:	00008067          	ret
   1d540:	00006797          	auipc	a5,0x6
   1d544:	cc078793          	addi	a5,a5,-832 # 23200 <errno>
   1d548:	0007a783          	lw	a5,0(a5)
   1d54c:	fe0782e3          	beqz	a5,1d530 <_read_r+0x34>
   1d550:	00f42023          	sw	a5,0(s0)
   1d554:	00813083          	ld	ra,8(sp)
   1d558:	00013403          	ld	s0,0(sp)
   1d55c:	01010113          	addi	sp,sp,16
   1d560:	00008067          	ret

000000000001d564 <_realloc_r>:
   1d564:	fb010113          	addi	sp,sp,-80
   1d568:	03213823          	sd	s2,48(sp)
   1d56c:	04113423          	sd	ra,72(sp)
   1d570:	04813023          	sd	s0,64(sp)
   1d574:	02913c23          	sd	s1,56(sp)
   1d578:	03313423          	sd	s3,40(sp)
   1d57c:	03413023          	sd	s4,32(sp)
   1d580:	01513c23          	sd	s5,24(sp)
   1d584:	01613823          	sd	s6,16(sp)
   1d588:	01713423          	sd	s7,8(sp)
   1d58c:	01813023          	sd	s8,0(sp)
   1d590:	00060913          	mv	s2,a2
   1d594:	22058463          	beqz	a1,1d7bc <_realloc_r+0x258>
   1d598:	00058a93          	mv	s5,a1
   1d59c:	00050a13          	mv	s4,a0
   1d5a0:	ed1f90ef          	jal	ra,17470 <__malloc_lock>
   1d5a4:	ff8ab783          	ld	a5,-8(s5)
   1d5a8:	01790413          	addi	s0,s2,23
   1d5ac:	02e00713          	li	a4,46
   1d5b0:	ff0a8b13          	addi	s6,s5,-16
   1d5b4:	ffc7f493          	andi	s1,a5,-4
   1d5b8:	0e877a63          	bgeu	a4,s0,1d6ac <_realloc_r+0x148>
   1d5bc:	80000737          	lui	a4,0x80000
   1d5c0:	ff047413          	andi	s0,s0,-16
   1d5c4:	fff74713          	not	a4,a4
   1d5c8:	0e876663          	bltu	a4,s0,1d6b4 <_realloc_r+0x150>
   1d5cc:	0f246463          	bltu	s0,s2,1d6b4 <_realloc_r+0x150>
   1d5d0:	009b09b3          	add	s3,s6,s1
   1d5d4:	1884da63          	bge	s1,s0,1d768 <_realloc_r+0x204>
   1d5d8:	00005717          	auipc	a4,0x5
   1d5dc:	33870713          	addi	a4,a4,824 # 22910 <__malloc_av_>
   1d5e0:	01073683          	ld	a3,16(a4)
   1d5e4:	0089b703          	ld	a4,8(s3)
   1d5e8:	23368c63          	beq	a3,s3,1d820 <_realloc_r+0x2bc>
   1d5ec:	ffe77693          	andi	a3,a4,-2
   1d5f0:	00d986b3          	add	a3,s3,a3
   1d5f4:	0086b683          	ld	a3,8(a3)
   1d5f8:	0016f693          	andi	a3,a3,1
   1d5fc:	1a069263          	bnez	a3,1d7a0 <_realloc_r+0x23c>
   1d600:	ffc77713          	andi	a4,a4,-4
   1d604:	00e486b3          	add	a3,s1,a4
   1d608:	3486d063          	bge	a3,s0,1d948 <_realloc_r+0x3e4>
   1d60c:	0017f793          	andi	a5,a5,1
   1d610:	02079463          	bnez	a5,1d638 <_realloc_r+0xd4>
   1d614:	ff0abc03          	ld	s8,-16(s5)
   1d618:	418b0c33          	sub	s8,s6,s8
   1d61c:	008c3783          	ld	a5,8(s8)
   1d620:	ffc7f793          	andi	a5,a5,-4
   1d624:	00e78733          	add	a4,a5,a4
   1d628:	00970bb3          	add	s7,a4,s1
   1d62c:	348bdc63          	bge	s7,s0,1d984 <_realloc_r+0x420>
   1d630:	00f48bb3          	add	s7,s1,a5
   1d634:	0c8bd063          	bge	s7,s0,1d6f4 <_realloc_r+0x190>
   1d638:	00090593          	mv	a1,s2
   1d63c:	000a0513          	mv	a0,s4
   1d640:	c74f90ef          	jal	ra,16ab4 <_malloc_r>
   1d644:	00050913          	mv	s2,a0
   1d648:	04050c63          	beqz	a0,1d6a0 <_realloc_r+0x13c>
   1d64c:	ff8ab783          	ld	a5,-8(s5)
   1d650:	ff050713          	addi	a4,a0,-16
   1d654:	ffe7f793          	andi	a5,a5,-2
   1d658:	00fb07b3          	add	a5,s6,a5
   1d65c:	30e78463          	beq	a5,a4,1d964 <_realloc_r+0x400>
   1d660:	ff848613          	addi	a2,s1,-8
   1d664:	04800793          	li	a5,72
   1d668:	30c7e863          	bltu	a5,a2,1d978 <_realloc_r+0x414>
   1d66c:	02700713          	li	a4,39
   1d670:	000ab683          	ld	a3,0(s5)
   1d674:	26c76c63          	bltu	a4,a2,1d8ec <_realloc_r+0x388>
   1d678:	00050793          	mv	a5,a0
   1d67c:	000a8713          	mv	a4,s5
   1d680:	00d7b023          	sd	a3,0(a5)
   1d684:	00873683          	ld	a3,8(a4)
   1d688:	00d7b423          	sd	a3,8(a5)
   1d68c:	01073703          	ld	a4,16(a4)
   1d690:	00e7b823          	sd	a4,16(a5)
   1d694:	000a8593          	mv	a1,s5
   1d698:	000a0513          	mv	a0,s4
   1d69c:	8c0f60ef          	jal	ra,1375c <_free_r>
   1d6a0:	000a0513          	mv	a0,s4
   1d6a4:	dd1f90ef          	jal	ra,17474 <__malloc_unlock>
   1d6a8:	0180006f          	j	1d6c0 <_realloc_r+0x15c>
   1d6ac:	02000413          	li	s0,32
   1d6b0:	f32470e3          	bgeu	s0,s2,1d5d0 <_realloc_r+0x6c>
   1d6b4:	00c00793          	li	a5,12
   1d6b8:	00fa2023          	sw	a5,0(s4)
   1d6bc:	00000913          	li	s2,0
   1d6c0:	04813083          	ld	ra,72(sp)
   1d6c4:	04013403          	ld	s0,64(sp)
   1d6c8:	00090513          	mv	a0,s2
   1d6cc:	03813483          	ld	s1,56(sp)
   1d6d0:	03013903          	ld	s2,48(sp)
   1d6d4:	02813983          	ld	s3,40(sp)
   1d6d8:	02013a03          	ld	s4,32(sp)
   1d6dc:	01813a83          	ld	s5,24(sp)
   1d6e0:	01013b03          	ld	s6,16(sp)
   1d6e4:	00813b83          	ld	s7,8(sp)
   1d6e8:	00013c03          	ld	s8,0(sp)
   1d6ec:	05010113          	addi	sp,sp,80
   1d6f0:	00008067          	ret
   1d6f4:	018c3783          	ld	a5,24(s8)
   1d6f8:	010c3703          	ld	a4,16(s8)
   1d6fc:	ff848613          	addi	a2,s1,-8
   1d700:	04800693          	li	a3,72
   1d704:	00f73c23          	sd	a5,24(a4)
   1d708:	00e7b823          	sd	a4,16(a5)
   1d70c:	010c0913          	addi	s2,s8,16
   1d710:	017c09b3          	add	s3,s8,s7
   1d714:	30c6e063          	bltu	a3,a2,1da14 <_realloc_r+0x4b0>
   1d718:	02700593          	li	a1,39
   1d71c:	000ab703          	ld	a4,0(s5)
   1d720:	00090793          	mv	a5,s2
   1d724:	02c5f263          	bgeu	a1,a2,1d748 <_realloc_r+0x1e4>
   1d728:	00ec3823          	sd	a4,16(s8)
   1d72c:	008ab703          	ld	a4,8(s5)
   1d730:	03700793          	li	a5,55
   1d734:	00ec3c23          	sd	a4,24(s8)
   1d738:	32c7ee63          	bltu	a5,a2,1da74 <_realloc_r+0x510>
   1d73c:	010ab703          	ld	a4,16(s5)
   1d740:	020c0793          	addi	a5,s8,32
   1d744:	010a8a93          	addi	s5,s5,16
   1d748:	00e7b023          	sd	a4,0(a5)
   1d74c:	008ab703          	ld	a4,8(s5)
   1d750:	000b8493          	mv	s1,s7
   1d754:	000c0b13          	mv	s6,s8
   1d758:	00e7b423          	sd	a4,8(a5)
   1d75c:	010ab703          	ld	a4,16(s5)
   1d760:	00090a93          	mv	s5,s2
   1d764:	00e7b823          	sd	a4,16(a5)
   1d768:	008b3603          	ld	a2,8(s6) # ffffffff80000008 <__BSS_END__+0xffffffff7ffdce00>
   1d76c:	408487b3          	sub	a5,s1,s0
   1d770:	01f00713          	li	a4,31
   1d774:	00167613          	andi	a2,a2,1
   1d778:	06f76c63          	bltu	a4,a5,1d7f0 <_realloc_r+0x28c>
   1d77c:	00c4e633          	or	a2,s1,a2
   1d780:	00cb3423          	sd	a2,8(s6)
   1d784:	0089b783          	ld	a5,8(s3)
   1d788:	0017e793          	ori	a5,a5,1
   1d78c:	00f9b423          	sd	a5,8(s3)
   1d790:	000a0513          	mv	a0,s4
   1d794:	ce1f90ef          	jal	ra,17474 <__malloc_unlock>
   1d798:	000a8913          	mv	s2,s5
   1d79c:	f25ff06f          	j	1d6c0 <_realloc_r+0x15c>
   1d7a0:	0017f793          	andi	a5,a5,1
   1d7a4:	e8079ae3          	bnez	a5,1d638 <_realloc_r+0xd4>
   1d7a8:	ff0abc03          	ld	s8,-16(s5)
   1d7ac:	418b0c33          	sub	s8,s6,s8
   1d7b0:	008c3783          	ld	a5,8(s8)
   1d7b4:	ffc7f793          	andi	a5,a5,-4
   1d7b8:	e79ff06f          	j	1d630 <_realloc_r+0xcc>
   1d7bc:	04013403          	ld	s0,64(sp)
   1d7c0:	04813083          	ld	ra,72(sp)
   1d7c4:	03813483          	ld	s1,56(sp)
   1d7c8:	03013903          	ld	s2,48(sp)
   1d7cc:	02813983          	ld	s3,40(sp)
   1d7d0:	02013a03          	ld	s4,32(sp)
   1d7d4:	01813a83          	ld	s5,24(sp)
   1d7d8:	01013b03          	ld	s6,16(sp)
   1d7dc:	00813b83          	ld	s7,8(sp)
   1d7e0:	00013c03          	ld	s8,0(sp)
   1d7e4:	00060593          	mv	a1,a2
   1d7e8:	05010113          	addi	sp,sp,80
   1d7ec:	ac8f906f          	j	16ab4 <_malloc_r>
   1d7f0:	00c46633          	or	a2,s0,a2
   1d7f4:	00cb3423          	sd	a2,8(s6)
   1d7f8:	008b05b3          	add	a1,s6,s0
   1d7fc:	0017e793          	ori	a5,a5,1
   1d800:	00f5b423          	sd	a5,8(a1)
   1d804:	0089b783          	ld	a5,8(s3)
   1d808:	01058593          	addi	a1,a1,16
   1d80c:	000a0513          	mv	a0,s4
   1d810:	0017e793          	ori	a5,a5,1
   1d814:	00f9b423          	sd	a5,8(s3)
   1d818:	f45f50ef          	jal	ra,1375c <_free_r>
   1d81c:	f75ff06f          	j	1d790 <_realloc_r+0x22c>
   1d820:	ffc77713          	andi	a4,a4,-4
   1d824:	00e486b3          	add	a3,s1,a4
   1d828:	02040613          	addi	a2,s0,32
   1d82c:	0ec6d263          	bge	a3,a2,1d910 <_realloc_r+0x3ac>
   1d830:	0017f793          	andi	a5,a5,1
   1d834:	e00792e3          	bnez	a5,1d638 <_realloc_r+0xd4>
   1d838:	ff0abc03          	ld	s8,-16(s5)
   1d83c:	418b0c33          	sub	s8,s6,s8
   1d840:	008c3783          	ld	a5,8(s8)
   1d844:	ffc7f793          	andi	a5,a5,-4
   1d848:	00e78733          	add	a4,a5,a4
   1d84c:	009709b3          	add	s3,a4,s1
   1d850:	dec9c0e3          	blt	s3,a2,1d630 <_realloc_r+0xcc>
   1d854:	018c3783          	ld	a5,24(s8)
   1d858:	010c3703          	ld	a4,16(s8)
   1d85c:	ff848613          	addi	a2,s1,-8
   1d860:	04800693          	li	a3,72
   1d864:	00f73c23          	sd	a5,24(a4)
   1d868:	00e7b823          	sd	a4,16(a5)
   1d86c:	010c0913          	addi	s2,s8,16
   1d870:	22c6e463          	bltu	a3,a2,1da98 <_realloc_r+0x534>
   1d874:	02700593          	li	a1,39
   1d878:	000ab703          	ld	a4,0(s5)
   1d87c:	00090793          	mv	a5,s2
   1d880:	02c5f263          	bgeu	a1,a2,1d8a4 <_realloc_r+0x340>
   1d884:	00ec3823          	sd	a4,16(s8)
   1d888:	008ab703          	ld	a4,8(s5)
   1d88c:	03700793          	li	a5,55
   1d890:	00ec3c23          	sd	a4,24(s8)
   1d894:	20c7ea63          	bltu	a5,a2,1daa8 <_realloc_r+0x544>
   1d898:	010ab703          	ld	a4,16(s5)
   1d89c:	020c0793          	addi	a5,s8,32
   1d8a0:	010a8a93          	addi	s5,s5,16
   1d8a4:	00e7b023          	sd	a4,0(a5)
   1d8a8:	008ab703          	ld	a4,8(s5)
   1d8ac:	00e7b423          	sd	a4,8(a5)
   1d8b0:	010ab703          	ld	a4,16(s5)
   1d8b4:	00e7b823          	sd	a4,16(a5)
   1d8b8:	008c0733          	add	a4,s8,s0
   1d8bc:	408987b3          	sub	a5,s3,s0
   1d8c0:	00005697          	auipc	a3,0x5
   1d8c4:	06e6b023          	sd	a4,96(a3) # 22920 <__malloc_av_+0x10>
   1d8c8:	0017e793          	ori	a5,a5,1
   1d8cc:	00f73423          	sd	a5,8(a4)
   1d8d0:	008c3783          	ld	a5,8(s8)
   1d8d4:	000a0513          	mv	a0,s4
   1d8d8:	0017f793          	andi	a5,a5,1
   1d8dc:	0087e433          	or	s0,a5,s0
   1d8e0:	008c3423          	sd	s0,8(s8)
   1d8e4:	b91f90ef          	jal	ra,17474 <__malloc_unlock>
   1d8e8:	dd9ff06f          	j	1d6c0 <_realloc_r+0x15c>
   1d8ec:	00d53023          	sd	a3,0(a0)
   1d8f0:	008ab683          	ld	a3,8(s5)
   1d8f4:	03700713          	li	a4,55
   1d8f8:	00d53423          	sd	a3,8(a0)
   1d8fc:	12c76a63          	bltu	a4,a2,1da30 <_realloc_r+0x4cc>
   1d900:	010a8713          	addi	a4,s5,16
   1d904:	01050793          	addi	a5,a0,16
   1d908:	010ab683          	ld	a3,16(s5)
   1d90c:	d75ff06f          	j	1d680 <_realloc_r+0x11c>
   1d910:	008b0b33          	add	s6,s6,s0
   1d914:	408687b3          	sub	a5,a3,s0
   1d918:	00005717          	auipc	a4,0x5
   1d91c:	01673423          	sd	s6,8(a4) # 22920 <__malloc_av_+0x10>
   1d920:	0017e793          	ori	a5,a5,1
   1d924:	00fb3423          	sd	a5,8(s6)
   1d928:	ff8ab783          	ld	a5,-8(s5)
   1d92c:	000a0513          	mv	a0,s4
   1d930:	000a8913          	mv	s2,s5
   1d934:	0017f793          	andi	a5,a5,1
   1d938:	0087e433          	or	s0,a5,s0
   1d93c:	fe8abc23          	sd	s0,-8(s5)
   1d940:	b35f90ef          	jal	ra,17474 <__malloc_unlock>
   1d944:	d7dff06f          	j	1d6c0 <_realloc_r+0x15c>
   1d948:	0189b783          	ld	a5,24(s3)
   1d94c:	0109b703          	ld	a4,16(s3)
   1d950:	00068493          	mv	s1,a3
   1d954:	00db09b3          	add	s3,s6,a3
   1d958:	00f73c23          	sd	a5,24(a4)
   1d95c:	00e7b823          	sd	a4,16(a5)
   1d960:	e09ff06f          	j	1d768 <_realloc_r+0x204>
   1d964:	ff853783          	ld	a5,-8(a0)
   1d968:	ffc7f793          	andi	a5,a5,-4
   1d96c:	00f484b3          	add	s1,s1,a5
   1d970:	009b09b3          	add	s3,s6,s1
   1d974:	df5ff06f          	j	1d768 <_realloc_r+0x204>
   1d978:	000a8593          	mv	a1,s5
   1d97c:	a61ff0ef          	jal	ra,1d3dc <memmove>
   1d980:	d15ff06f          	j	1d694 <_realloc_r+0x130>
   1d984:	0189b783          	ld	a5,24(s3)
   1d988:	0109b703          	ld	a4,16(s3)
   1d98c:	ff848613          	addi	a2,s1,-8
   1d990:	04800693          	li	a3,72
   1d994:	00f73c23          	sd	a5,24(a4)
   1d998:	00e7b823          	sd	a4,16(a5)
   1d99c:	010c3703          	ld	a4,16(s8)
   1d9a0:	018c3783          	ld	a5,24(s8)
   1d9a4:	010c0913          	addi	s2,s8,16
   1d9a8:	017c09b3          	add	s3,s8,s7
   1d9ac:	00f73c23          	sd	a5,24(a4)
   1d9b0:	00e7b823          	sd	a4,16(a5)
   1d9b4:	06c6e063          	bltu	a3,a2,1da14 <_realloc_r+0x4b0>
   1d9b8:	02700693          	li	a3,39
   1d9bc:	000ab703          	ld	a4,0(s5)
   1d9c0:	00090793          	mv	a5,s2
   1d9c4:	d8c6f2e3          	bgeu	a3,a2,1d748 <_realloc_r+0x1e4>
   1d9c8:	00ec3823          	sd	a4,16(s8)
   1d9cc:	008ab703          	ld	a4,8(s5)
   1d9d0:	03700793          	li	a5,55
   1d9d4:	00ec3c23          	sd	a4,24(s8)
   1d9d8:	010ab703          	ld	a4,16(s5)
   1d9dc:	d6c7f2e3          	bgeu	a5,a2,1d740 <_realloc_r+0x1dc>
   1d9e0:	02ec3023          	sd	a4,32(s8)
   1d9e4:	018ab703          	ld	a4,24(s5)
   1d9e8:	04800793          	li	a5,72
   1d9ec:	02ec3423          	sd	a4,40(s8)
   1d9f0:	020ab703          	ld	a4,32(s5)
   1d9f4:	08f61c63          	bne	a2,a5,1da8c <_realloc_r+0x528>
   1d9f8:	02ec3823          	sd	a4,48(s8)
   1d9fc:	028ab703          	ld	a4,40(s5)
   1da00:	040c0793          	addi	a5,s8,64
   1da04:	030a8a93          	addi	s5,s5,48
   1da08:	02ec3c23          	sd	a4,56(s8)
   1da0c:	000ab703          	ld	a4,0(s5)
   1da10:	d39ff06f          	j	1d748 <_realloc_r+0x1e4>
   1da14:	000a8593          	mv	a1,s5
   1da18:	00090513          	mv	a0,s2
   1da1c:	9c1ff0ef          	jal	ra,1d3dc <memmove>
   1da20:	00090a93          	mv	s5,s2
   1da24:	000b8493          	mv	s1,s7
   1da28:	000c0b13          	mv	s6,s8
   1da2c:	d3dff06f          	j	1d768 <_realloc_r+0x204>
   1da30:	010ab703          	ld	a4,16(s5)
   1da34:	00e53823          	sd	a4,16(a0)
   1da38:	018ab703          	ld	a4,24(s5)
   1da3c:	00e53c23          	sd	a4,24(a0)
   1da40:	00f60a63          	beq	a2,a5,1da54 <_realloc_r+0x4f0>
   1da44:	020a8713          	addi	a4,s5,32
   1da48:	02050793          	addi	a5,a0,32
   1da4c:	020ab683          	ld	a3,32(s5)
   1da50:	c31ff06f          	j	1d680 <_realloc_r+0x11c>
   1da54:	020ab683          	ld	a3,32(s5)
   1da58:	030a8713          	addi	a4,s5,48
   1da5c:	03050793          	addi	a5,a0,48
   1da60:	02d53023          	sd	a3,32(a0)
   1da64:	028ab683          	ld	a3,40(s5)
   1da68:	02d53423          	sd	a3,40(a0)
   1da6c:	030ab683          	ld	a3,48(s5)
   1da70:	c11ff06f          	j	1d680 <_realloc_r+0x11c>
   1da74:	010ab783          	ld	a5,16(s5)
   1da78:	02fc3023          	sd	a5,32(s8)
   1da7c:	018ab783          	ld	a5,24(s5)
   1da80:	02fc3423          	sd	a5,40(s8)
   1da84:	020ab703          	ld	a4,32(s5)
   1da88:	f6d608e3          	beq	a2,a3,1d9f8 <_realloc_r+0x494>
   1da8c:	030c0793          	addi	a5,s8,48
   1da90:	020a8a93          	addi	s5,s5,32
   1da94:	cb5ff06f          	j	1d748 <_realloc_r+0x1e4>
   1da98:	000a8593          	mv	a1,s5
   1da9c:	00090513          	mv	a0,s2
   1daa0:	93dff0ef          	jal	ra,1d3dc <memmove>
   1daa4:	e15ff06f          	j	1d8b8 <_realloc_r+0x354>
   1daa8:	010ab783          	ld	a5,16(s5)
   1daac:	02fc3023          	sd	a5,32(s8)
   1dab0:	018ab783          	ld	a5,24(s5)
   1dab4:	02fc3423          	sd	a5,40(s8)
   1dab8:	020ab703          	ld	a4,32(s5)
   1dabc:	00d60863          	beq	a2,a3,1dacc <_realloc_r+0x568>
   1dac0:	030c0793          	addi	a5,s8,48
   1dac4:	020a8a93          	addi	s5,s5,32
   1dac8:	dddff06f          	j	1d8a4 <_realloc_r+0x340>
   1dacc:	02ec3823          	sd	a4,48(s8)
   1dad0:	028ab703          	ld	a4,40(s5)
   1dad4:	040c0793          	addi	a5,s8,64
   1dad8:	030a8a93          	addi	s5,s5,48
   1dadc:	02ec3c23          	sd	a4,56(s8)
   1dae0:	000ab703          	ld	a4,0(s5)
   1dae4:	dc1ff06f          	j	1d8a4 <_realloc_r+0x340>

000000000001dae8 <cleanup_glue>:
   1dae8:	fe010113          	addi	sp,sp,-32
   1daec:	00813823          	sd	s0,16(sp)
   1daf0:	00058413          	mv	s0,a1
   1daf4:	0005b583          	ld	a1,0(a1)
   1daf8:	00913423          	sd	s1,8(sp)
   1dafc:	00113c23          	sd	ra,24(sp)
   1db00:	00050493          	mv	s1,a0
   1db04:	00058463          	beqz	a1,1db0c <cleanup_glue+0x24>
   1db08:	fe1ff0ef          	jal	ra,1dae8 <cleanup_glue>
   1db0c:	00040593          	mv	a1,s0
   1db10:	01013403          	ld	s0,16(sp)
   1db14:	01813083          	ld	ra,24(sp)
   1db18:	00048513          	mv	a0,s1
   1db1c:	00813483          	ld	s1,8(sp)
   1db20:	02010113          	addi	sp,sp,32
   1db24:	c39f506f          	j	1375c <_free_r>

000000000001db28 <_reclaim_reent>:
   1db28:	75818793          	addi	a5,gp,1880 # 23160 <_impure_ptr>
   1db2c:	0007b783          	ld	a5,0(a5)
   1db30:	10a78263          	beq	a5,a0,1dc34 <_reclaim_reent+0x10c>
   1db34:	07853703          	ld	a4,120(a0)
   1db38:	fd010113          	addi	sp,sp,-48
   1db3c:	00913c23          	sd	s1,24(sp)
   1db40:	02113423          	sd	ra,40(sp)
   1db44:	02813023          	sd	s0,32(sp)
   1db48:	01213823          	sd	s2,16(sp)
   1db4c:	01313423          	sd	s3,8(sp)
   1db50:	00050493          	mv	s1,a0
   1db54:	04070263          	beqz	a4,1db98 <_reclaim_reent+0x70>
   1db58:	00000913          	li	s2,0
   1db5c:	20000993          	li	s3,512
   1db60:	012707b3          	add	a5,a4,s2
   1db64:	0007b583          	ld	a1,0(a5)
   1db68:	00058e63          	beqz	a1,1db84 <_reclaim_reent+0x5c>
   1db6c:	0005b403          	ld	s0,0(a1)
   1db70:	00048513          	mv	a0,s1
   1db74:	be9f50ef          	jal	ra,1375c <_free_r>
   1db78:	00040593          	mv	a1,s0
   1db7c:	fe0418e3          	bnez	s0,1db6c <_reclaim_reent+0x44>
   1db80:	0784b703          	ld	a4,120(s1)
   1db84:	00890913          	addi	s2,s2,8
   1db88:	fd391ce3          	bne	s2,s3,1db60 <_reclaim_reent+0x38>
   1db8c:	00070593          	mv	a1,a4
   1db90:	00048513          	mv	a0,s1
   1db94:	bc9f50ef          	jal	ra,1375c <_free_r>
   1db98:	0604b583          	ld	a1,96(s1)
   1db9c:	00058663          	beqz	a1,1dba8 <_reclaim_reent+0x80>
   1dba0:	00048513          	mv	a0,s1
   1dba4:	bb9f50ef          	jal	ra,1375c <_free_r>
   1dba8:	1f84b583          	ld	a1,504(s1)
   1dbac:	02058063          	beqz	a1,1dbcc <_reclaim_reent+0xa4>
   1dbb0:	20048913          	addi	s2,s1,512
   1dbb4:	01258c63          	beq	a1,s2,1dbcc <_reclaim_reent+0xa4>
   1dbb8:	0005b403          	ld	s0,0(a1)
   1dbbc:	00048513          	mv	a0,s1
   1dbc0:	b9df50ef          	jal	ra,1375c <_free_r>
   1dbc4:	00040593          	mv	a1,s0
   1dbc8:	fe8918e3          	bne	s2,s0,1dbb8 <_reclaim_reent+0x90>
   1dbcc:	0884b583          	ld	a1,136(s1)
   1dbd0:	00058663          	beqz	a1,1dbdc <_reclaim_reent+0xb4>
   1dbd4:	00048513          	mv	a0,s1
   1dbd8:	b85f50ef          	jal	ra,1375c <_free_r>
   1dbdc:	0504a783          	lw	a5,80(s1)
   1dbe0:	02078c63          	beqz	a5,1dc18 <_reclaim_reent+0xf0>
   1dbe4:	0584b783          	ld	a5,88(s1)
   1dbe8:	00048513          	mv	a0,s1
   1dbec:	000780e7          	jalr	a5
   1dbf0:	5204b583          	ld	a1,1312(s1)
   1dbf4:	02058263          	beqz	a1,1dc18 <_reclaim_reent+0xf0>
   1dbf8:	02013403          	ld	s0,32(sp)
   1dbfc:	02813083          	ld	ra,40(sp)
   1dc00:	01013903          	ld	s2,16(sp)
   1dc04:	00813983          	ld	s3,8(sp)
   1dc08:	00048513          	mv	a0,s1
   1dc0c:	01813483          	ld	s1,24(sp)
   1dc10:	03010113          	addi	sp,sp,48
   1dc14:	ed5ff06f          	j	1dae8 <cleanup_glue>
   1dc18:	02813083          	ld	ra,40(sp)
   1dc1c:	02013403          	ld	s0,32(sp)
   1dc20:	01813483          	ld	s1,24(sp)
   1dc24:	01013903          	ld	s2,16(sp)
   1dc28:	00813983          	ld	s3,8(sp)
   1dc2c:	03010113          	addi	sp,sp,48
   1dc30:	00008067          	ret
   1dc34:	00008067          	ret

000000000001dc38 <__ssprint_r>:
   1dc38:	01063783          	ld	a5,16(a2)
   1dc3c:	fb010113          	addi	sp,sp,-80
   1dc40:	03413023          	sd	s4,32(sp)
   1dc44:	04113423          	sd	ra,72(sp)
   1dc48:	04813023          	sd	s0,64(sp)
   1dc4c:	02913c23          	sd	s1,56(sp)
   1dc50:	03213823          	sd	s2,48(sp)
   1dc54:	03313423          	sd	s3,40(sp)
   1dc58:	01513c23          	sd	s5,24(sp)
   1dc5c:	01613823          	sd	s6,16(sp)
   1dc60:	01713423          	sd	s7,8(sp)
   1dc64:	01813023          	sd	s8,0(sp)
   1dc68:	00060a13          	mv	s4,a2
   1dc6c:	10078c63          	beqz	a5,1dd84 <__ssprint_r+0x14c>
   1dc70:	00050a93          	mv	s5,a0
   1dc74:	00063983          	ld	s3,0(a2)
   1dc78:	0005b503          	ld	a0,0(a1)
   1dc7c:	00c5a403          	lw	s0,12(a1)
   1dc80:	00058913          	mv	s2,a1
   1dc84:	00000b13          	li	s6,0
   1dc88:	00000493          	li	s1,0
   1dc8c:	12048863          	beqz	s1,1ddbc <__ssprint_r+0x184>
   1dc90:	00040c13          	mv	s8,s0
   1dc94:	0004879b          	sext.w	a5,s1
   1dc98:	1284ea63          	bltu	s1,s0,1ddcc <__ssprint_r+0x194>
   1dc9c:	01095783          	lhu	a5,16(s2)
   1dca0:	00048b9b          	sext.w	s7,s1
   1dca4:	4807f713          	andi	a4,a5,1152
   1dca8:	0a070063          	beqz	a4,1dd48 <__ssprint_r+0x110>
   1dcac:	02092683          	lw	a3,32(s2)
   1dcb0:	01893583          	ld	a1,24(s2)
   1dcb4:	00148713          	addi	a4,s1,1
   1dcb8:	0016941b          	slliw	s0,a3,0x1
   1dcbc:	00d406bb          	addw	a3,s0,a3
   1dcc0:	40b50533          	sub	a0,a0,a1
   1dcc4:	01f6d41b          	srliw	s0,a3,0x1f
   1dcc8:	00050b9b          	sext.w	s7,a0
   1dccc:	00d4043b          	addw	s0,s0,a3
   1dcd0:	4014541b          	sraiw	s0,s0,0x1
   1dcd4:	01770733          	add	a4,a4,s7
   1dcd8:	00e47663          	bgeu	s0,a4,1dce4 <__ssprint_r+0xac>
   1dcdc:	0014841b          	addiw	s0,s1,1
   1dce0:	00a4043b          	addw	s0,s0,a0
   1dce4:	4007f793          	andi	a5,a5,1024
   1dce8:	0e078a63          	beqz	a5,1dddc <__ssprint_r+0x1a4>
   1dcec:	00040593          	mv	a1,s0
   1dcf0:	000a8513          	mv	a0,s5
   1dcf4:	dc1f80ef          	jal	ra,16ab4 <_malloc_r>
   1dcf8:	00050c13          	mv	s8,a0
   1dcfc:	10050063          	beqz	a0,1ddfc <__ssprint_r+0x1c4>
   1dd00:	01893583          	ld	a1,24(s2)
   1dd04:	000b8613          	mv	a2,s7
   1dd08:	db8ff0ef          	jal	ra,1d2c0 <memcpy>
   1dd0c:	01095783          	lhu	a5,16(s2)
   1dd10:	b7f7f793          	andi	a5,a5,-1153
   1dd14:	0807e793          	ori	a5,a5,128
   1dd18:	00f91823          	sh	a5,16(s2)
   1dd1c:	017c0533          	add	a0,s8,s7
   1dd20:	41740bbb          	subw	s7,s0,s7
   1dd24:	0004879b          	sext.w	a5,s1
   1dd28:	01893c23          	sd	s8,24(s2)
   1dd2c:	02892023          	sw	s0,32(s2)
   1dd30:	01792623          	sw	s7,12(s2)
   1dd34:	00a93023          	sd	a0,0(s2)
   1dd38:	00078413          	mv	s0,a5
   1dd3c:	00078c13          	mv	s8,a5
   1dd40:	00078b93          	mv	s7,a5
   1dd44:	08f4e463          	bltu	s1,a5,1ddcc <__ssprint_r+0x194>
   1dd48:	00040613          	mv	a2,s0
   1dd4c:	000b0593          	mv	a1,s6
   1dd50:	e8cff0ef          	jal	ra,1d3dc <memmove>
   1dd54:	00c92703          	lw	a4,12(s2)
   1dd58:	00093503          	ld	a0,0(s2)
   1dd5c:	010a3783          	ld	a5,16(s4)
   1dd60:	4087043b          	subw	s0,a4,s0
   1dd64:	01850533          	add	a0,a0,s8
   1dd68:	00892623          	sw	s0,12(s2)
   1dd6c:	00a93023          	sd	a0,0(s2)
   1dd70:	417787b3          	sub	a5,a5,s7
   1dd74:	00fa3823          	sd	a5,16(s4)
   1dd78:	017b0b33          	add	s6,s6,s7
   1dd7c:	417484b3          	sub	s1,s1,s7
   1dd80:	f00796e3          	bnez	a5,1dc8c <__ssprint_r+0x54>
   1dd84:	000a2423          	sw	zero,8(s4)
   1dd88:	00000513          	li	a0,0
   1dd8c:	04813083          	ld	ra,72(sp)
   1dd90:	04013403          	ld	s0,64(sp)
   1dd94:	03813483          	ld	s1,56(sp)
   1dd98:	03013903          	ld	s2,48(sp)
   1dd9c:	02813983          	ld	s3,40(sp)
   1dda0:	02013a03          	ld	s4,32(sp)
   1dda4:	01813a83          	ld	s5,24(sp)
   1dda8:	01013b03          	ld	s6,16(sp)
   1ddac:	00813b83          	ld	s7,8(sp)
   1ddb0:	00013c03          	ld	s8,0(sp)
   1ddb4:	05010113          	addi	sp,sp,80
   1ddb8:	00008067          	ret
   1ddbc:	0009bb03          	ld	s6,0(s3)
   1ddc0:	0089b483          	ld	s1,8(s3)
   1ddc4:	01098993          	addi	s3,s3,16
   1ddc8:	ec5ff06f          	j	1dc8c <__ssprint_r+0x54>
   1ddcc:	00078413          	mv	s0,a5
   1ddd0:	00078c13          	mv	s8,a5
   1ddd4:	00078b93          	mv	s7,a5
   1ddd8:	f71ff06f          	j	1dd48 <__ssprint_r+0x110>
   1dddc:	00040613          	mv	a2,s0
   1dde0:	000a8513          	mv	a0,s5
   1dde4:	f80ff0ef          	jal	ra,1d564 <_realloc_r>
   1dde8:	00050c13          	mv	s8,a0
   1ddec:	f20518e3          	bnez	a0,1dd1c <__ssprint_r+0xe4>
   1ddf0:	01893583          	ld	a1,24(s2)
   1ddf4:	000a8513          	mv	a0,s5
   1ddf8:	965f50ef          	jal	ra,1375c <_free_r>
   1ddfc:	00c00793          	li	a5,12
   1de00:	00faa023          	sw	a5,0(s5)
   1de04:	01095783          	lhu	a5,16(s2)
   1de08:	fff00513          	li	a0,-1
   1de0c:	0407e793          	ori	a5,a5,64
   1de10:	00f91823          	sh	a5,16(s2)
   1de14:	000a3823          	sd	zero,16(s4)
   1de18:	000a2423          	sw	zero,8(s4)
   1de1c:	f71ff06f          	j	1dd8c <__ssprint_r+0x154>

000000000001de20 <_svfiprintf_r>:
   1de20:	0105d783          	lhu	a5,16(a1)
   1de24:	e3010113          	addi	sp,sp,-464
   1de28:	1b213823          	sd	s2,432(sp)
   1de2c:	1b313423          	sd	s3,424(sp)
   1de30:	19713423          	sd	s7,392(sp)
   1de34:	1c113423          	sd	ra,456(sp)
   1de38:	1c813023          	sd	s0,448(sp)
   1de3c:	1a913c23          	sd	s1,440(sp)
   1de40:	1b413023          	sd	s4,416(sp)
   1de44:	19513c23          	sd	s5,408(sp)
   1de48:	19613823          	sd	s6,400(sp)
   1de4c:	19813023          	sd	s8,384(sp)
   1de50:	17913c23          	sd	s9,376(sp)
   1de54:	17a13823          	sd	s10,368(sp)
   1de58:	17b13423          	sd	s11,360(sp)
   1de5c:	0807f793          	andi	a5,a5,128
   1de60:	00d13823          	sd	a3,16(sp)
   1de64:	00058913          	mv	s2,a1
   1de68:	00050993          	mv	s3,a0
   1de6c:	00060b93          	mv	s7,a2
   1de70:	00078663          	beqz	a5,1de7c <_svfiprintf_r+0x5c>
   1de74:	0185b783          	ld	a5,24(a1)
   1de78:	4e078ce3          	beqz	a5,1eb70 <_svfiprintf_r+0xd50>
   1de7c:	ffff87b7          	lui	a5,0xffff8
   1de80:	0e010493          	addi	s1,sp,224
   1de84:	8307c793          	xori	a5,a5,-2000
   1de88:	000b8c13          	mv	s8,s7
   1de8c:	06913023          	sd	s1,96(sp)
   1de90:	06013823          	sd	zero,112(sp)
   1de94:	06012423          	sw	zero,104(sp)
   1de98:	00013c23          	sd	zero,24(sp)
   1de9c:	02013423          	sd	zero,40(sp)
   1dea0:	02013c23          	sd	zero,56(sp)
   1dea4:	02013823          	sd	zero,48(sp)
   1dea8:	00013023          	sd	zero,0(sp)
   1deac:	00004a17          	auipc	s4,0x4
   1deb0:	d3ca0a13          	addi	s4,s4,-708 # 21be8 <_ctype_+0x108>
   1deb4:	04f13023          	sd	a5,64(sp)
   1deb8:	00048b93          	mv	s7,s1
   1debc:	000c4783          	lbu	a5,0(s8)
   1dec0:	0e078e63          	beqz	a5,1dfbc <_svfiprintf_r+0x19c>
   1dec4:	02500713          	li	a4,37
   1dec8:	46e780e3          	beq	a5,a4,1eb28 <_svfiprintf_r+0xd08>
   1decc:	000c0413          	mv	s0,s8
   1ded0:	00c0006f          	j	1dedc <_svfiprintf_r+0xbc>
   1ded4:	0ce78063          	beq	a5,a4,1df94 <_svfiprintf_r+0x174>
   1ded8:	000c8413          	mv	s0,s9
   1dedc:	00144783          	lbu	a5,1(s0)
   1dee0:	00140c93          	addi	s9,s0,1
   1dee4:	fe0798e3          	bnez	a5,1ded4 <_svfiprintf_r+0xb4>
   1dee8:	418c8d3b          	subw	s10,s9,s8
   1deec:	0c0d0863          	beqz	s10,1dfbc <_svfiprintf_r+0x19c>
   1def0:	07013703          	ld	a4,112(sp)
   1def4:	06812783          	lw	a5,104(sp)
   1def8:	018bb023          	sd	s8,0(s7)
   1defc:	01a70733          	add	a4,a4,s10
   1df00:	0017879b          	addiw	a5,a5,1
   1df04:	01abb423          	sd	s10,8(s7)
   1df08:	06e13823          	sd	a4,112(sp)
   1df0c:	06f12423          	sw	a5,104(sp)
   1df10:	0007871b          	sext.w	a4,a5
   1df14:	00700793          	li	a5,7
   1df18:	010b8b93          	addi	s7,s7,16
   1df1c:	08e7c263          	blt	a5,a4,1dfa0 <_svfiprintf_r+0x180>
   1df20:	00013703          	ld	a4,0(sp)
   1df24:	00144783          	lbu	a5,1(s0)
   1df28:	00ed073b          	addw	a4,s10,a4
   1df2c:	00e13023          	sd	a4,0(sp)
   1df30:	08078663          	beqz	a5,1dfbc <_svfiprintf_r+0x19c>
   1df34:	001c8c13          	addi	s8,s9,1
   1df38:	001cc703          	lbu	a4,1(s9)
   1df3c:	04010ba3          	sb	zero,87(sp)
   1df40:	fff00a93          	li	s5,-1
   1df44:	00000413          	li	s0,0
   1df48:	00000b13          	li	s6,0
   1df4c:	00900c93          	li	s9,9
   1df50:	02a00d13          	li	s10,42
   1df54:	001c0c13          	addi	s8,s8,1
   1df58:	0007071b          	sext.w	a4,a4
   1df5c:	05a00613          	li	a2,90
   1df60:	fe07079b          	addiw	a5,a4,-32
   1df64:	0007869b          	sext.w	a3,a5
   1df68:	1ad66063          	bltu	a2,a3,1e108 <_svfiprintf_r+0x2e8>
   1df6c:	02079793          	slli	a5,a5,0x20
   1df70:	01e7d793          	srli	a5,a5,0x1e
   1df74:	014787b3          	add	a5,a5,s4
   1df78:	0007a783          	lw	a5,0(a5) # ffffffffffff8000 <__BSS_END__+0xfffffffffffd4df8>
   1df7c:	014787b3          	add	a5,a5,s4
   1df80:	00078067          	jr	a5
   1df84:	010b6b13          	ori	s6,s6,16
   1df88:	000b0b1b          	sext.w	s6,s6
   1df8c:	000c4703          	lbu	a4,0(s8)
   1df90:	fc5ff06f          	j	1df54 <_svfiprintf_r+0x134>
   1df94:	418c8d3b          	subw	s10,s9,s8
   1df98:	f80d0ee3          	beqz	s10,1df34 <_svfiprintf_r+0x114>
   1df9c:	f55ff06f          	j	1def0 <_svfiprintf_r+0xd0>
   1dfa0:	06010613          	addi	a2,sp,96
   1dfa4:	00090593          	mv	a1,s2
   1dfa8:	00098513          	mv	a0,s3
   1dfac:	c8dff0ef          	jal	ra,1dc38 <__ssprint_r>
   1dfb0:	02051263          	bnez	a0,1dfd4 <_svfiprintf_r+0x1b4>
   1dfb4:	00048b93          	mv	s7,s1
   1dfb8:	f69ff06f          	j	1df20 <_svfiprintf_r+0x100>
   1dfbc:	07013783          	ld	a5,112(sp)
   1dfc0:	00078a63          	beqz	a5,1dfd4 <_svfiprintf_r+0x1b4>
   1dfc4:	06010613          	addi	a2,sp,96
   1dfc8:	00090593          	mv	a1,s2
   1dfcc:	00098513          	mv	a0,s3
   1dfd0:	c69ff0ef          	jal	ra,1dc38 <__ssprint_r>
   1dfd4:	01095783          	lhu	a5,16(s2)
   1dfd8:	0407f793          	andi	a5,a5,64
   1dfdc:	620796e3          	bnez	a5,1ee08 <_svfiprintf_r+0xfe8>
   1dfe0:	1c813083          	ld	ra,456(sp)
   1dfe4:	1c013403          	ld	s0,448(sp)
   1dfe8:	00013503          	ld	a0,0(sp)
   1dfec:	1b813483          	ld	s1,440(sp)
   1dff0:	1b013903          	ld	s2,432(sp)
   1dff4:	1a813983          	ld	s3,424(sp)
   1dff8:	1a013a03          	ld	s4,416(sp)
   1dffc:	19813a83          	ld	s5,408(sp)
   1e000:	19013b03          	ld	s6,400(sp)
   1e004:	18813b83          	ld	s7,392(sp)
   1e008:	18013c03          	ld	s8,384(sp)
   1e00c:	17813c83          	ld	s9,376(sp)
   1e010:	17013d03          	ld	s10,368(sp)
   1e014:	16813d83          	ld	s11,360(sp)
   1e018:	1d010113          	addi	sp,sp,464
   1e01c:	00008067          	ret
   1e020:	01013683          	ld	a3,16(sp)
   1e024:	00003797          	auipc	a5,0x3
   1e028:	39478793          	addi	a5,a5,916 # 213b8 <zeroes.4539+0x80>
   1e02c:	00f13c23          	sd	a5,24(sp)
   1e030:	020b7793          	andi	a5,s6,32
   1e034:	00868613          	addi	a2,a3,8
   1e038:	4e078463          	beqz	a5,1e520 <_svfiprintf_r+0x700>
   1e03c:	0006bd83          	ld	s11,0(a3)
   1e040:	001b7793          	andi	a5,s6,1
   1e044:	00078e63          	beqz	a5,1e060 <_svfiprintf_r+0x240>
   1e048:	000d8c63          	beqz	s11,1e060 <_svfiprintf_r+0x240>
   1e04c:	002b6893          	ori	a7,s6,2
   1e050:	03000793          	li	a5,48
   1e054:	04f10c23          	sb	a5,88(sp)
   1e058:	04e10ca3          	sb	a4,89(sp)
   1e05c:	00088b1b          	sext.w	s6,a7
   1e060:	bffb7893          	andi	a7,s6,-1025
   1e064:	00088c9b          	sext.w	s9,a7
   1e068:	00c13823          	sd	a2,16(sp)
   1e06c:	00200793          	li	a5,2
   1e070:	04010ba3          	sb	zero,87(sp)
   1e074:	fff00713          	li	a4,-1
   1e078:	52ea8a63          	beq	s5,a4,1e5ac <_svfiprintf_r+0x78c>
   1e07c:	f7fcf893          	andi	a7,s9,-129
   1e080:	00088b1b          	sext.w	s6,a7
   1e084:	020d96e3          	bnez	s11,1e8b0 <_svfiprintf_r+0xa90>
   1e088:	600a9663          	bnez	s5,1e694 <_svfiprintf_r+0x874>
   1e08c:	260790e3          	bnez	a5,1eaec <_svfiprintf_r+0xccc>
   1e090:	001cf793          	andi	a5,s9,1
   1e094:	00f13423          	sd	a5,8(sp)
   1e098:	0dc10d13          	addi	s10,sp,220
   1e09c:	00078863          	beqz	a5,1e0ac <_svfiprintf_r+0x28c>
   1e0a0:	03000793          	li	a5,48
   1e0a4:	0cf10da3          	sb	a5,219(sp)
   1e0a8:	0db10d13          	addi	s10,sp,219
   1e0ac:	00813703          	ld	a4,8(sp)
   1e0b0:	000a8793          	mv	a5,s5
   1e0b4:	00ead463          	bge	s5,a4,1e0bc <_svfiprintf_r+0x29c>
   1e0b8:	00070793          	mv	a5,a4
   1e0bc:	05714703          	lbu	a4,87(sp)
   1e0c0:	00078c9b          	sext.w	s9,a5
   1e0c4:	06070263          	beqz	a4,1e128 <_svfiprintf_r+0x308>
   1e0c8:	00178c9b          	addiw	s9,a5,1
   1e0cc:	05c0006f          	j	1e128 <_svfiprintf_r+0x308>
   1e0d0:	00000413          	li	s0,0
   1e0d4:	001c0c13          	addi	s8,s8,1
   1e0d8:	fffc4683          	lbu	a3,-1(s8)
   1e0dc:	0024179b          	slliw	a5,s0,0x2
   1e0e0:	0087843b          	addw	s0,a5,s0
   1e0e4:	fd07071b          	addiw	a4,a4,-48
   1e0e8:	0014141b          	slliw	s0,s0,0x1
   1e0ec:	fd06879b          	addiw	a5,a3,-48
   1e0f0:	0087043b          	addw	s0,a4,s0
   1e0f4:	0006871b          	sext.w	a4,a3
   1e0f8:	fcfcfee3          	bgeu	s9,a5,1e0d4 <_svfiprintf_r+0x2b4>
   1e0fc:	fe07079b          	addiw	a5,a4,-32
   1e100:	0007869b          	sext.w	a3,a5
   1e104:	e6d674e3          	bgeu	a2,a3,1df6c <_svfiprintf_r+0x14c>
   1e108:	ea070ae3          	beqz	a4,1dfbc <_svfiprintf_r+0x19c>
   1e10c:	00100793          	li	a5,1
   1e110:	06e10c23          	sb	a4,120(sp)
   1e114:	04010ba3          	sb	zero,87(sp)
   1e118:	00100c93          	li	s9,1
   1e11c:	00f13423          	sd	a5,8(sp)
   1e120:	07810d13          	addi	s10,sp,120
   1e124:	00000a93          	li	s5,0
   1e128:	002b7e93          	andi	t4,s6,2
   1e12c:	000e8e9b          	sext.w	t4,t4
   1e130:	000e8463          	beqz	t4,1e138 <_svfiprintf_r+0x318>
   1e134:	002c8c9b          	addiw	s9,s9,2
   1e138:	084b7f13          	andi	t5,s6,132
   1e13c:	07013783          	ld	a5,112(sp)
   1e140:	06812603          	lw	a2,104(sp)
   1e144:	000f1663          	bnez	t5,1e150 <_svfiprintf_r+0x330>
   1e148:	41940dbb          	subw	s11,s0,s9
   1e14c:	77b04663          	bgtz	s11,1e8b8 <_svfiprintf_r+0xa98>
   1e150:	05714e03          	lbu	t3,87(sp)
   1e154:	0016059b          	addiw	a1,a2,1
   1e158:	010b8713          	addi	a4,s7,16
   1e15c:	040e0063          	beqz	t3,1e19c <_svfiprintf_r+0x37c>
   1e160:	05710e13          	addi	t3,sp,87
   1e164:	00178793          	addi	a5,a5,1
   1e168:	01cbb023          	sd	t3,0(s7)
   1e16c:	00100e13          	li	t3,1
   1e170:	01cbb423          	sd	t3,8(s7)
   1e174:	06f13823          	sd	a5,112(sp)
   1e178:	06b12423          	sw	a1,104(sp)
   1e17c:	00700513          	li	a0,7
   1e180:	04b542e3          	blt	a0,a1,1e9c4 <_svfiprintf_r+0xba4>
   1e184:	00260e1b          	addiw	t3,a2,2
   1e188:	020b8513          	addi	a0,s7,32
   1e18c:	00058613          	mv	a2,a1
   1e190:	00070b93          	mv	s7,a4
   1e194:	000e0593          	mv	a1,t3
   1e198:	00050713          	mv	a4,a0
   1e19c:	020e8c63          	beqz	t4,1e1d4 <_svfiprintf_r+0x3b4>
   1e1a0:	05810613          	addi	a2,sp,88
   1e1a4:	00278793          	addi	a5,a5,2
   1e1a8:	00cbb023          	sd	a2,0(s7)
   1e1ac:	00200613          	li	a2,2
   1e1b0:	00cbb423          	sd	a2,8(s7)
   1e1b4:	06f13823          	sd	a5,112(sp)
   1e1b8:	06b12423          	sw	a1,104(sp)
   1e1bc:	00700613          	li	a2,7
   1e1c0:	04b640e3          	blt	a2,a1,1ea00 <_svfiprintf_r+0xbe0>
   1e1c4:	00058613          	mv	a2,a1
   1e1c8:	00070b93          	mv	s7,a4
   1e1cc:	0015859b          	addiw	a1,a1,1
   1e1d0:	01070713          	addi	a4,a4,16
   1e1d4:	08000513          	li	a0,128
   1e1d8:	50af0463          	beq	t5,a0,1e6e0 <_svfiprintf_r+0x8c0>
   1e1dc:	00813683          	ld	a3,8(sp)
   1e1e0:	40da8abb          	subw	s5,s5,a3
   1e1e4:	5d504263          	bgtz	s5,1e7a8 <_svfiprintf_r+0x988>
   1e1e8:	00813683          	ld	a3,8(sp)
   1e1ec:	01abb023          	sd	s10,0(s7)
   1e1f0:	06b12423          	sw	a1,104(sp)
   1e1f4:	00f687b3          	add	a5,a3,a5
   1e1f8:	00dbb423          	sd	a3,8(s7)
   1e1fc:	06f13823          	sd	a5,112(sp)
   1e200:	00700613          	li	a2,7
   1e204:	66b64a63          	blt	a2,a1,1e878 <_svfiprintf_r+0xa58>
   1e208:	004b7893          	andi	a7,s6,4
   1e20c:	00088663          	beqz	a7,1e218 <_svfiprintf_r+0x3f8>
   1e210:	41940bbb          	subw	s7,s0,s9
   1e214:	037040e3          	bgtz	s7,1ea34 <_svfiprintf_r+0xc14>
   1e218:	00040713          	mv	a4,s0
   1e21c:	01945463          	bge	s0,s9,1e224 <_svfiprintf_r+0x404>
   1e220:	000c8713          	mv	a4,s9
   1e224:	00013683          	ld	a3,0(sp)
   1e228:	00d7073b          	addw	a4,a4,a3
   1e22c:	00e13023          	sd	a4,0(sp)
   1e230:	66079463          	bnez	a5,1e898 <_svfiprintf_r+0xa78>
   1e234:	06012423          	sw	zero,104(sp)
   1e238:	00048b93          	mv	s7,s1
   1e23c:	c81ff06f          	j	1debc <_svfiprintf_r+0x9c>
   1e240:	01013703          	ld	a4,16(sp)
   1e244:	04010ba3          	sb	zero,87(sp)
   1e248:	00100c93          	li	s9,1
   1e24c:	00072783          	lw	a5,0(a4)
   1e250:	00870713          	addi	a4,a4,8
   1e254:	00e13823          	sd	a4,16(sp)
   1e258:	06f10c23          	sb	a5,120(sp)
   1e25c:	00100793          	li	a5,1
   1e260:	00f13423          	sd	a5,8(sp)
   1e264:	07810d13          	addi	s10,sp,120
   1e268:	ebdff06f          	j	1e124 <_svfiprintf_r+0x304>
   1e26c:	001b6b13          	ori	s6,s6,1
   1e270:	000b0b1b          	sext.w	s6,s6
   1e274:	000c4703          	lbu	a4,0(s8)
   1e278:	cddff06f          	j	1df54 <_svfiprintf_r+0x134>
   1e27c:	000c4703          	lbu	a4,0(s8)
   1e280:	004b6b13          	ori	s6,s6,4
   1e284:	000b0b1b          	sext.w	s6,s6
   1e288:	ccdff06f          	j	1df54 <_svfiprintf_r+0x134>
   1e28c:	02b00793          	li	a5,43
   1e290:	04f10ba3          	sb	a5,87(sp)
   1e294:	000c4703          	lbu	a4,0(s8)
   1e298:	cbdff06f          	j	1df54 <_svfiprintf_r+0x134>
   1e29c:	01013783          	ld	a5,16(sp)
   1e2a0:	000c4703          	lbu	a4,0(s8)
   1e2a4:	0007a403          	lw	s0,0(a5)
   1e2a8:	00878793          	addi	a5,a5,8
   1e2ac:	00f13823          	sd	a5,16(sp)
   1e2b0:	ca0452e3          	bgez	s0,1df54 <_svfiprintf_r+0x134>
   1e2b4:	4080043b          	negw	s0,s0
   1e2b8:	fc9ff06f          	j	1e280 <_svfiprintf_r+0x460>
   1e2bc:	00098513          	mv	a0,s3
   1e2c0:	d5cf80ef          	jal	ra,1681c <_localeconv_r>
   1e2c4:	00853783          	ld	a5,8(a0)
   1e2c8:	00078513          	mv	a0,a5
   1e2cc:	02f13823          	sd	a5,48(sp)
   1e2d0:	885fa0ef          	jal	ra,18b54 <strlen>
   1e2d4:	02a13c23          	sd	a0,56(sp)
   1e2d8:	00050d93          	mv	s11,a0
   1e2dc:	00098513          	mv	a0,s3
   1e2e0:	d3cf80ef          	jal	ra,1681c <_localeconv_r>
   1e2e4:	01053783          	ld	a5,16(a0)
   1e2e8:	000c4703          	lbu	a4,0(s8)
   1e2ec:	02f13423          	sd	a5,40(sp)
   1e2f0:	c60d82e3          	beqz	s11,1df54 <_svfiprintf_r+0x134>
   1e2f4:	c60780e3          	beqz	a5,1df54 <_svfiprintf_r+0x134>
   1e2f8:	0007c783          	lbu	a5,0(a5)
   1e2fc:	c4078ce3          	beqz	a5,1df54 <_svfiprintf_r+0x134>
   1e300:	400b6b13          	ori	s6,s6,1024
   1e304:	000b0b1b          	sext.w	s6,s6
   1e308:	c4dff06f          	j	1df54 <_svfiprintf_r+0x134>
   1e30c:	080b6b13          	ori	s6,s6,128
   1e310:	000b0b1b          	sext.w	s6,s6
   1e314:	000c4703          	lbu	a4,0(s8)
   1e318:	c3dff06f          	j	1df54 <_svfiprintf_r+0x134>
   1e31c:	000c4703          	lbu	a4,0(s8)
   1e320:	001c0793          	addi	a5,s8,1
   1e324:	2fa708e3          	beq	a4,s10,1ee14 <_svfiprintf_r+0xff4>
   1e328:	fd07069b          	addiw	a3,a4,-48
   1e32c:	00078c13          	mv	s8,a5
   1e330:	00000a93          	li	s5,0
   1e334:	c2dce6e3          	bltu	s9,a3,1df60 <_svfiprintf_r+0x140>
   1e338:	001c0c13          	addi	s8,s8,1
   1e33c:	002a979b          	slliw	a5,s5,0x2
   1e340:	fffc4703          	lbu	a4,-1(s8)
   1e344:	01578abb          	addw	s5,a5,s5
   1e348:	001a9a9b          	slliw	s5,s5,0x1
   1e34c:	00da8abb          	addw	s5,s5,a3
   1e350:	fd07069b          	addiw	a3,a4,-48
   1e354:	fedcf2e3          	bgeu	s9,a3,1e338 <_svfiprintf_r+0x518>
   1e358:	c09ff06f          	j	1df60 <_svfiprintf_r+0x140>
   1e35c:	01013783          	ld	a5,16(sp)
   1e360:	010b6e93          	ori	t4,s6,16
   1e364:	000e8c9b          	sext.w	s9,t4
   1e368:	00878713          	addi	a4,a5,8
   1e36c:	01013783          	ld	a5,16(sp)
   1e370:	0007bd83          	ld	s11,0(a5)
   1e374:	00100793          	li	a5,1
   1e378:	00e13823          	sd	a4,16(sp)
   1e37c:	cf5ff06f          	j	1e070 <_svfiprintf_r+0x250>
   1e380:	01013783          	ld	a5,16(sp)
   1e384:	04010ba3          	sb	zero,87(sp)
   1e388:	0007bd03          	ld	s10,0(a5)
   1e38c:	00878d93          	addi	s11,a5,8
   1e390:	140d04e3          	beqz	s10,1ecd8 <_svfiprintf_r+0xeb8>
   1e394:	fff00793          	li	a5,-1
   1e398:	7afa8e63          	beq	s5,a5,1eb54 <_svfiprintf_r+0xd34>
   1e39c:	000a8613          	mv	a2,s5
   1e3a0:	00000593          	li	a1,0
   1e3a4:	000d0513          	mv	a0,s10
   1e3a8:	fd9f80ef          	jal	ra,17380 <memchr>
   1e3ac:	220508e3          	beqz	a0,1eddc <_svfiprintf_r+0xfbc>
   1e3b0:	41a507bb          	subw	a5,a0,s10
   1e3b4:	00f13423          	sd	a5,8(sp)
   1e3b8:	01b13823          	sd	s11,16(sp)
   1e3bc:	00000a93          	li	s5,0
   1e3c0:	cedff06f          	j	1e0ac <_svfiprintf_r+0x28c>
   1e3c4:	010b6793          	ori	a5,s6,16
   1e3c8:	0007889b          	sext.w	a7,a5
   1e3cc:	01013783          	ld	a5,16(sp)
   1e3d0:	00878793          	addi	a5,a5,8
   1e3d4:	01013703          	ld	a4,16(sp)
   1e3d8:	00073d83          	ld	s11,0(a4)
   1e3dc:	00f13823          	sd	a5,16(sp)
   1e3e0:	bff8f893          	andi	a7,a7,-1025
   1e3e4:	00088c9b          	sext.w	s9,a7
   1e3e8:	00000793          	li	a5,0
   1e3ec:	c85ff06f          	j	1e070 <_svfiprintf_r+0x250>
   1e3f0:	01013783          	ld	a5,16(sp)
   1e3f4:	010b6e93          	ori	t4,s6,16
   1e3f8:	000e8c9b          	sext.w	s9,t4
   1e3fc:	00878713          	addi	a4,a5,8
   1e400:	01013783          	ld	a5,16(sp)
   1e404:	0007b783          	ld	a5,0(a5)
   1e408:	00e13823          	sd	a4,16(sp)
   1e40c:	00078d93          	mv	s11,a5
   1e410:	1807c263          	bltz	a5,1e594 <_svfiprintf_r+0x774>
   1e414:	fff00793          	li	a5,-1
   1e418:	00fa8a63          	beq	s5,a5,1e42c <_svfiprintf_r+0x60c>
   1e41c:	f7fcf893          	andi	a7,s9,-129
   1e420:	00088b1b          	sext.w	s6,a7
   1e424:	6c0d8263          	beqz	s11,1eae8 <_svfiprintf_r+0xcc8>
   1e428:	000b0c93          	mv	s9,s6
   1e42c:	00900793          	li	a5,9
   1e430:	77b7e063          	bltu	a5,s11,1eb90 <_svfiprintf_r+0xd70>
   1e434:	030d8e1b          	addiw	t3,s11,48
   1e438:	00100793          	li	a5,1
   1e43c:	0dc10da3          	sb	t3,219(sp)
   1e440:	000c8b13          	mv	s6,s9
   1e444:	00f13423          	sd	a5,8(sp)
   1e448:	0db10d13          	addi	s10,sp,219
   1e44c:	c61ff06f          	j	1e0ac <_svfiprintf_r+0x28c>
   1e450:	020b6b13          	ori	s6,s6,32
   1e454:	000b0b1b          	sext.w	s6,s6
   1e458:	000c4703          	lbu	a4,0(s8)
   1e45c:	af9ff06f          	j	1df54 <_svfiprintf_r+0x134>
   1e460:	01013783          	ld	a5,16(sp)
   1e464:	04013703          	ld	a4,64(sp)
   1e468:	002b6893          	ori	a7,s6,2
   1e46c:	0007bd83          	ld	s11,0(a5)
   1e470:	00878793          	addi	a5,a5,8
   1e474:	00f13823          	sd	a5,16(sp)
   1e478:	00003797          	auipc	a5,0x3
   1e47c:	f2878793          	addi	a5,a5,-216 # 213a0 <zeroes.4539+0x68>
   1e480:	00f13c23          	sd	a5,24(sp)
   1e484:	00088c9b          	sext.w	s9,a7
   1e488:	04e11c23          	sh	a4,88(sp)
   1e48c:	00200793          	li	a5,2
   1e490:	be1ff06f          	j	1e070 <_svfiprintf_r+0x250>
   1e494:	01013703          	ld	a4,16(sp)
   1e498:	020b7793          	andi	a5,s6,32
   1e49c:	00870713          	addi	a4,a4,8
   1e4a0:	6a079063          	bnez	a5,1eb40 <_svfiprintf_r+0xd20>
   1e4a4:	010b7793          	andi	a5,s6,16
   1e4a8:	68079c63          	bnez	a5,1eb40 <_svfiprintf_r+0xd20>
   1e4ac:	01013683          	ld	a3,16(sp)
   1e4b0:	040b7793          	andi	a5,s6,64
   1e4b4:	0006ae03          	lw	t3,0(a3)
   1e4b8:	040788e3          	beqz	a5,1ed08 <_svfiprintf_r+0xee8>
   1e4bc:	030e1d93          	slli	s11,t3,0x30
   1e4c0:	030ddd93          	srli	s11,s11,0x30
   1e4c4:	00e13823          	sd	a4,16(sp)
   1e4c8:	000b0c93          	mv	s9,s6
   1e4cc:	00100793          	li	a5,1
   1e4d0:	ba1ff06f          	j	1e070 <_svfiprintf_r+0x250>
   1e4d4:	05714783          	lbu	a5,87(sp)
   1e4d8:	000c4703          	lbu	a4,0(s8)
   1e4dc:	a6079ce3          	bnez	a5,1df54 <_svfiprintf_r+0x134>
   1e4e0:	02000793          	li	a5,32
   1e4e4:	04f10ba3          	sb	a5,87(sp)
   1e4e8:	a6dff06f          	j	1df54 <_svfiprintf_r+0x134>
   1e4ec:	000c4703          	lbu	a4,0(s8)
   1e4f0:	06c00793          	li	a5,108
   1e4f4:	7af70263          	beq	a4,a5,1ec98 <_svfiprintf_r+0xe78>
   1e4f8:	010b6b13          	ori	s6,s6,16
   1e4fc:	000b0b1b          	sext.w	s6,s6
   1e500:	a55ff06f          	j	1df54 <_svfiprintf_r+0x134>
   1e504:	01013683          	ld	a3,16(sp)
   1e508:	00003797          	auipc	a5,0x3
   1e50c:	e9878793          	addi	a5,a5,-360 # 213a0 <zeroes.4539+0x68>
   1e510:	00f13c23          	sd	a5,24(sp)
   1e514:	020b7793          	andi	a5,s6,32
   1e518:	00868613          	addi	a2,a3,8
   1e51c:	b20790e3          	bnez	a5,1e03c <_svfiprintf_r+0x21c>
   1e520:	010b7793          	andi	a5,s6,16
   1e524:	62079263          	bnez	a5,1eb48 <_svfiprintf_r+0xd28>
   1e528:	01013683          	ld	a3,16(sp)
   1e52c:	040b7793          	andi	a5,s6,64
   1e530:	0006ae03          	lw	t3,0(a3)
   1e534:	7e078863          	beqz	a5,1ed24 <_svfiprintf_r+0xf04>
   1e538:	030e1d93          	slli	s11,t3,0x30
   1e53c:	030ddd93          	srli	s11,s11,0x30
   1e540:	b01ff06f          	j	1e040 <_svfiprintf_r+0x220>
   1e544:	000c4703          	lbu	a4,0(s8)
   1e548:	06800793          	li	a5,104
   1e54c:	72f70c63          	beq	a4,a5,1ec84 <_svfiprintf_r+0xe64>
   1e550:	040b6b13          	ori	s6,s6,64
   1e554:	000b0b1b          	sext.w	s6,s6
   1e558:	9fdff06f          	j	1df54 <_svfiprintf_r+0x134>
   1e55c:	01013703          	ld	a4,16(sp)
   1e560:	020b7793          	andi	a5,s6,32
   1e564:	00870713          	addi	a4,a4,8
   1e568:	5c079863          	bnez	a5,1eb38 <_svfiprintf_r+0xd18>
   1e56c:	010b7793          	andi	a5,s6,16
   1e570:	5c079463          	bnez	a5,1eb38 <_svfiprintf_r+0xd18>
   1e574:	040b7793          	andi	a5,s6,64
   1e578:	7c078e63          	beqz	a5,1ed54 <_svfiprintf_r+0xf34>
   1e57c:	01013783          	ld	a5,16(sp)
   1e580:	00e13823          	sd	a4,16(sp)
   1e584:	000b0c93          	mv	s9,s6
   1e588:	00079d83          	lh	s11,0(a5)
   1e58c:	000d8793          	mv	a5,s11
   1e590:	e807d2e3          	bgez	a5,1e414 <_svfiprintf_r+0x5f4>
   1e594:	02d00793          	li	a5,45
   1e598:	04f10ba3          	sb	a5,87(sp)
   1e59c:	fff00713          	li	a4,-1
   1e5a0:	41b00db3          	neg	s11,s11
   1e5a4:	00100793          	li	a5,1
   1e5a8:	acea9ae3          	bne	s5,a4,1e07c <_svfiprintf_r+0x25c>
   1e5ac:	00100713          	li	a4,1
   1e5b0:	e6e78ee3          	beq	a5,a4,1e42c <_svfiprintf_r+0x60c>
   1e5b4:	00200713          	li	a4,2
   1e5b8:	0ee78863          	beq	a5,a4,1e6a8 <_svfiprintf_r+0x888>
   1e5bc:	0dc10713          	addi	a4,sp,220
   1e5c0:	0080006f          	j	1e5c8 <_svfiprintf_r+0x7a8>
   1e5c4:	000d0713          	mv	a4,s10
   1e5c8:	007df793          	andi	a5,s11,7
   1e5cc:	03078793          	addi	a5,a5,48
   1e5d0:	fef70fa3          	sb	a5,-1(a4)
   1e5d4:	003ddd93          	srli	s11,s11,0x3
   1e5d8:	fff70d13          	addi	s10,a4,-1
   1e5dc:	fe0d94e3          	bnez	s11,1e5c4 <_svfiprintf_r+0x7a4>
   1e5e0:	001cf613          	andi	a2,s9,1
   1e5e4:	0e060463          	beqz	a2,1e6cc <_svfiprintf_r+0x8ac>
   1e5e8:	03000613          	li	a2,48
   1e5ec:	0ec78063          	beq	a5,a2,1e6cc <_svfiprintf_r+0x8ac>
   1e5f0:	ffe70713          	addi	a4,a4,-2
   1e5f4:	0dc10793          	addi	a5,sp,220
   1e5f8:	40e787bb          	subw	a5,a5,a4
   1e5fc:	fecd0fa3          	sb	a2,-1(s10)
   1e600:	00f13423          	sd	a5,8(sp)
   1e604:	000c8b13          	mv	s6,s9
   1e608:	00070d13          	mv	s10,a4
   1e60c:	aa1ff06f          	j	1e0ac <_svfiprintf_r+0x28c>
   1e610:	01013783          	ld	a5,16(sp)
   1e614:	020b7713          	andi	a4,s6,32
   1e618:	00878793          	addi	a5,a5,8
   1e61c:	50071a63          	bnez	a4,1eb30 <_svfiprintf_r+0xd10>
   1e620:	010b7713          	andi	a4,s6,16
   1e624:	50071663          	bnez	a4,1eb30 <_svfiprintf_r+0xd10>
   1e628:	01013683          	ld	a3,16(sp)
   1e62c:	040b7713          	andi	a4,s6,64
   1e630:	0006ae03          	lw	t3,0(a3)
   1e634:	70070463          	beqz	a4,1ed3c <_svfiprintf_r+0xf1c>
   1e638:	030e1d93          	slli	s11,t3,0x30
   1e63c:	030ddd93          	srli	s11,s11,0x30
   1e640:	000b0893          	mv	a7,s6
   1e644:	00f13823          	sd	a5,16(sp)
   1e648:	d99ff06f          	j	1e3e0 <_svfiprintf_r+0x5c0>
   1e64c:	01013683          	ld	a3,16(sp)
   1e650:	020b7793          	andi	a5,s6,32
   1e654:	0006b703          	ld	a4,0(a3)
   1e658:	00868693          	addi	a3,a3,8
   1e65c:	00d13823          	sd	a3,16(sp)
   1e660:	02079463          	bnez	a5,1e688 <_svfiprintf_r+0x868>
   1e664:	010b7793          	andi	a5,s6,16
   1e668:	02079063          	bnez	a5,1e688 <_svfiprintf_r+0x868>
   1e66c:	040b7793          	andi	a5,s6,64
   1e670:	74079c63          	bnez	a5,1edc8 <_svfiprintf_r+0xfa8>
   1e674:	200b7893          	andi	a7,s6,512
   1e678:	00013783          	ld	a5,0(sp)
   1e67c:	78088263          	beqz	a7,1ee00 <_svfiprintf_r+0xfe0>
   1e680:	00f70023          	sb	a5,0(a4)
   1e684:	839ff06f          	j	1debc <_svfiprintf_r+0x9c>
   1e688:	00013783          	ld	a5,0(sp)
   1e68c:	00f73023          	sd	a5,0(a4)
   1e690:	82dff06f          	j	1debc <_svfiprintf_r+0x9c>
   1e694:	00100713          	li	a4,1
   1e698:	72e78e63          	beq	a5,a4,1edd4 <_svfiprintf_r+0xfb4>
   1e69c:	00200713          	li	a4,2
   1e6a0:	000b0c93          	mv	s9,s6
   1e6a4:	f0e79ce3          	bne	a5,a4,1e5bc <_svfiprintf_r+0x79c>
   1e6a8:	01813703          	ld	a4,24(sp)
   1e6ac:	0dc10d13          	addi	s10,sp,220
   1e6b0:	00fdf793          	andi	a5,s11,15
   1e6b4:	00f707b3          	add	a5,a4,a5
   1e6b8:	0007c783          	lbu	a5,0(a5)
   1e6bc:	fffd0d13          	addi	s10,s10,-1
   1e6c0:	004ddd93          	srli	s11,s11,0x4
   1e6c4:	00fd0023          	sb	a5,0(s10)
   1e6c8:	fe0d94e3          	bnez	s11,1e6b0 <_svfiprintf_r+0x890>
   1e6cc:	0dc10793          	addi	a5,sp,220
   1e6d0:	41a787bb          	subw	a5,a5,s10
   1e6d4:	00f13423          	sd	a5,8(sp)
   1e6d8:	000c8b13          	mv	s6,s9
   1e6dc:	9d1ff06f          	j	1e0ac <_svfiprintf_r+0x28c>
   1e6e0:	41940dbb          	subw	s11,s0,s9
   1e6e4:	afb05ce3          	blez	s11,1e1dc <_svfiprintf_r+0x3bc>
   1e6e8:	01000513          	li	a0,16
   1e6ec:	71b55063          	bge	a0,s11,1edec <_svfiprintf_r+0xfcc>
   1e6f0:	00003e17          	auipc	t3,0x3
   1e6f4:	678e0e13          	addi	t3,t3,1656 # 21d68 <zeroes.4501>
   1e6f8:	02813023          	sd	s0,32(sp)
   1e6fc:	01000e93          	li	t4,16
   1e700:	00700f13          	li	t5,7
   1e704:	000e0413          	mv	s0,t3
   1e708:	00c0006f          	j	1e714 <_svfiprintf_r+0x8f4>
   1e70c:	ff0d8d9b          	addiw	s11,s11,-16
   1e710:	05beda63          	bge	t4,s11,1e764 <_svfiprintf_r+0x944>
   1e714:	0016061b          	addiw	a2,a2,1
   1e718:	01078793          	addi	a5,a5,16
   1e71c:	008bb023          	sd	s0,0(s7)
   1e720:	01dbb423          	sd	t4,8(s7)
   1e724:	06f13823          	sd	a5,112(sp)
   1e728:	06c12423          	sw	a2,104(sp)
   1e72c:	010b8b93          	addi	s7,s7,16
   1e730:	fccf5ee3          	bge	t5,a2,1e70c <_svfiprintf_r+0x8ec>
   1e734:	06010613          	addi	a2,sp,96
   1e738:	00090593          	mv	a1,s2
   1e73c:	00098513          	mv	a0,s3
   1e740:	cf8ff0ef          	jal	ra,1dc38 <__ssprint_r>
   1e744:	880518e3          	bnez	a0,1dfd4 <_svfiprintf_r+0x1b4>
   1e748:	01000e93          	li	t4,16
   1e74c:	ff0d8d9b          	addiw	s11,s11,-16
   1e750:	07013783          	ld	a5,112(sp)
   1e754:	06812603          	lw	a2,104(sp)
   1e758:	00048b93          	mv	s7,s1
   1e75c:	00700f13          	li	t5,7
   1e760:	fbbecae3          	blt	t4,s11,1e714 <_svfiprintf_r+0x8f4>
   1e764:	00040e13          	mv	t3,s0
   1e768:	02013403          	ld	s0,32(sp)
   1e76c:	0016061b          	addiw	a2,a2,1
   1e770:	010b8513          	addi	a0,s7,16
   1e774:	01b787b3          	add	a5,a5,s11
   1e778:	01cbb023          	sd	t3,0(s7)
   1e77c:	01bbb423          	sd	s11,8(s7)
   1e780:	06f13823          	sd	a5,112(sp)
   1e784:	06c12423          	sw	a2,104(sp)
   1e788:	00700713          	li	a4,7
   1e78c:	52c74063          	blt	a4,a2,1ecac <_svfiprintf_r+0xe8c>
   1e790:	00813683          	ld	a3,8(sp)
   1e794:	0016059b          	addiw	a1,a2,1
   1e798:	01050713          	addi	a4,a0,16
   1e79c:	40da8abb          	subw	s5,s5,a3
   1e7a0:	00050b93          	mv	s7,a0
   1e7a4:	a55052e3          	blez	s5,1e1e8 <_svfiprintf_r+0x3c8>
   1e7a8:	01000513          	li	a0,16
   1e7ac:	5d555463          	bge	a0,s5,1ed74 <_svfiprintf_r+0xf54>
   1e7b0:	00003e17          	auipc	t3,0x3
   1e7b4:	5b8e0e13          	addi	t3,t3,1464 # 21d68 <zeroes.4501>
   1e7b8:	02813023          	sd	s0,32(sp)
   1e7bc:	01000813          	li	a6,16
   1e7c0:	00700d93          	li	s11,7
   1e7c4:	000e0413          	mv	s0,t3
   1e7c8:	00c0006f          	j	1e7d4 <_svfiprintf_r+0x9b4>
   1e7cc:	ff0a8a9b          	addiw	s5,s5,-16
   1e7d0:	05585863          	bge	a6,s5,1e820 <_svfiprintf_r+0xa00>
   1e7d4:	0016061b          	addiw	a2,a2,1
   1e7d8:	01078793          	addi	a5,a5,16
   1e7dc:	008bb023          	sd	s0,0(s7)
   1e7e0:	010bb423          	sd	a6,8(s7)
   1e7e4:	06f13823          	sd	a5,112(sp)
   1e7e8:	06c12423          	sw	a2,104(sp)
   1e7ec:	010b8b93          	addi	s7,s7,16
   1e7f0:	fccddee3          	bge	s11,a2,1e7cc <_svfiprintf_r+0x9ac>
   1e7f4:	06010613          	addi	a2,sp,96
   1e7f8:	00090593          	mv	a1,s2
   1e7fc:	00098513          	mv	a0,s3
   1e800:	c38ff0ef          	jal	ra,1dc38 <__ssprint_r>
   1e804:	fc051863          	bnez	a0,1dfd4 <_svfiprintf_r+0x1b4>
   1e808:	01000813          	li	a6,16
   1e80c:	ff0a8a9b          	addiw	s5,s5,-16
   1e810:	07013783          	ld	a5,112(sp)
   1e814:	06812603          	lw	a2,104(sp)
   1e818:	00048b93          	mv	s7,s1
   1e81c:	fb584ce3          	blt	a6,s5,1e7d4 <_svfiprintf_r+0x9b4>
   1e820:	00040e13          	mv	t3,s0
   1e824:	02013403          	ld	s0,32(sp)
   1e828:	0016059b          	addiw	a1,a2,1
   1e82c:	010b8613          	addi	a2,s7,16
   1e830:	015787b3          	add	a5,a5,s5
   1e834:	01cbb023          	sd	t3,0(s7)
   1e838:	015bb423          	sd	s5,8(s7)
   1e83c:	06f13823          	sd	a5,112(sp)
   1e840:	06b12423          	sw	a1,104(sp)
   1e844:	00700713          	li	a4,7
   1e848:	2ab74a63          	blt	a4,a1,1eafc <_svfiprintf_r+0xcdc>
   1e84c:	00813683          	ld	a3,8(sp)
   1e850:	00060b93          	mv	s7,a2
   1e854:	0015859b          	addiw	a1,a1,1
   1e858:	00f687b3          	add	a5,a3,a5
   1e85c:	01060713          	addi	a4,a2,16
   1e860:	01abb023          	sd	s10,0(s7)
   1e864:	00dbb423          	sd	a3,8(s7)
   1e868:	06f13823          	sd	a5,112(sp)
   1e86c:	06b12423          	sw	a1,104(sp)
   1e870:	00700613          	li	a2,7
   1e874:	98b65ae3          	bge	a2,a1,1e208 <_svfiprintf_r+0x3e8>
   1e878:	06010613          	addi	a2,sp,96
   1e87c:	00090593          	mv	a1,s2
   1e880:	00098513          	mv	a0,s3
   1e884:	bb4ff0ef          	jal	ra,1dc38 <__ssprint_r>
   1e888:	f4051663          	bnez	a0,1dfd4 <_svfiprintf_r+0x1b4>
   1e88c:	07013783          	ld	a5,112(sp)
   1e890:	00048713          	mv	a4,s1
   1e894:	975ff06f          	j	1e208 <_svfiprintf_r+0x3e8>
   1e898:	06010613          	addi	a2,sp,96
   1e89c:	00090593          	mv	a1,s2
   1e8a0:	00098513          	mv	a0,s3
   1e8a4:	b94ff0ef          	jal	ra,1dc38 <__ssprint_r>
   1e8a8:	980506e3          	beqz	a0,1e234 <_svfiprintf_r+0x414>
   1e8ac:	f28ff06f          	j	1dfd4 <_svfiprintf_r+0x1b4>
   1e8b0:	000b0c93          	mv	s9,s6
   1e8b4:	cf9ff06f          	j	1e5ac <_svfiprintf_r+0x78c>
   1e8b8:	01000713          	li	a4,16
   1e8bc:	00003e17          	auipc	t3,0x3
   1e8c0:	49ce0e13          	addi	t3,t3,1180 # 21d58 <blanks.4500>
   1e8c4:	0bb75463          	bge	a4,s11,1e96c <_svfiprintf_r+0xb4c>
   1e8c8:	000b8713          	mv	a4,s7
   1e8cc:	01000f93          	li	t6,16
   1e8d0:	00040b93          	mv	s7,s0
   1e8d4:	00700293          	li	t0,7
   1e8d8:	000d8413          	mv	s0,s11
   1e8dc:	03d13023          	sd	t4,32(sp)
   1e8e0:	000c0d93          	mv	s11,s8
   1e8e4:	05e13423          	sd	t5,72(sp)
   1e8e8:	000a8c13          	mv	s8,s5
   1e8ec:	000e0a93          	mv	s5,t3
   1e8f0:	00c0006f          	j	1e8fc <_svfiprintf_r+0xadc>
   1e8f4:	ff04041b          	addiw	s0,s0,-16
   1e8f8:	048fda63          	bge	t6,s0,1e94c <_svfiprintf_r+0xb2c>
   1e8fc:	0016061b          	addiw	a2,a2,1
   1e900:	01078793          	addi	a5,a5,16
   1e904:	01573023          	sd	s5,0(a4)
   1e908:	01f73423          	sd	t6,8(a4)
   1e90c:	06f13823          	sd	a5,112(sp)
   1e910:	06c12423          	sw	a2,104(sp)
   1e914:	01070713          	addi	a4,a4,16
   1e918:	fcc2dee3          	bge	t0,a2,1e8f4 <_svfiprintf_r+0xad4>
   1e91c:	06010613          	addi	a2,sp,96
   1e920:	00090593          	mv	a1,s2
   1e924:	00098513          	mv	a0,s3
   1e928:	b10ff0ef          	jal	ra,1dc38 <__ssprint_r>
   1e92c:	ea051463          	bnez	a0,1dfd4 <_svfiprintf_r+0x1b4>
   1e930:	01000f93          	li	t6,16
   1e934:	ff04041b          	addiw	s0,s0,-16
   1e938:	07013783          	ld	a5,112(sp)
   1e93c:	06812603          	lw	a2,104(sp)
   1e940:	00048713          	mv	a4,s1
   1e944:	00700293          	li	t0,7
   1e948:	fa8fcae3          	blt	t6,s0,1e8fc <_svfiprintf_r+0xadc>
   1e94c:	02013e83          	ld	t4,32(sp)
   1e950:	04813f03          	ld	t5,72(sp)
   1e954:	000a8e13          	mv	t3,s5
   1e958:	000c0a93          	mv	s5,s8
   1e95c:	000d8c13          	mv	s8,s11
   1e960:	00040d93          	mv	s11,s0
   1e964:	000b8413          	mv	s0,s7
   1e968:	00070b93          	mv	s7,a4
   1e96c:	0016061b          	addiw	a2,a2,1
   1e970:	01b787b3          	add	a5,a5,s11
   1e974:	01cbb023          	sd	t3,0(s7)
   1e978:	01bbb423          	sd	s11,8(s7)
   1e97c:	06f13823          	sd	a5,112(sp)
   1e980:	06c12423          	sw	a2,104(sp)
   1e984:	00700713          	li	a4,7
   1e988:	010b8b93          	addi	s7,s7,16
   1e98c:	fcc75263          	bge	a4,a2,1e150 <_svfiprintf_r+0x330>
   1e990:	06010613          	addi	a2,sp,96
   1e994:	00090593          	mv	a1,s2
   1e998:	00098513          	mv	a0,s3
   1e99c:	05e13423          	sd	t5,72(sp)
   1e9a0:	03d13023          	sd	t4,32(sp)
   1e9a4:	a94ff0ef          	jal	ra,1dc38 <__ssprint_r>
   1e9a8:	e2051663          	bnez	a0,1dfd4 <_svfiprintf_r+0x1b4>
   1e9ac:	07013783          	ld	a5,112(sp)
   1e9b0:	06812603          	lw	a2,104(sp)
   1e9b4:	00048b93          	mv	s7,s1
   1e9b8:	04813f03          	ld	t5,72(sp)
   1e9bc:	02013e83          	ld	t4,32(sp)
   1e9c0:	f90ff06f          	j	1e150 <_svfiprintf_r+0x330>
   1e9c4:	06010613          	addi	a2,sp,96
   1e9c8:	00090593          	mv	a1,s2
   1e9cc:	00098513          	mv	a0,s3
   1e9d0:	05e13423          	sd	t5,72(sp)
   1e9d4:	03d13023          	sd	t4,32(sp)
   1e9d8:	a60ff0ef          	jal	ra,1dc38 <__ssprint_r>
   1e9dc:	de051c63          	bnez	a0,1dfd4 <_svfiprintf_r+0x1b4>
   1e9e0:	06812603          	lw	a2,104(sp)
   1e9e4:	07013783          	ld	a5,112(sp)
   1e9e8:	0f010713          	addi	a4,sp,240
   1e9ec:	0016059b          	addiw	a1,a2,1
   1e9f0:	00048b93          	mv	s7,s1
   1e9f4:	04813f03          	ld	t5,72(sp)
   1e9f8:	02013e83          	ld	t4,32(sp)
   1e9fc:	fa0ff06f          	j	1e19c <_svfiprintf_r+0x37c>
   1ea00:	06010613          	addi	a2,sp,96
   1ea04:	00090593          	mv	a1,s2
   1ea08:	00098513          	mv	a0,s3
   1ea0c:	03e13023          	sd	t5,32(sp)
   1ea10:	a28ff0ef          	jal	ra,1dc38 <__ssprint_r>
   1ea14:	dc051063          	bnez	a0,1dfd4 <_svfiprintf_r+0x1b4>
   1ea18:	06812603          	lw	a2,104(sp)
   1ea1c:	07013783          	ld	a5,112(sp)
   1ea20:	0f010713          	addi	a4,sp,240
   1ea24:	0016059b          	addiw	a1,a2,1
   1ea28:	00048b93          	mv	s7,s1
   1ea2c:	02013f03          	ld	t5,32(sp)
   1ea30:	fa4ff06f          	j	1e1d4 <_svfiprintf_r+0x3b4>
   1ea34:	00003e17          	auipc	t3,0x3
   1ea38:	324e0e13          	addi	t3,t3,804 # 21d58 <blanks.4500>
   1ea3c:	01000593          	li	a1,16
   1ea40:	06812603          	lw	a2,104(sp)
   1ea44:	01000d13          	li	s10,16
   1ea48:	00700d93          	li	s11,7
   1ea4c:	000e0a93          	mv	s5,t3
   1ea50:	0175c863          	blt	a1,s7,1ea60 <_svfiprintf_r+0xc40>
   1ea54:	0580006f          	j	1eaac <_svfiprintf_r+0xc8c>
   1ea58:	ff0b8b9b          	addiw	s7,s7,-16
   1ea5c:	057d5663          	bge	s10,s7,1eaa8 <_svfiprintf_r+0xc88>
   1ea60:	0016061b          	addiw	a2,a2,1
   1ea64:	01078793          	addi	a5,a5,16
   1ea68:	01573023          	sd	s5,0(a4)
   1ea6c:	01a73423          	sd	s10,8(a4)
   1ea70:	06f13823          	sd	a5,112(sp)
   1ea74:	06c12423          	sw	a2,104(sp)
   1ea78:	01070713          	addi	a4,a4,16
   1ea7c:	fccddee3          	bge	s11,a2,1ea58 <_svfiprintf_r+0xc38>
   1ea80:	06010613          	addi	a2,sp,96
   1ea84:	00090593          	mv	a1,s2
   1ea88:	00098513          	mv	a0,s3
   1ea8c:	9acff0ef          	jal	ra,1dc38 <__ssprint_r>
   1ea90:	d4051263          	bnez	a0,1dfd4 <_svfiprintf_r+0x1b4>
   1ea94:	ff0b8b9b          	addiw	s7,s7,-16
   1ea98:	07013783          	ld	a5,112(sp)
   1ea9c:	06812603          	lw	a2,104(sp)
   1eaa0:	00048713          	mv	a4,s1
   1eaa4:	fb7d4ee3          	blt	s10,s7,1ea60 <_svfiprintf_r+0xc40>
   1eaa8:	000a8e13          	mv	t3,s5
   1eaac:	0016059b          	addiw	a1,a2,1
   1eab0:	017787b3          	add	a5,a5,s7
   1eab4:	01c73023          	sd	t3,0(a4)
   1eab8:	01773423          	sd	s7,8(a4)
   1eabc:	06f13823          	sd	a5,112(sp)
   1eac0:	06b12423          	sw	a1,104(sp)
   1eac4:	00700713          	li	a4,7
   1eac8:	f4b75863          	bge	a4,a1,1e218 <_svfiprintf_r+0x3f8>
   1eacc:	06010613          	addi	a2,sp,96
   1ead0:	00090593          	mv	a1,s2
   1ead4:	00098513          	mv	a0,s3
   1ead8:	960ff0ef          	jal	ra,1dc38 <__ssprint_r>
   1eadc:	ce051c63          	bnez	a0,1dfd4 <_svfiprintf_r+0x1b4>
   1eae0:	07013783          	ld	a5,112(sp)
   1eae4:	f34ff06f          	j	1e218 <_svfiprintf_r+0x3f8>
   1eae8:	2e0a9663          	bnez	s5,1edd4 <_svfiprintf_r+0xfb4>
   1eaec:	00000a93          	li	s5,0
   1eaf0:	00013423          	sd	zero,8(sp)
   1eaf4:	0dc10d13          	addi	s10,sp,220
   1eaf8:	db4ff06f          	j	1e0ac <_svfiprintf_r+0x28c>
   1eafc:	06010613          	addi	a2,sp,96
   1eb00:	00090593          	mv	a1,s2
   1eb04:	00098513          	mv	a0,s3
   1eb08:	930ff0ef          	jal	ra,1dc38 <__ssprint_r>
   1eb0c:	cc051463          	bnez	a0,1dfd4 <_svfiprintf_r+0x1b4>
   1eb10:	06812583          	lw	a1,104(sp)
   1eb14:	07013783          	ld	a5,112(sp)
   1eb18:	0f010713          	addi	a4,sp,240
   1eb1c:	0015859b          	addiw	a1,a1,1
   1eb20:	00048b93          	mv	s7,s1
   1eb24:	ec4ff06f          	j	1e1e8 <_svfiprintf_r+0x3c8>
   1eb28:	000c0c93          	mv	s9,s8
   1eb2c:	c08ff06f          	j	1df34 <_svfiprintf_r+0x114>
   1eb30:	000b0893          	mv	a7,s6
   1eb34:	8a1ff06f          	j	1e3d4 <_svfiprintf_r+0x5b4>
   1eb38:	000b0c93          	mv	s9,s6
   1eb3c:	8c5ff06f          	j	1e400 <_svfiprintf_r+0x5e0>
   1eb40:	000b0c93          	mv	s9,s6
   1eb44:	829ff06f          	j	1e36c <_svfiprintf_r+0x54c>
   1eb48:	01013783          	ld	a5,16(sp)
   1eb4c:	0007bd83          	ld	s11,0(a5)
   1eb50:	cf0ff06f          	j	1e040 <_svfiprintf_r+0x220>
   1eb54:	000d0513          	mv	a0,s10
   1eb58:	ffdf90ef          	jal	ra,18b54 <strlen>
   1eb5c:	0005079b          	sext.w	a5,a0
   1eb60:	00f13423          	sd	a5,8(sp)
   1eb64:	01b13823          	sd	s11,16(sp)
   1eb68:	00000a93          	li	s5,0
   1eb6c:	d40ff06f          	j	1e0ac <_svfiprintf_r+0x28c>
   1eb70:	04000593          	li	a1,64
   1eb74:	f41f70ef          	jal	ra,16ab4 <_malloc_r>
   1eb78:	00a93023          	sd	a0,0(s2)
   1eb7c:	00a93c23          	sd	a0,24(s2)
   1eb80:	2a050c63          	beqz	a0,1ee38 <_svfiprintf_r+0x1018>
   1eb84:	04000793          	li	a5,64
   1eb88:	02f92023          	sw	a5,32(s2)
   1eb8c:	af0ff06f          	j	1de7c <_svfiprintf_r+0x5c>
   1eb90:	400cfd13          	andi	s10,s9,1024
   1eb94:	000d079b          	sext.w	a5,s10
   1eb98:	00813423          	sd	s0,8(sp)
   1eb9c:	02813403          	ld	s0,40(sp)
   1eba0:	0dc10d13          	addi	s10,sp,220
   1eba4:	03313023          	sd	s3,32(sp)
   1eba8:	000d8993          	mv	s3,s11
   1ebac:	00078d93          	mv	s11,a5
   1ebb0:	000c0793          	mv	a5,s8
   1ebb4:	00000b13          	li	s6,0
   1ebb8:	00090c13          	mv	s8,s2
   1ebbc:	000d0913          	mv	s2,s10
   1ebc0:	00078d13          	mv	s10,a5
   1ebc4:	00a00593          	li	a1,10
   1ebc8:	00098513          	mv	a0,s3
   1ebcc:	50c020ef          	jal	ra,210d8 <__umoddi3>
   1ebd0:	0305051b          	addiw	a0,a0,48
   1ebd4:	fea90fa3          	sb	a0,-1(s2)
   1ebd8:	001b0b1b          	addiw	s6,s6,1
   1ebdc:	fff90913          	addi	s2,s2,-1
   1ebe0:	000d8663          	beqz	s11,1ebec <_svfiprintf_r+0xdcc>
   1ebe4:	00044683          	lbu	a3,0(s0)
   1ebe8:	05668863          	beq	a3,s6,1ec38 <_svfiprintf_r+0xe18>
   1ebec:	00a00593          	li	a1,10
   1ebf0:	00098513          	mv	a0,s3
   1ebf4:	49c020ef          	jal	ra,21090 <__udivdi3>
   1ebf8:	00900793          	li	a5,9
   1ebfc:	0137f663          	bgeu	a5,s3,1ec08 <_svfiprintf_r+0xde8>
   1ec00:	00050993          	mv	s3,a0
   1ec04:	fc1ff06f          	j	1ebc4 <_svfiprintf_r+0xda4>
   1ec08:	000d0793          	mv	a5,s10
   1ec0c:	00090d13          	mv	s10,s2
   1ec10:	000c0913          	mv	s2,s8
   1ec14:	00078c13          	mv	s8,a5
   1ec18:	0dc10793          	addi	a5,sp,220
   1ec1c:	41a787bb          	subw	a5,a5,s10
   1ec20:	02813423          	sd	s0,40(sp)
   1ec24:	02013983          	ld	s3,32(sp)
   1ec28:	00813403          	ld	s0,8(sp)
   1ec2c:	000c8b13          	mv	s6,s9
   1ec30:	00f13423          	sd	a5,8(sp)
   1ec34:	c78ff06f          	j	1e0ac <_svfiprintf_r+0x28c>
   1ec38:	0ff00793          	li	a5,255
   1ec3c:	faf688e3          	beq	a3,a5,1ebec <_svfiprintf_r+0xdcc>
   1ec40:	00900793          	li	a5,9
   1ec44:	fd37f2e3          	bgeu	a5,s3,1ec08 <_svfiprintf_r+0xde8>
   1ec48:	03813783          	ld	a5,56(sp)
   1ec4c:	03013583          	ld	a1,48(sp)
   1ec50:	00000b13          	li	s6,0
   1ec54:	40f90933          	sub	s2,s2,a5
   1ec58:	00078613          	mv	a2,a5
   1ec5c:	00090513          	mv	a0,s2
   1ec60:	fc5f90ef          	jal	ra,18c24 <strncpy>
   1ec64:	00144683          	lbu	a3,1(s0)
   1ec68:	00098513          	mv	a0,s3
   1ec6c:	00a00593          	li	a1,10
   1ec70:	00d03733          	snez	a4,a3
   1ec74:	00e40433          	add	s0,s0,a4
   1ec78:	418020ef          	jal	ra,21090 <__udivdi3>
   1ec7c:	00050993          	mv	s3,a0
   1ec80:	f45ff06f          	j	1ebc4 <_svfiprintf_r+0xda4>
   1ec84:	200b6b13          	ori	s6,s6,512
   1ec88:	001c4703          	lbu	a4,1(s8)
   1ec8c:	000b0b1b          	sext.w	s6,s6
   1ec90:	001c0c13          	addi	s8,s8,1
   1ec94:	ac0ff06f          	j	1df54 <_svfiprintf_r+0x134>
   1ec98:	020b6b13          	ori	s6,s6,32
   1ec9c:	001c4703          	lbu	a4,1(s8)
   1eca0:	000b0b1b          	sext.w	s6,s6
   1eca4:	001c0c13          	addi	s8,s8,1
   1eca8:	aacff06f          	j	1df54 <_svfiprintf_r+0x134>
   1ecac:	06010613          	addi	a2,sp,96
   1ecb0:	00090593          	mv	a1,s2
   1ecb4:	00098513          	mv	a0,s3
   1ecb8:	f81fe0ef          	jal	ra,1dc38 <__ssprint_r>
   1ecbc:	b0051c63          	bnez	a0,1dfd4 <_svfiprintf_r+0x1b4>
   1ecc0:	06812603          	lw	a2,104(sp)
   1ecc4:	07013783          	ld	a5,112(sp)
   1ecc8:	0f010713          	addi	a4,sp,240
   1eccc:	0016059b          	addiw	a1,a2,1
   1ecd0:	00048b93          	mv	s7,s1
   1ecd4:	d08ff06f          	j	1e1dc <_svfiprintf_r+0x3bc>
   1ecd8:	000a871b          	sext.w	a4,s5
   1ecdc:	00600793          	li	a5,6
   1ece0:	000a8693          	mv	a3,s5
   1ece4:	00e7f463          	bgeu	a5,a4,1ecec <_svfiprintf_r+0xecc>
   1ece8:	00600693          	li	a3,6
   1ecec:	0006879b          	sext.w	a5,a3
   1ecf0:	00f13423          	sd	a5,8(sp)
   1ecf4:	00078c93          	mv	s9,a5
   1ecf8:	01b13823          	sd	s11,16(sp)
   1ecfc:	00002d17          	auipc	s10,0x2
   1ed00:	6d4d0d13          	addi	s10,s10,1748 # 213d0 <zeroes.4539+0x98>
   1ed04:	c20ff06f          	j	1e124 <_svfiprintf_r+0x304>
   1ed08:	200b7793          	andi	a5,s6,512
   1ed0c:	0a078263          	beqz	a5,1edb0 <_svfiprintf_r+0xf90>
   1ed10:	0ffe7d93          	andi	s11,t3,255
   1ed14:	00e13823          	sd	a4,16(sp)
   1ed18:	000b0c93          	mv	s9,s6
   1ed1c:	00100793          	li	a5,1
   1ed20:	b50ff06f          	j	1e070 <_svfiprintf_r+0x250>
   1ed24:	200b7793          	andi	a5,s6,512
   1ed28:	0ffe7d93          	andi	s11,t3,255
   1ed2c:	b0079a63          	bnez	a5,1e040 <_svfiprintf_r+0x220>
   1ed30:	020e1d93          	slli	s11,t3,0x20
   1ed34:	020ddd93          	srli	s11,s11,0x20
   1ed38:	b08ff06f          	j	1e040 <_svfiprintf_r+0x220>
   1ed3c:	200b7713          	andi	a4,s6,512
   1ed40:	04070e63          	beqz	a4,1ed9c <_svfiprintf_r+0xf7c>
   1ed44:	0ffe7d93          	andi	s11,t3,255
   1ed48:	000b0893          	mv	a7,s6
   1ed4c:	00f13823          	sd	a5,16(sp)
   1ed50:	e90ff06f          	j	1e3e0 <_svfiprintf_r+0x5c0>
   1ed54:	200b7793          	andi	a5,s6,512
   1ed58:	02078663          	beqz	a5,1ed84 <_svfiprintf_r+0xf64>
   1ed5c:	01013783          	ld	a5,16(sp)
   1ed60:	000b0c93          	mv	s9,s6
   1ed64:	00e13823          	sd	a4,16(sp)
   1ed68:	00078d83          	lb	s11,0(a5)
   1ed6c:	000d8793          	mv	a5,s11
   1ed70:	ea0ff06f          	j	1e410 <_svfiprintf_r+0x5f0>
   1ed74:	00070613          	mv	a2,a4
   1ed78:	00003e17          	auipc	t3,0x3
   1ed7c:	ff0e0e13          	addi	t3,t3,-16 # 21d68 <zeroes.4501>
   1ed80:	ab1ff06f          	j	1e830 <_svfiprintf_r+0xa10>
   1ed84:	01013783          	ld	a5,16(sp)
   1ed88:	000b0c93          	mv	s9,s6
   1ed8c:	00e13823          	sd	a4,16(sp)
   1ed90:	0007ad83          	lw	s11,0(a5)
   1ed94:	000d8793          	mv	a5,s11
   1ed98:	e78ff06f          	j	1e410 <_svfiprintf_r+0x5f0>
   1ed9c:	020e1d93          	slli	s11,t3,0x20
   1eda0:	020ddd93          	srli	s11,s11,0x20
   1eda4:	000b0893          	mv	a7,s6
   1eda8:	00f13823          	sd	a5,16(sp)
   1edac:	e34ff06f          	j	1e3e0 <_svfiprintf_r+0x5c0>
   1edb0:	020e1d93          	slli	s11,t3,0x20
   1edb4:	020ddd93          	srli	s11,s11,0x20
   1edb8:	00e13823          	sd	a4,16(sp)
   1edbc:	000b0c93          	mv	s9,s6
   1edc0:	00100793          	li	a5,1
   1edc4:	aacff06f          	j	1e070 <_svfiprintf_r+0x250>
   1edc8:	00013783          	ld	a5,0(sp)
   1edcc:	00f71023          	sh	a5,0(a4)
   1edd0:	8ecff06f          	j	1debc <_svfiprintf_r+0x9c>
   1edd4:	000b0c93          	mv	s9,s6
   1edd8:	e5cff06f          	j	1e434 <_svfiprintf_r+0x614>
   1eddc:	01513423          	sd	s5,8(sp)
   1ede0:	01b13823          	sd	s11,16(sp)
   1ede4:	00000a93          	li	s5,0
   1ede8:	ac4ff06f          	j	1e0ac <_svfiprintf_r+0x28c>
   1edec:	00070513          	mv	a0,a4
   1edf0:	00058613          	mv	a2,a1
   1edf4:	00003e17          	auipc	t3,0x3
   1edf8:	f74e0e13          	addi	t3,t3,-140 # 21d68 <zeroes.4501>
   1edfc:	979ff06f          	j	1e774 <_svfiprintf_r+0x954>
   1ee00:	00f72023          	sw	a5,0(a4)
   1ee04:	8b8ff06f          	j	1debc <_svfiprintf_r+0x9c>
   1ee08:	fff00793          	li	a5,-1
   1ee0c:	00f13023          	sd	a5,0(sp)
   1ee10:	9d0ff06f          	j	1dfe0 <_svfiprintf_r+0x1c0>
   1ee14:	01013703          	ld	a4,16(sp)
   1ee18:	00072a83          	lw	s5,0(a4)
   1ee1c:	00870693          	addi	a3,a4,8
   1ee20:	000ad463          	bgez	s5,1ee28 <_svfiprintf_r+0x1008>
   1ee24:	fff00a93          	li	s5,-1
   1ee28:	001c4703          	lbu	a4,1(s8)
   1ee2c:	00d13823          	sd	a3,16(sp)
   1ee30:	00078c13          	mv	s8,a5
   1ee34:	920ff06f          	j	1df54 <_svfiprintf_r+0x134>
   1ee38:	00c00793          	li	a5,12
   1ee3c:	00f9a023          	sw	a5,0(s3)
   1ee40:	fff00793          	li	a5,-1
   1ee44:	00f13023          	sd	a5,0(sp)
   1ee48:	998ff06f          	j	1dfe0 <_svfiprintf_r+0x1c0>

000000000001ee4c <__swbuf_r>:
   1ee4c:	fd010113          	addi	sp,sp,-48
   1ee50:	02813023          	sd	s0,32(sp)
   1ee54:	00913c23          	sd	s1,24(sp)
   1ee58:	01213823          	sd	s2,16(sp)
   1ee5c:	02113423          	sd	ra,40(sp)
   1ee60:	01313423          	sd	s3,8(sp)
   1ee64:	00050913          	mv	s2,a0
   1ee68:	00058493          	mv	s1,a1
   1ee6c:	00060413          	mv	s0,a2
   1ee70:	00050663          	beqz	a0,1ee7c <__swbuf_r+0x30>
   1ee74:	05052783          	lw	a5,80(a0)
   1ee78:	14078863          	beqz	a5,1efc8 <__swbuf_r+0x17c>
   1ee7c:	01041703          	lh	a4,16(s0)
   1ee80:	02842783          	lw	a5,40(s0)
   1ee84:	03071693          	slli	a3,a4,0x30
   1ee88:	0306d693          	srli	a3,a3,0x30
   1ee8c:	00f42623          	sw	a5,12(s0)
   1ee90:	0086f793          	andi	a5,a3,8
   1ee94:	08078263          	beqz	a5,1ef18 <__swbuf_r+0xcc>
   1ee98:	01843783          	ld	a5,24(s0)
   1ee9c:	06078e63          	beqz	a5,1ef18 <__swbuf_r+0xcc>
   1eea0:	0ff4f993          	andi	s3,s1,255
   1eea4:	03269613          	slli	a2,a3,0x32
   1eea8:	00098493          	mv	s1,s3
   1eeac:	08065e63          	bgez	a2,1ef48 <__swbuf_r+0xfc>
   1eeb0:	00043703          	ld	a4,0(s0)
   1eeb4:	02042683          	lw	a3,32(s0)
   1eeb8:	40f707bb          	subw	a5,a4,a5
   1eebc:	0ad7de63          	bge	a5,a3,1ef78 <__swbuf_r+0x12c>
   1eec0:	00c42683          	lw	a3,12(s0)
   1eec4:	00170613          	addi	a2,a4,1
   1eec8:	00c43023          	sd	a2,0(s0)
   1eecc:	fff6869b          	addiw	a3,a3,-1
   1eed0:	00d42623          	sw	a3,12(s0)
   1eed4:	01370023          	sb	s3,0(a4)
   1eed8:	02042703          	lw	a4,32(s0)
   1eedc:	0017879b          	addiw	a5,a5,1
   1eee0:	0cf70863          	beq	a4,a5,1efb0 <__swbuf_r+0x164>
   1eee4:	01045783          	lhu	a5,16(s0)
   1eee8:	0017f793          	andi	a5,a5,1
   1eeec:	00078663          	beqz	a5,1eef8 <__swbuf_r+0xac>
   1eef0:	00a00793          	li	a5,10
   1eef4:	0af48e63          	beq	s1,a5,1efb0 <__swbuf_r+0x164>
   1eef8:	02813083          	ld	ra,40(sp)
   1eefc:	02013403          	ld	s0,32(sp)
   1ef00:	00048513          	mv	a0,s1
   1ef04:	01013903          	ld	s2,16(sp)
   1ef08:	01813483          	ld	s1,24(sp)
   1ef0c:	00813983          	ld	s3,8(sp)
   1ef10:	03010113          	addi	sp,sp,48
   1ef14:	00008067          	ret
   1ef18:	00040593          	mv	a1,s0
   1ef1c:	00090513          	mv	a0,s2
   1ef20:	d81f30ef          	jal	ra,12ca0 <__swsetup_r>
   1ef24:	08051e63          	bnez	a0,1efc0 <__swbuf_r+0x174>
   1ef28:	01041703          	lh	a4,16(s0)
   1ef2c:	0ff4f993          	andi	s3,s1,255
   1ef30:	01843783          	ld	a5,24(s0)
   1ef34:	03071693          	slli	a3,a4,0x30
   1ef38:	0306d693          	srli	a3,a3,0x30
   1ef3c:	03269613          	slli	a2,a3,0x32
   1ef40:	00098493          	mv	s1,s3
   1ef44:	f60646e3          	bltz	a2,1eeb0 <__swbuf_r+0x64>
   1ef48:	0ac42683          	lw	a3,172(s0)
   1ef4c:	00002637          	lui	a2,0x2
   1ef50:	00c76733          	or	a4,a4,a2
   1ef54:	ffffe637          	lui	a2,0xffffe
   1ef58:	fff60613          	addi	a2,a2,-1 # ffffffffffffdfff <__BSS_END__+0xfffffffffffdadf7>
   1ef5c:	00c6f6b3          	and	a3,a3,a2
   1ef60:	00e41823          	sh	a4,16(s0)
   1ef64:	00043703          	ld	a4,0(s0)
   1ef68:	0ad42623          	sw	a3,172(s0)
   1ef6c:	02042683          	lw	a3,32(s0)
   1ef70:	40f707bb          	subw	a5,a4,a5
   1ef74:	f4d7c6e3          	blt	a5,a3,1eec0 <__swbuf_r+0x74>
   1ef78:	00040593          	mv	a1,s0
   1ef7c:	00090513          	mv	a0,s2
   1ef80:	ab4f40ef          	jal	ra,13234 <_fflush_r>
   1ef84:	02051e63          	bnez	a0,1efc0 <__swbuf_r+0x174>
   1ef88:	00043703          	ld	a4,0(s0)
   1ef8c:	00c42683          	lw	a3,12(s0)
   1ef90:	00100793          	li	a5,1
   1ef94:	00170613          	addi	a2,a4,1
   1ef98:	fff6869b          	addiw	a3,a3,-1
   1ef9c:	00c43023          	sd	a2,0(s0)
   1efa0:	00d42623          	sw	a3,12(s0)
   1efa4:	01370023          	sb	s3,0(a4)
   1efa8:	02042703          	lw	a4,32(s0)
   1efac:	f2f71ce3          	bne	a4,a5,1eee4 <__swbuf_r+0x98>
   1efb0:	00040593          	mv	a1,s0
   1efb4:	00090513          	mv	a0,s2
   1efb8:	a7cf40ef          	jal	ra,13234 <_fflush_r>
   1efbc:	f2050ee3          	beqz	a0,1eef8 <__swbuf_r+0xac>
   1efc0:	fff00493          	li	s1,-1
   1efc4:	f35ff06f          	j	1eef8 <__swbuf_r+0xac>
   1efc8:	e14f40ef          	jal	ra,135dc <__sinit>
   1efcc:	eb1ff06f          	j	1ee7c <__swbuf_r+0x30>

000000000001efd0 <__swbuf>:
   1efd0:	75818793          	addi	a5,gp,1880 # 23160 <_impure_ptr>
   1efd4:	00058613          	mv	a2,a1
   1efd8:	00050593          	mv	a1,a0
   1efdc:	0007b503          	ld	a0,0(a5)
   1efe0:	e6dff06f          	j	1ee4c <__swbuf_r>

000000000001efe4 <_wcrtomb_r>:
   1efe4:	fd010113          	addi	sp,sp,-48
   1efe8:	02813023          	sd	s0,32(sp)
   1efec:	00913c23          	sd	s1,24(sp)
   1eff0:	d6018793          	addi	a5,gp,-672 # 22768 <__global_locale>
   1eff4:	02113423          	sd	ra,40(sp)
   1eff8:	00050413          	mv	s0,a0
   1effc:	00068493          	mv	s1,a3
   1f000:	0e07b783          	ld	a5,224(a5)
   1f004:	02058263          	beqz	a1,1f028 <_wcrtomb_r+0x44>
   1f008:	000780e7          	jalr	a5
   1f00c:	fff00793          	li	a5,-1
   1f010:	02f50663          	beq	a0,a5,1f03c <_wcrtomb_r+0x58>
   1f014:	02813083          	ld	ra,40(sp)
   1f018:	02013403          	ld	s0,32(sp)
   1f01c:	01813483          	ld	s1,24(sp)
   1f020:	03010113          	addi	sp,sp,48
   1f024:	00008067          	ret
   1f028:	00000613          	li	a2,0
   1f02c:	00010593          	mv	a1,sp
   1f030:	000780e7          	jalr	a5
   1f034:	fff00793          	li	a5,-1
   1f038:	fcf51ee3          	bne	a0,a5,1f014 <_wcrtomb_r+0x30>
   1f03c:	0004a023          	sw	zero,0(s1)
   1f040:	08a00793          	li	a5,138
   1f044:	00f42023          	sw	a5,0(s0)
   1f048:	02813083          	ld	ra,40(sp)
   1f04c:	02013403          	ld	s0,32(sp)
   1f050:	01813483          	ld	s1,24(sp)
   1f054:	03010113          	addi	sp,sp,48
   1f058:	00008067          	ret

000000000001f05c <wcrtomb>:
   1f05c:	fd010113          	addi	sp,sp,-48
   1f060:	75818793          	addi	a5,gp,1880 # 23160 <_impure_ptr>
   1f064:	02813023          	sd	s0,32(sp)
   1f068:	00913c23          	sd	s1,24(sp)
   1f06c:	0007b403          	ld	s0,0(a5)
   1f070:	02113423          	sd	ra,40(sp)
   1f074:	d6018793          	addi	a5,gp,-672 # 22768 <__global_locale>
   1f078:	00060493          	mv	s1,a2
   1f07c:	0e07b783          	ld	a5,224(a5)
   1f080:	00060693          	mv	a3,a2
   1f084:	02050863          	beqz	a0,1f0b4 <wcrtomb+0x58>
   1f088:	00058613          	mv	a2,a1
   1f08c:	00050593          	mv	a1,a0
   1f090:	00040513          	mv	a0,s0
   1f094:	000780e7          	jalr	a5
   1f098:	fff00793          	li	a5,-1
   1f09c:	02f50863          	beq	a0,a5,1f0cc <wcrtomb+0x70>
   1f0a0:	02813083          	ld	ra,40(sp)
   1f0a4:	02013403          	ld	s0,32(sp)
   1f0a8:	01813483          	ld	s1,24(sp)
   1f0ac:	03010113          	addi	sp,sp,48
   1f0b0:	00008067          	ret
   1f0b4:	00000613          	li	a2,0
   1f0b8:	00010593          	mv	a1,sp
   1f0bc:	00040513          	mv	a0,s0
   1f0c0:	000780e7          	jalr	a5
   1f0c4:	fff00793          	li	a5,-1
   1f0c8:	fcf51ce3          	bne	a0,a5,1f0a0 <wcrtomb+0x44>
   1f0cc:	0004a023          	sw	zero,0(s1)
   1f0d0:	08a00793          	li	a5,138
   1f0d4:	00f42023          	sw	a5,0(s0)
   1f0d8:	02813083          	ld	ra,40(sp)
   1f0dc:	02013403          	ld	s0,32(sp)
   1f0e0:	01813483          	ld	s1,24(sp)
   1f0e4:	03010113          	addi	sp,sp,48
   1f0e8:	00008067          	ret

000000000001f0ec <_close>:
   1f0ec:	00000593          	li	a1,0
   1f0f0:	00000613          	li	a2,0
   1f0f4:	00000693          	li	a3,0
   1f0f8:	00000713          	li	a4,0
   1f0fc:	00000793          	li	a5,0
   1f100:	03900893          	li	a7,57
   1f104:	00000073          	ecall
   1f108:	00054663          	bltz	a0,1f114 <_close+0x28>
   1f10c:	0005051b          	sext.w	a0,a0
   1f110:	00008067          	ret
   1f114:	ff010113          	addi	sp,sp,-16
   1f118:	00813023          	sd	s0,0(sp)
   1f11c:	00113423          	sd	ra,8(sp)
   1f120:	00050413          	mv	s0,a0
   1f124:	314000ef          	jal	ra,1f438 <__errno>
   1f128:	408007bb          	negw	a5,s0
   1f12c:	00813083          	ld	ra,8(sp)
   1f130:	00013403          	ld	s0,0(sp)
   1f134:	00f52023          	sw	a5,0(a0)
   1f138:	fff00513          	li	a0,-1
   1f13c:	01010113          	addi	sp,sp,16
   1f140:	00008067          	ret

000000000001f144 <_exit>:
   1f144:	00000593          	li	a1,0
   1f148:	00000613          	li	a2,0
   1f14c:	00000693          	li	a3,0
   1f150:	00000713          	li	a4,0
   1f154:	00000793          	li	a5,0
   1f158:	05d00893          	li	a7,93
   1f15c:	00000073          	ecall
   1f160:	00054463          	bltz	a0,1f168 <_exit+0x24>
   1f164:	0000006f          	j	1f164 <_exit+0x20>
   1f168:	ff010113          	addi	sp,sp,-16
   1f16c:	00813023          	sd	s0,0(sp)
   1f170:	00050413          	mv	s0,a0
   1f174:	00113423          	sd	ra,8(sp)
   1f178:	4080043b          	negw	s0,s0
   1f17c:	2bc000ef          	jal	ra,1f438 <__errno>
   1f180:	00852023          	sw	s0,0(a0)
   1f184:	0000006f          	j	1f184 <_exit+0x40>

000000000001f188 <_fstat>:
   1f188:	f6010113          	addi	sp,sp,-160
   1f18c:	08913423          	sd	s1,136(sp)
   1f190:	08113c23          	sd	ra,152(sp)
   1f194:	00058493          	mv	s1,a1
   1f198:	08813823          	sd	s0,144(sp)
   1f19c:	00000613          	li	a2,0
   1f1a0:	00010593          	mv	a1,sp
   1f1a4:	00000693          	li	a3,0
   1f1a8:	00000713          	li	a4,0
   1f1ac:	00000793          	li	a5,0
   1f1b0:	05000893          	li	a7,80
   1f1b4:	00000073          	ecall
   1f1b8:	00050413          	mv	s0,a0
   1f1bc:	02054663          	bltz	a0,1f1e8 <_fstat+0x60>
   1f1c0:	0005041b          	sext.w	s0,a0
   1f1c4:	00048513          	mv	a0,s1
   1f1c8:	00010593          	mv	a1,sp
   1f1cc:	200000ef          	jal	ra,1f3cc <_conv_stat>
   1f1d0:	00040513          	mv	a0,s0
   1f1d4:	09813083          	ld	ra,152(sp)
   1f1d8:	09013403          	ld	s0,144(sp)
   1f1dc:	08813483          	ld	s1,136(sp)
   1f1e0:	0a010113          	addi	sp,sp,160
   1f1e4:	00008067          	ret
   1f1e8:	4080043b          	negw	s0,s0
   1f1ec:	24c000ef          	jal	ra,1f438 <__errno>
   1f1f0:	00852023          	sw	s0,0(a0)
   1f1f4:	fff00413          	li	s0,-1
   1f1f8:	fcdff06f          	j	1f1c4 <_fstat+0x3c>

000000000001f1fc <_isatty>:
   1f1fc:	f8010113          	addi	sp,sp,-128
   1f200:	00810593          	addi	a1,sp,8
   1f204:	06113c23          	sd	ra,120(sp)
   1f208:	f81ff0ef          	jal	ra,1f188 <_fstat>
   1f20c:	fff00793          	li	a5,-1
   1f210:	00f50e63          	beq	a0,a5,1f22c <_isatty+0x30>
   1f214:	00c12503          	lw	a0,12(sp)
   1f218:	07813083          	ld	ra,120(sp)
   1f21c:	40d5551b          	sraiw	a0,a0,0xd
   1f220:	00157513          	andi	a0,a0,1
   1f224:	08010113          	addi	sp,sp,128
   1f228:	00008067          	ret
   1f22c:	07813083          	ld	ra,120(sp)
   1f230:	00000513          	li	a0,0
   1f234:	08010113          	addi	sp,sp,128
   1f238:	00008067          	ret

000000000001f23c <_lseek>:
   1f23c:	ff010113          	addi	sp,sp,-16
   1f240:	00113423          	sd	ra,8(sp)
   1f244:	00813023          	sd	s0,0(sp)
   1f248:	00000693          	li	a3,0
   1f24c:	00000713          	li	a4,0
   1f250:	00000793          	li	a5,0
   1f254:	03e00893          	li	a7,62
   1f258:	00000073          	ecall
   1f25c:	00050413          	mv	s0,a0
   1f260:	00054c63          	bltz	a0,1f278 <_lseek+0x3c>
   1f264:	00040513          	mv	a0,s0
   1f268:	00813083          	ld	ra,8(sp)
   1f26c:	00013403          	ld	s0,0(sp)
   1f270:	01010113          	addi	sp,sp,16
   1f274:	00008067          	ret
   1f278:	4080043b          	negw	s0,s0
   1f27c:	1bc000ef          	jal	ra,1f438 <__errno>
   1f280:	00852023          	sw	s0,0(a0)
   1f284:	fff00413          	li	s0,-1
   1f288:	fddff06f          	j	1f264 <_lseek+0x28>

000000000001f28c <_read>:
   1f28c:	ff010113          	addi	sp,sp,-16
   1f290:	00113423          	sd	ra,8(sp)
   1f294:	00813023          	sd	s0,0(sp)
   1f298:	00000693          	li	a3,0
   1f29c:	00000713          	li	a4,0
   1f2a0:	00000793          	li	a5,0
   1f2a4:	03f00893          	li	a7,63
   1f2a8:	00000073          	ecall
   1f2ac:	00050413          	mv	s0,a0
   1f2b0:	00054c63          	bltz	a0,1f2c8 <_read+0x3c>
   1f2b4:	00040513          	mv	a0,s0
   1f2b8:	00813083          	ld	ra,8(sp)
   1f2bc:	00013403          	ld	s0,0(sp)
   1f2c0:	01010113          	addi	sp,sp,16
   1f2c4:	00008067          	ret
   1f2c8:	4080043b          	negw	s0,s0
   1f2cc:	16c000ef          	jal	ra,1f438 <__errno>
   1f2d0:	00852023          	sw	s0,0(a0)
   1f2d4:	fff00413          	li	s0,-1
   1f2d8:	fddff06f          	j	1f2b4 <_read+0x28>

000000000001f2dc <_sbrk>:
   1f2dc:	79018313          	addi	t1,gp,1936 # 23198 <heap_end.1898>
   1f2e0:	00033783          	ld	a5,0(t1)
   1f2e4:	ff010113          	addi	sp,sp,-16
   1f2e8:	00113423          	sd	ra,8(sp)
   1f2ec:	00050813          	mv	a6,a0
   1f2f0:	02079863          	bnez	a5,1f320 <_sbrk+0x44>
   1f2f4:	00000513          	li	a0,0
   1f2f8:	00000593          	li	a1,0
   1f2fc:	00000613          	li	a2,0
   1f300:	00000693          	li	a3,0
   1f304:	00000713          	li	a4,0
   1f308:	0d600893          	li	a7,214
   1f30c:	00000073          	ecall
   1f310:	fff00793          	li	a5,-1
   1f314:	04f50663          	beq	a0,a5,1f360 <_sbrk+0x84>
   1f318:	00050793          	mv	a5,a0
   1f31c:	78a1b823          	sd	a0,1936(gp) # 23198 <heap_end.1898>
   1f320:	00f80533          	add	a0,a6,a5
   1f324:	00000593          	li	a1,0
   1f328:	00000613          	li	a2,0
   1f32c:	00000693          	li	a3,0
   1f330:	00000713          	li	a4,0
   1f334:	00000793          	li	a5,0
   1f338:	0d600893          	li	a7,214
   1f33c:	00000073          	ecall
   1f340:	00033783          	ld	a5,0(t1)
   1f344:	00f80833          	add	a6,a6,a5
   1f348:	01051c63          	bne	a0,a6,1f360 <_sbrk+0x84>
   1f34c:	00813083          	ld	ra,8(sp)
   1f350:	78a1b823          	sd	a0,1936(gp) # 23198 <heap_end.1898>
   1f354:	00078513          	mv	a0,a5
   1f358:	01010113          	addi	sp,sp,16
   1f35c:	00008067          	ret
   1f360:	0d8000ef          	jal	ra,1f438 <__errno>
   1f364:	00813083          	ld	ra,8(sp)
   1f368:	00c00793          	li	a5,12
   1f36c:	00f52023          	sw	a5,0(a0)
   1f370:	fff00513          	li	a0,-1
   1f374:	01010113          	addi	sp,sp,16
   1f378:	00008067          	ret

000000000001f37c <_write>:
   1f37c:	ff010113          	addi	sp,sp,-16
   1f380:	00113423          	sd	ra,8(sp)
   1f384:	00813023          	sd	s0,0(sp)
   1f388:	00000693          	li	a3,0
   1f38c:	00000713          	li	a4,0
   1f390:	00000793          	li	a5,0
   1f394:	04000893          	li	a7,64
   1f398:	00000073          	ecall
   1f39c:	00050413          	mv	s0,a0
   1f3a0:	00054c63          	bltz	a0,1f3b8 <_write+0x3c>
   1f3a4:	00040513          	mv	a0,s0
   1f3a8:	00813083          	ld	ra,8(sp)
   1f3ac:	00013403          	ld	s0,0(sp)
   1f3b0:	01010113          	addi	sp,sp,16
   1f3b4:	00008067          	ret
   1f3b8:	4080043b          	negw	s0,s0
   1f3bc:	07c000ef          	jal	ra,1f438 <__errno>
   1f3c0:	00852023          	sw	s0,0(a0)
   1f3c4:	fff00413          	li	s0,-1
   1f3c8:	fddff06f          	j	1f3a4 <_write+0x28>

000000000001f3cc <_conv_stat>:
   1f3cc:	0005b383          	ld	t2,0(a1)
   1f3d0:	0085b283          	ld	t0,8(a1)
   1f3d4:	0105af83          	lw	t6,16(a1)
   1f3d8:	0145af03          	lw	t5,20(a1)
   1f3dc:	0185ae83          	lw	t4,24(a1)
   1f3e0:	01c5ae03          	lw	t3,28(a1)
   1f3e4:	0205b303          	ld	t1,32(a1)
   1f3e8:	0305b883          	ld	a7,48(a1)
   1f3ec:	0405b803          	ld	a6,64(a1)
   1f3f0:	0385a603          	lw	a2,56(a1)
   1f3f4:	0485b683          	ld	a3,72(a1)
   1f3f8:	0585b703          	ld	a4,88(a1)
   1f3fc:	0685b783          	ld	a5,104(a1)
   1f400:	00751023          	sh	t2,0(a0)
   1f404:	00551123          	sh	t0,2(a0)
   1f408:	01f52223          	sw	t6,4(a0)
   1f40c:	01e51423          	sh	t5,8(a0)
   1f410:	01d51523          	sh	t4,10(a0)
   1f414:	01c51623          	sh	t3,12(a0)
   1f418:	00651723          	sh	t1,14(a0)
   1f41c:	01153823          	sd	a7,16(a0)
   1f420:	05053823          	sd	a6,80(a0)
   1f424:	04c53423          	sd	a2,72(a0)
   1f428:	00d53c23          	sd	a3,24(a0)
   1f42c:	02e53423          	sd	a4,40(a0)
   1f430:	02f53c23          	sd	a5,56(a0)
   1f434:	00008067          	ret

000000000001f438 <__errno>:
   1f438:	75818793          	addi	a5,gp,1880 # 23160 <_impure_ptr>
   1f43c:	0007b503          	ld	a0,0(a5)
   1f440:	00008067          	ret

000000000001f444 <__divdf3>:
   1f444:	fa010113          	addi	sp,sp,-96
   1f448:	05213023          	sd	s2,64(sp)
   1f44c:	03455913          	srli	s2,a0,0x34
   1f450:	04913423          	sd	s1,72(sp)
   1f454:	03313c23          	sd	s3,56(sp)
   1f458:	03513423          	sd	s5,40(sp)
   1f45c:	00c51493          	slli	s1,a0,0xc
   1f460:	04113c23          	sd	ra,88(sp)
   1f464:	04813823          	sd	s0,80(sp)
   1f468:	03413823          	sd	s4,48(sp)
   1f46c:	03613023          	sd	s6,32(sp)
   1f470:	01713c23          	sd	s7,24(sp)
   1f474:	01813823          	sd	s8,16(sp)
   1f478:	01913423          	sd	s9,8(sp)
   1f47c:	7ff97913          	andi	s2,s2,2047
   1f480:	00058a93          	mv	s5,a1
   1f484:	00c4d493          	srli	s1,s1,0xc
   1f488:	03f55993          	srli	s3,a0,0x3f
   1f48c:	08090a63          	beqz	s2,1f520 <__divdf3+0xdc>
   1f490:	7ff00793          	li	a5,2047
   1f494:	0af90863          	beq	s2,a5,1f544 <__divdf3+0x100>
   1f498:	00100793          	li	a5,1
   1f49c:	00349493          	slli	s1,s1,0x3
   1f4a0:	03779793          	slli	a5,a5,0x37
   1f4a4:	00f4e4b3          	or	s1,s1,a5
   1f4a8:	c0190913          	addi	s2,s2,-1023
   1f4ac:	00000b13          	li	s6,0
   1f4b0:	034ad513          	srli	a0,s5,0x34
   1f4b4:	00ca9413          	slli	s0,s5,0xc
   1f4b8:	7ff57513          	andi	a0,a0,2047
   1f4bc:	00c45413          	srli	s0,s0,0xc
   1f4c0:	03fada93          	srli	s5,s5,0x3f
   1f4c4:	0a050063          	beqz	a0,1f564 <__divdf3+0x120>
   1f4c8:	7ff00793          	li	a5,2047
   1f4cc:	0af50e63          	beq	a0,a5,1f588 <__divdf3+0x144>
   1f4d0:	00100793          	li	a5,1
   1f4d4:	00341413          	slli	s0,s0,0x3
   1f4d8:	03779793          	slli	a5,a5,0x37
   1f4dc:	00f46433          	or	s0,s0,a5
   1f4e0:	c0150513          	addi	a0,a0,-1023
   1f4e4:	00000793          	li	a5,0
   1f4e8:	002b1713          	slli	a4,s6,0x2
   1f4ec:	00f76733          	or	a4,a4,a5
   1f4f0:	fff70713          	addi	a4,a4,-1
   1f4f4:	00e00693          	li	a3,14
   1f4f8:	0159ca33          	xor	s4,s3,s5
   1f4fc:	40a90933          	sub	s2,s2,a0
   1f500:	0ae6e463          	bltu	a3,a4,1f5a8 <__divdf3+0x164>
   1f504:	00003697          	auipc	a3,0x3
   1f508:	87468693          	addi	a3,a3,-1932 # 21d78 <zeroes.4501+0x10>
   1f50c:	00271713          	slli	a4,a4,0x2
   1f510:	00d70733          	add	a4,a4,a3
   1f514:	00072703          	lw	a4,0(a4)
   1f518:	00d70733          	add	a4,a4,a3
   1f51c:	00070067          	jr	a4
   1f520:	02048c63          	beqz	s1,1f558 <__divdf3+0x114>
   1f524:	00048513          	mv	a0,s1
   1f528:	421010ef          	jal	ra,21148 <__clzdi2>
   1f52c:	0005051b          	sext.w	a0,a0
   1f530:	ff85079b          	addiw	a5,a0,-8
   1f534:	c0d00913          	li	s2,-1011
   1f538:	00f494b3          	sll	s1,s1,a5
   1f53c:	40a90933          	sub	s2,s2,a0
   1f540:	f6dff06f          	j	1f4ac <__divdf3+0x68>
   1f544:	7ff00913          	li	s2,2047
   1f548:	00200b13          	li	s6,2
   1f54c:	f60482e3          	beqz	s1,1f4b0 <__divdf3+0x6c>
   1f550:	00300b13          	li	s6,3
   1f554:	f5dff06f          	j	1f4b0 <__divdf3+0x6c>
   1f558:	00000913          	li	s2,0
   1f55c:	00100b13          	li	s6,1
   1f560:	f51ff06f          	j	1f4b0 <__divdf3+0x6c>
   1f564:	02040c63          	beqz	s0,1f59c <__divdf3+0x158>
   1f568:	00040513          	mv	a0,s0
   1f56c:	3dd010ef          	jal	ra,21148 <__clzdi2>
   1f570:	0005051b          	sext.w	a0,a0
   1f574:	ff85079b          	addiw	a5,a0,-8
   1f578:	00f41433          	sll	s0,s0,a5
   1f57c:	c0d00793          	li	a5,-1011
   1f580:	40a78533          	sub	a0,a5,a0
   1f584:	f61ff06f          	j	1f4e4 <__divdf3+0xa0>
   1f588:	7ff00513          	li	a0,2047
   1f58c:	00200793          	li	a5,2
   1f590:	f4040ce3          	beqz	s0,1f4e8 <__divdf3+0xa4>
   1f594:	00300793          	li	a5,3
   1f598:	f51ff06f          	j	1f4e8 <__divdf3+0xa4>
   1f59c:	00000513          	li	a0,0
   1f5a0:	00100793          	li	a5,1
   1f5a4:	f45ff06f          	j	1f4e8 <__divdf3+0xa4>
   1f5a8:	00841a93          	slli	s5,s0,0x8
   1f5ac:	1284f863          	bgeu	s1,s0,1f6dc <__divdf3+0x298>
   1f5b0:	fff90913          	addi	s2,s2,-1
   1f5b4:	00000413          	li	s0,0
   1f5b8:	020adb93          	srli	s7,s5,0x20
   1f5bc:	fff00b13          	li	s6,-1
   1f5c0:	000b8593          	mv	a1,s7
   1f5c4:	020b5b13          	srli	s6,s6,0x20
   1f5c8:	00048513          	mv	a0,s1
   1f5cc:	2c5010ef          	jal	ra,21090 <__udivdi3>
   1f5d0:	016afb33          	and	s6,s5,s6
   1f5d4:	00050593          	mv	a1,a0
   1f5d8:	00050c93          	mv	s9,a0
   1f5dc:	000b0513          	mv	a0,s6
   1f5e0:	245010ef          	jal	ra,21024 <__muldi3>
   1f5e4:	00050c13          	mv	s8,a0
   1f5e8:	000b8593          	mv	a1,s7
   1f5ec:	00048513          	mv	a0,s1
   1f5f0:	2e9010ef          	jal	ra,210d8 <__umoddi3>
   1f5f4:	02051513          	slli	a0,a0,0x20
   1f5f8:	02045413          	srli	s0,s0,0x20
   1f5fc:	00a46533          	or	a0,s0,a0
   1f600:	000c8993          	mv	s3,s9
   1f604:	01857e63          	bgeu	a0,s8,1f620 <__divdf3+0x1dc>
   1f608:	01550533          	add	a0,a0,s5
   1f60c:	fffc8993          	addi	s3,s9,-1
   1f610:	01556863          	bltu	a0,s5,1f620 <__divdf3+0x1dc>
   1f614:	01857663          	bgeu	a0,s8,1f620 <__divdf3+0x1dc>
   1f618:	ffec8993          	addi	s3,s9,-2
   1f61c:	01550533          	add	a0,a0,s5
   1f620:	41850c33          	sub	s8,a0,s8
   1f624:	000b8593          	mv	a1,s7
   1f628:	000c0513          	mv	a0,s8
   1f62c:	265010ef          	jal	ra,21090 <__udivdi3>
   1f630:	00050593          	mv	a1,a0
   1f634:	00050413          	mv	s0,a0
   1f638:	000b0513          	mv	a0,s6
   1f63c:	1e9010ef          	jal	ra,21024 <__muldi3>
   1f640:	00050b13          	mv	s6,a0
   1f644:	000b8593          	mv	a1,s7
   1f648:	000c0513          	mv	a0,s8
   1f64c:	28d010ef          	jal	ra,210d8 <__umoddi3>
   1f650:	02051513          	slli	a0,a0,0x20
   1f654:	00040793          	mv	a5,s0
   1f658:	01657e63          	bgeu	a0,s6,1f674 <__divdf3+0x230>
   1f65c:	01550533          	add	a0,a0,s5
   1f660:	fff40793          	addi	a5,s0,-1
   1f664:	01556863          	bltu	a0,s5,1f674 <__divdf3+0x230>
   1f668:	01657663          	bgeu	a0,s6,1f674 <__divdf3+0x230>
   1f66c:	ffe40793          	addi	a5,s0,-2
   1f670:	01550533          	add	a0,a0,s5
   1f674:	02099413          	slli	s0,s3,0x20
   1f678:	41650533          	sub	a0,a0,s6
   1f67c:	00f46433          	or	s0,s0,a5
   1f680:	00a03533          	snez	a0,a0
   1f684:	00a46433          	or	s0,s0,a0
   1f688:	3ff90793          	addi	a5,s2,1023
   1f68c:	0ef05a63          	blez	a5,1f780 <__divdf3+0x33c>
   1f690:	00747713          	andi	a4,s0,7
   1f694:	00070a63          	beqz	a4,1f6a8 <__divdf3+0x264>
   1f698:	00f47713          	andi	a4,s0,15
   1f69c:	00400693          	li	a3,4
   1f6a0:	00d70463          	beq	a4,a3,1f6a8 <__divdf3+0x264>
   1f6a4:	00440413          	addi	s0,s0,4
   1f6a8:	00741713          	slli	a4,s0,0x7
   1f6ac:	00075c63          	bgez	a4,1f6c4 <__divdf3+0x280>
   1f6b0:	fff00793          	li	a5,-1
   1f6b4:	03879793          	slli	a5,a5,0x38
   1f6b8:	fff78793          	addi	a5,a5,-1
   1f6bc:	00f47433          	and	s0,s0,a5
   1f6c0:	40090793          	addi	a5,s2,1024
   1f6c4:	7fe00713          	li	a4,2046
   1f6c8:	00345413          	srli	s0,s0,0x3
   1f6cc:	04f75463          	bge	a4,a5,1f714 <__divdf3+0x2d0>
   1f6d0:	00000413          	li	s0,0
   1f6d4:	7ff00793          	li	a5,2047
   1f6d8:	03c0006f          	j	1f714 <__divdf3+0x2d0>
   1f6dc:	03f49413          	slli	s0,s1,0x3f
   1f6e0:	0014d493          	srli	s1,s1,0x1
   1f6e4:	ed5ff06f          	j	1f5b8 <__divdf3+0x174>
   1f6e8:	00098a13          	mv	s4,s3
   1f6ec:	00048413          	mv	s0,s1
   1f6f0:	000b0793          	mv	a5,s6
   1f6f4:	00200713          	li	a4,2
   1f6f8:	fce78ce3          	beq	a5,a4,1f6d0 <__divdf3+0x28c>
   1f6fc:	00300713          	li	a4,3
   1f700:	0ce78e63          	beq	a5,a4,1f7dc <__divdf3+0x398>
   1f704:	00100713          	li	a4,1
   1f708:	f8e790e3          	bne	a5,a4,1f688 <__divdf3+0x244>
   1f70c:	00000413          	li	s0,0
   1f710:	00000793          	li	a5,0
   1f714:	00c41413          	slli	s0,s0,0xc
   1f718:	7ff7f793          	andi	a5,a5,2047
   1f71c:	03479793          	slli	a5,a5,0x34
   1f720:	00c45413          	srli	s0,s0,0xc
   1f724:	03fa1513          	slli	a0,s4,0x3f
   1f728:	00f46433          	or	s0,s0,a5
   1f72c:	00a46533          	or	a0,s0,a0
   1f730:	05813083          	ld	ra,88(sp)
   1f734:	05013403          	ld	s0,80(sp)
   1f738:	04813483          	ld	s1,72(sp)
   1f73c:	04013903          	ld	s2,64(sp)
   1f740:	03813983          	ld	s3,56(sp)
   1f744:	03013a03          	ld	s4,48(sp)
   1f748:	02813a83          	ld	s5,40(sp)
   1f74c:	02013b03          	ld	s6,32(sp)
   1f750:	01813b83          	ld	s7,24(sp)
   1f754:	01013c03          	ld	s8,16(sp)
   1f758:	00813c83          	ld	s9,8(sp)
   1f75c:	06010113          	addi	sp,sp,96
   1f760:	00008067          	ret
   1f764:	000a8a13          	mv	s4,s5
   1f768:	f8dff06f          	j	1f6f4 <__divdf3+0x2b0>
   1f76c:	00100413          	li	s0,1
   1f770:	03341413          	slli	s0,s0,0x33
   1f774:	00000a13          	li	s4,0
   1f778:	00300793          	li	a5,3
   1f77c:	f79ff06f          	j	1f6f4 <__divdf3+0x2b0>
   1f780:	00100713          	li	a4,1
   1f784:	40f707b3          	sub	a5,a4,a5
   1f788:	03800713          	li	a4,56
   1f78c:	f8f740e3          	blt	a4,a5,1f70c <__divdf3+0x2c8>
   1f790:	0007871b          	sext.w	a4,a5
   1f794:	04000693          	li	a3,64
   1f798:	00e457b3          	srl	a5,s0,a4
   1f79c:	40e6873b          	subw	a4,a3,a4
   1f7a0:	00e41433          	sll	s0,s0,a4
   1f7a4:	00803433          	snez	s0,s0
   1f7a8:	0087e433          	or	s0,a5,s0
   1f7ac:	00747793          	andi	a5,s0,7
   1f7b0:	00078a63          	beqz	a5,1f7c4 <__divdf3+0x380>
   1f7b4:	00f47793          	andi	a5,s0,15
   1f7b8:	00400713          	li	a4,4
   1f7bc:	00e78463          	beq	a5,a4,1f7c4 <__divdf3+0x380>
   1f7c0:	00440413          	addi	s0,s0,4
   1f7c4:	00841793          	slli	a5,s0,0x8
   1f7c8:	00345413          	srli	s0,s0,0x3
   1f7cc:	f407d2e3          	bgez	a5,1f710 <__divdf3+0x2cc>
   1f7d0:	00000413          	li	s0,0
   1f7d4:	00100793          	li	a5,1
   1f7d8:	f3dff06f          	j	1f714 <__divdf3+0x2d0>
   1f7dc:	00100413          	li	s0,1
   1f7e0:	03341413          	slli	s0,s0,0x33
   1f7e4:	7ff00793          	li	a5,2047
   1f7e8:	00000a13          	li	s4,0
   1f7ec:	f29ff06f          	j	1f714 <__divdf3+0x2d0>

000000000001f7f0 <__muldf3>:
   1f7f0:	fc010113          	addi	sp,sp,-64
   1f7f4:	03213023          	sd	s2,32(sp)
   1f7f8:	03455913          	srli	s2,a0,0x34
   1f7fc:	02913423          	sd	s1,40(sp)
   1f800:	01313c23          	sd	s3,24(sp)
   1f804:	01513423          	sd	s5,8(sp)
   1f808:	00c51493          	slli	s1,a0,0xc
   1f80c:	02113c23          	sd	ra,56(sp)
   1f810:	02813823          	sd	s0,48(sp)
   1f814:	01413823          	sd	s4,16(sp)
   1f818:	7ff97913          	andi	s2,s2,2047
   1f81c:	00058a93          	mv	s5,a1
   1f820:	00c4d493          	srli	s1,s1,0xc
   1f824:	03f55993          	srli	s3,a0,0x3f
   1f828:	08090c63          	beqz	s2,1f8c0 <__muldf3+0xd0>
   1f82c:	7ff00793          	li	a5,2047
   1f830:	0af90a63          	beq	s2,a5,1f8e4 <__muldf3+0xf4>
   1f834:	00100793          	li	a5,1
   1f838:	00349493          	slli	s1,s1,0x3
   1f83c:	03779793          	slli	a5,a5,0x37
   1f840:	00f4e4b3          	or	s1,s1,a5
   1f844:	c0190913          	addi	s2,s2,-1023
   1f848:	00000a13          	li	s4,0
   1f84c:	034ad513          	srli	a0,s5,0x34
   1f850:	00ca9413          	slli	s0,s5,0xc
   1f854:	7ff57513          	andi	a0,a0,2047
   1f858:	00c45413          	srli	s0,s0,0xc
   1f85c:	03fada93          	srli	s5,s5,0x3f
   1f860:	0a050263          	beqz	a0,1f904 <__muldf3+0x114>
   1f864:	7ff00793          	li	a5,2047
   1f868:	0cf50063          	beq	a0,a5,1f928 <__muldf3+0x138>
   1f86c:	00100793          	li	a5,1
   1f870:	00341413          	slli	s0,s0,0x3
   1f874:	03779793          	slli	a5,a5,0x37
   1f878:	00f46433          	or	s0,s0,a5
   1f87c:	c0150513          	addi	a0,a0,-1023
   1f880:	00000793          	li	a5,0
   1f884:	002a1713          	slli	a4,s4,0x2
   1f888:	00f76733          	or	a4,a4,a5
   1f88c:	00a90933          	add	s2,s2,a0
   1f890:	fff70713          	addi	a4,a4,-1
   1f894:	00e00693          	li	a3,14
   1f898:	0159c833          	xor	a6,s3,s5
   1f89c:	00190893          	addi	a7,s2,1
   1f8a0:	0ae6e463          	bltu	a3,a4,1f948 <__muldf3+0x158>
   1f8a4:	00002697          	auipc	a3,0x2
   1f8a8:	51068693          	addi	a3,a3,1296 # 21db4 <zeroes.4501+0x4c>
   1f8ac:	00271713          	slli	a4,a4,0x2
   1f8b0:	00d70733          	add	a4,a4,a3
   1f8b4:	00072703          	lw	a4,0(a4)
   1f8b8:	00d70733          	add	a4,a4,a3
   1f8bc:	00070067          	jr	a4
   1f8c0:	02048c63          	beqz	s1,1f8f8 <__muldf3+0x108>
   1f8c4:	00048513          	mv	a0,s1
   1f8c8:	081010ef          	jal	ra,21148 <__clzdi2>
   1f8cc:	0005051b          	sext.w	a0,a0
   1f8d0:	ff85079b          	addiw	a5,a0,-8
   1f8d4:	c0d00913          	li	s2,-1011
   1f8d8:	00f494b3          	sll	s1,s1,a5
   1f8dc:	40a90933          	sub	s2,s2,a0
   1f8e0:	f69ff06f          	j	1f848 <__muldf3+0x58>
   1f8e4:	7ff00913          	li	s2,2047
   1f8e8:	00200a13          	li	s4,2
   1f8ec:	f60480e3          	beqz	s1,1f84c <__muldf3+0x5c>
   1f8f0:	00300a13          	li	s4,3
   1f8f4:	f59ff06f          	j	1f84c <__muldf3+0x5c>
   1f8f8:	00000913          	li	s2,0
   1f8fc:	00100a13          	li	s4,1
   1f900:	f4dff06f          	j	1f84c <__muldf3+0x5c>
   1f904:	02040c63          	beqz	s0,1f93c <__muldf3+0x14c>
   1f908:	00040513          	mv	a0,s0
   1f90c:	03d010ef          	jal	ra,21148 <__clzdi2>
   1f910:	0005051b          	sext.w	a0,a0
   1f914:	ff85079b          	addiw	a5,a0,-8
   1f918:	00f41433          	sll	s0,s0,a5
   1f91c:	c0d00793          	li	a5,-1011
   1f920:	40a78533          	sub	a0,a5,a0
   1f924:	f5dff06f          	j	1f880 <__muldf3+0x90>
   1f928:	7ff00513          	li	a0,2047
   1f92c:	00200793          	li	a5,2
   1f930:	f4040ae3          	beqz	s0,1f884 <__muldf3+0x94>
   1f934:	00300793          	li	a5,3
   1f938:	f4dff06f          	j	1f884 <__muldf3+0x94>
   1f93c:	00000513          	li	a0,0
   1f940:	00100793          	li	a5,1
   1f944:	f41ff06f          	j	1f884 <__muldf3+0x94>
   1f948:	fff00793          	li	a5,-1
   1f94c:	0207d793          	srli	a5,a5,0x20
   1f950:	0204df13          	srli	t5,s1,0x20
   1f954:	02045e93          	srli	t4,s0,0x20
   1f958:	00f4f4b3          	and	s1,s1,a5
   1f95c:	00f47433          	and	s0,s0,a5
   1f960:	00048513          	mv	a0,s1
   1f964:	00040593          	mv	a1,s0
   1f968:	6bc010ef          	jal	ra,21024 <__muldi3>
   1f96c:	00050313          	mv	t1,a0
   1f970:	000e8593          	mv	a1,t4
   1f974:	00048513          	mv	a0,s1
   1f978:	6ac010ef          	jal	ra,21024 <__muldi3>
   1f97c:	00050713          	mv	a4,a0
   1f980:	00040593          	mv	a1,s0
   1f984:	000f0513          	mv	a0,t5
   1f988:	69c010ef          	jal	ra,21024 <__muldi3>
   1f98c:	00050e13          	mv	t3,a0
   1f990:	000e8593          	mv	a1,t4
   1f994:	000f0513          	mv	a0,t5
   1f998:	68c010ef          	jal	ra,21024 <__muldi3>
   1f99c:	02035793          	srli	a5,t1,0x20
   1f9a0:	01c70733          	add	a4,a4,t3
   1f9a4:	00e787b3          	add	a5,a5,a4
   1f9a8:	01c7f863          	bgeu	a5,t3,1f9b8 <__muldf3+0x1c8>
   1f9ac:	00100713          	li	a4,1
   1f9b0:	02071713          	slli	a4,a4,0x20
   1f9b4:	00e50533          	add	a0,a0,a4
   1f9b8:	fff00693          	li	a3,-1
   1f9bc:	0206d693          	srli	a3,a3,0x20
   1f9c0:	00d7f733          	and	a4,a5,a3
   1f9c4:	02071713          	slli	a4,a4,0x20
   1f9c8:	00d37333          	and	t1,t1,a3
   1f9cc:	00670733          	add	a4,a4,t1
   1f9d0:	00971413          	slli	s0,a4,0x9
   1f9d4:	0207d793          	srli	a5,a5,0x20
   1f9d8:	00803433          	snez	s0,s0
   1f9dc:	00a787b3          	add	a5,a5,a0
   1f9e0:	03775713          	srli	a4,a4,0x37
   1f9e4:	00e46733          	or	a4,s0,a4
   1f9e8:	00979413          	slli	s0,a5,0x9
   1f9ec:	00e46433          	or	s0,s0,a4
   1f9f0:	00741793          	slli	a5,s0,0x7
   1f9f4:	0807de63          	bgez	a5,1fa90 <__muldf3+0x2a0>
   1f9f8:	00145793          	srli	a5,s0,0x1
   1f9fc:	00147413          	andi	s0,s0,1
   1fa00:	0087e433          	or	s0,a5,s0
   1fa04:	3ff88793          	addi	a5,a7,1023
   1fa08:	08f05863          	blez	a5,1fa98 <__muldf3+0x2a8>
   1fa0c:	00747713          	andi	a4,s0,7
   1fa10:	00070a63          	beqz	a4,1fa24 <__muldf3+0x234>
   1fa14:	00f47713          	andi	a4,s0,15
   1fa18:	00400693          	li	a3,4
   1fa1c:	00d70463          	beq	a4,a3,1fa24 <__muldf3+0x234>
   1fa20:	00440413          	addi	s0,s0,4
   1fa24:	00741713          	slli	a4,s0,0x7
   1fa28:	00075c63          	bgez	a4,1fa40 <__muldf3+0x250>
   1fa2c:	fff00793          	li	a5,-1
   1fa30:	03879793          	slli	a5,a5,0x38
   1fa34:	fff78793          	addi	a5,a5,-1
   1fa38:	00f47433          	and	s0,s0,a5
   1fa3c:	40088793          	addi	a5,a7,1024
   1fa40:	7fe00713          	li	a4,2046
   1fa44:	00345413          	srli	s0,s0,0x3
   1fa48:	0af75e63          	bge	a4,a5,1fb04 <__muldf3+0x314>
   1fa4c:	00000413          	li	s0,0
   1fa50:	7ff00793          	li	a5,2047
   1fa54:	0b00006f          	j	1fb04 <__muldf3+0x314>
   1fa58:	00098813          	mv	a6,s3
   1fa5c:	00048413          	mv	s0,s1
   1fa60:	000a0793          	mv	a5,s4
   1fa64:	00200713          	li	a4,2
   1fa68:	fee782e3          	beq	a5,a4,1fa4c <__muldf3+0x25c>
   1fa6c:	00300713          	li	a4,3
   1fa70:	08e78263          	beq	a5,a4,1faf4 <__muldf3+0x304>
   1fa74:	00100713          	li	a4,1
   1fa78:	f8e796e3          	bne	a5,a4,1fa04 <__muldf3+0x214>
   1fa7c:	00000413          	li	s0,0
   1fa80:	00000793          	li	a5,0
   1fa84:	0800006f          	j	1fb04 <__muldf3+0x314>
   1fa88:	000a8813          	mv	a6,s5
   1fa8c:	fd9ff06f          	j	1fa64 <__muldf3+0x274>
   1fa90:	00090893          	mv	a7,s2
   1fa94:	f71ff06f          	j	1fa04 <__muldf3+0x214>
   1fa98:	00100713          	li	a4,1
   1fa9c:	40f707b3          	sub	a5,a4,a5
   1faa0:	03800713          	li	a4,56
   1faa4:	fcf74ce3          	blt	a4,a5,1fa7c <__muldf3+0x28c>
   1faa8:	0007871b          	sext.w	a4,a5
   1faac:	04000693          	li	a3,64
   1fab0:	00e457b3          	srl	a5,s0,a4
   1fab4:	40e6873b          	subw	a4,a3,a4
   1fab8:	00e41433          	sll	s0,s0,a4
   1fabc:	00803433          	snez	s0,s0
   1fac0:	0087e433          	or	s0,a5,s0
   1fac4:	00747793          	andi	a5,s0,7
   1fac8:	00078a63          	beqz	a5,1fadc <__muldf3+0x2ec>
   1facc:	00f47793          	andi	a5,s0,15
   1fad0:	00400713          	li	a4,4
   1fad4:	00e78463          	beq	a5,a4,1fadc <__muldf3+0x2ec>
   1fad8:	00440413          	addi	s0,s0,4
   1fadc:	00841793          	slli	a5,s0,0x8
   1fae0:	00345413          	srli	s0,s0,0x3
   1fae4:	f807dee3          	bgez	a5,1fa80 <__muldf3+0x290>
   1fae8:	00000413          	li	s0,0
   1faec:	00100793          	li	a5,1
   1faf0:	0140006f          	j	1fb04 <__muldf3+0x314>
   1faf4:	00100413          	li	s0,1
   1faf8:	03341413          	slli	s0,s0,0x33
   1fafc:	7ff00793          	li	a5,2047
   1fb00:	00000813          	li	a6,0
   1fb04:	00c41413          	slli	s0,s0,0xc
   1fb08:	7ff7f793          	andi	a5,a5,2047
   1fb0c:	03479793          	slli	a5,a5,0x34
   1fb10:	00c45413          	srli	s0,s0,0xc
   1fb14:	00f46433          	or	s0,s0,a5
   1fb18:	03f81513          	slli	a0,a6,0x3f
   1fb1c:	00a46533          	or	a0,s0,a0
   1fb20:	03813083          	ld	ra,56(sp)
   1fb24:	03013403          	ld	s0,48(sp)
   1fb28:	02813483          	ld	s1,40(sp)
   1fb2c:	02013903          	ld	s2,32(sp)
   1fb30:	01813983          	ld	s3,24(sp)
   1fb34:	01013a03          	ld	s4,16(sp)
   1fb38:	00813a83          	ld	s5,8(sp)
   1fb3c:	04010113          	addi	sp,sp,64
   1fb40:	00008067          	ret

000000000001fb44 <__eqtf2>:
   1fb44:	000088b7          	lui	a7,0x8
   1fb48:	0305d813          	srli	a6,a1,0x30
   1fb4c:	fff88893          	addi	a7,a7,-1 # 7fff <register_fini-0x80b1>
   1fb50:	fff00713          	li	a4,-1
   1fb54:	01075713          	srli	a4,a4,0x10
   1fb58:	0306d313          	srli	t1,a3,0x30
   1fb5c:	01187833          	and	a6,a6,a7
   1fb60:	00e5fe33          	and	t3,a1,a4
   1fb64:	01137333          	and	t1,t1,a7
   1fb68:	00e6f733          	and	a4,a3,a4
   1fb6c:	03f5d593          	srli	a1,a1,0x3f
   1fb70:	03f6d693          	srli	a3,a3,0x3f
   1fb74:	01181e63          	bne	a6,a7,1fb90 <__eqtf2+0x4c>
   1fb78:	00ae68b3          	or	a7,t3,a0
   1fb7c:	00100793          	li	a5,1
   1fb80:	04089063          	bnez	a7,1fbc0 <__eqtf2+0x7c>
   1fb84:	01030863          	beq	t1,a6,1fb94 <__eqtf2+0x50>
   1fb88:	00100793          	li	a5,1
   1fb8c:	0340006f          	j	1fbc0 <__eqtf2+0x7c>
   1fb90:	01131863          	bne	t1,a7,1fba0 <__eqtf2+0x5c>
   1fb94:	00c768b3          	or	a7,a4,a2
   1fb98:	00100793          	li	a5,1
   1fb9c:	02089263          	bnez	a7,1fbc0 <__eqtf2+0x7c>
   1fba0:	00100793          	li	a5,1
   1fba4:	00681e63          	bne	a6,t1,1fbc0 <__eqtf2+0x7c>
   1fba8:	00ee1c63          	bne	t3,a4,1fbc0 <__eqtf2+0x7c>
   1fbac:	00c51a63          	bne	a0,a2,1fbc0 <__eqtf2+0x7c>
   1fbb0:	00d58c63          	beq	a1,a3,1fbc8 <__eqtf2+0x84>
   1fbb4:	00081663          	bnez	a6,1fbc0 <__eqtf2+0x7c>
   1fbb8:	00ae67b3          	or	a5,t3,a0
   1fbbc:	00f037b3          	snez	a5,a5
   1fbc0:	00078513          	mv	a0,a5
   1fbc4:	00008067          	ret
   1fbc8:	00000793          	li	a5,0
   1fbcc:	ff5ff06f          	j	1fbc0 <__eqtf2+0x7c>

000000000001fbd0 <__getf2>:
   1fbd0:	000088b7          	lui	a7,0x8
   1fbd4:	0305d813          	srli	a6,a1,0x30
   1fbd8:	fff88893          	addi	a7,a7,-1 # 7fff <register_fini-0x80b1>
   1fbdc:	fff00793          	li	a5,-1
   1fbe0:	0107d793          	srli	a5,a5,0x10
   1fbe4:	0306d713          	srli	a4,a3,0x30
   1fbe8:	01187833          	and	a6,a6,a7
   1fbec:	00f5f333          	and	t1,a1,a5
   1fbf0:	01177733          	and	a4,a4,a7
   1fbf4:	00f6f7b3          	and	a5,a3,a5
   1fbf8:	03f5d593          	srli	a1,a1,0x3f
   1fbfc:	03f6d693          	srli	a3,a3,0x3f
   1fc00:	01181a63          	bne	a6,a7,1fc14 <__getf2+0x44>
   1fc04:	00a368b3          	or	a7,t1,a0
   1fc08:	08088c63          	beqz	a7,1fca0 <__getf2+0xd0>
   1fc0c:	ffe00593          	li	a1,-2
   1fc10:	0480006f          	j	1fc58 <__getf2+0x88>
   1fc14:	01171663          	bne	a4,a7,1fc20 <__getf2+0x50>
   1fc18:	00c7e8b3          	or	a7,a5,a2
   1fc1c:	fe0898e3          	bnez	a7,1fc0c <__getf2+0x3c>
   1fc20:	08081263          	bnez	a6,1fca4 <__getf2+0xd4>
   1fc24:	00a368b3          	or	a7,t1,a0
   1fc28:	0018b893          	seqz	a7,a7
   1fc2c:	00071663          	bnez	a4,1fc38 <__getf2+0x68>
   1fc30:	00c7ee33          	or	t3,a5,a2
   1fc34:	040e0e63          	beqz	t3,1fc90 <__getf2+0xc0>
   1fc38:	00089a63          	bnez	a7,1fc4c <__getf2+0x7c>
   1fc3c:	02d58263          	beq	a1,a3,1fc60 <__getf2+0x90>
   1fc40:	04058463          	beqz	a1,1fc88 <__getf2+0xb8>
   1fc44:	fff00593          	li	a1,-1
   1fc48:	0100006f          	j	1fc58 <__getf2+0x88>
   1fc4c:	fff00593          	li	a1,-1
   1fc50:	00068463          	beqz	a3,1fc58 <__getf2+0x88>
   1fc54:	00068593          	mv	a1,a3
   1fc58:	00058513          	mv	a0,a1
   1fc5c:	00008067          	ret
   1fc60:	ff0740e3          	blt	a4,a6,1fc40 <__getf2+0x70>
   1fc64:	00e85663          	bge	a6,a4,1fc70 <__getf2+0xa0>
   1fc68:	fe0598e3          	bnez	a1,1fc58 <__getf2+0x88>
   1fc6c:	fd9ff06f          	j	1fc44 <__getf2+0x74>
   1fc70:	fc67e8e3          	bltu	a5,t1,1fc40 <__getf2+0x70>
   1fc74:	02f31263          	bne	t1,a5,1fc98 <__getf2+0xc8>
   1fc78:	fca664e3          	bltu	a2,a0,1fc40 <__getf2+0x70>
   1fc7c:	fec566e3          	bltu	a0,a2,1fc68 <__getf2+0x98>
   1fc80:	00000593          	li	a1,0
   1fc84:	fd5ff06f          	j	1fc58 <__getf2+0x88>
   1fc88:	00100593          	li	a1,1
   1fc8c:	fcdff06f          	j	1fc58 <__getf2+0x88>
   1fc90:	fe0898e3          	bnez	a7,1fc80 <__getf2+0xb0>
   1fc94:	fadff06f          	j	1fc40 <__getf2+0x70>
   1fc98:	fcf368e3          	bltu	t1,a5,1fc68 <__getf2+0x98>
   1fc9c:	fe5ff06f          	j	1fc80 <__getf2+0xb0>
   1fca0:	f7070ce3          	beq	a4,a6,1fc18 <__getf2+0x48>
   1fca4:	f8071ce3          	bnez	a4,1fc3c <__getf2+0x6c>
   1fca8:	00000893          	li	a7,0
   1fcac:	f85ff06f          	j	1fc30 <__getf2+0x60>

000000000001fcb0 <__letf2>:
   1fcb0:	000088b7          	lui	a7,0x8
   1fcb4:	0305d813          	srli	a6,a1,0x30
   1fcb8:	fff88893          	addi	a7,a7,-1 # 7fff <register_fini-0x80b1>
   1fcbc:	fff00793          	li	a5,-1
   1fcc0:	0107d793          	srli	a5,a5,0x10
   1fcc4:	0306d713          	srli	a4,a3,0x30
   1fcc8:	01187833          	and	a6,a6,a7
   1fccc:	00f5f333          	and	t1,a1,a5
   1fcd0:	01177733          	and	a4,a4,a7
   1fcd4:	00f6f7b3          	and	a5,a3,a5
   1fcd8:	03f5d593          	srli	a1,a1,0x3f
   1fcdc:	03f6d693          	srli	a3,a3,0x3f
   1fce0:	01181a63          	bne	a6,a7,1fcf4 <__letf2+0x44>
   1fce4:	00a368b3          	or	a7,t1,a0
   1fce8:	08088c63          	beqz	a7,1fd80 <__letf2+0xd0>
   1fcec:	00200593          	li	a1,2
   1fcf0:	0480006f          	j	1fd38 <__letf2+0x88>
   1fcf4:	01171663          	bne	a4,a7,1fd00 <__letf2+0x50>
   1fcf8:	00c7e8b3          	or	a7,a5,a2
   1fcfc:	fe0898e3          	bnez	a7,1fcec <__letf2+0x3c>
   1fd00:	08081263          	bnez	a6,1fd84 <__letf2+0xd4>
   1fd04:	00a368b3          	or	a7,t1,a0
   1fd08:	0018b893          	seqz	a7,a7
   1fd0c:	00071663          	bnez	a4,1fd18 <__letf2+0x68>
   1fd10:	00c7ee33          	or	t3,a5,a2
   1fd14:	040e0e63          	beqz	t3,1fd70 <__letf2+0xc0>
   1fd18:	00089a63          	bnez	a7,1fd2c <__letf2+0x7c>
   1fd1c:	02d58263          	beq	a1,a3,1fd40 <__letf2+0x90>
   1fd20:	04058463          	beqz	a1,1fd68 <__letf2+0xb8>
   1fd24:	fff00593          	li	a1,-1
   1fd28:	0100006f          	j	1fd38 <__letf2+0x88>
   1fd2c:	fff00593          	li	a1,-1
   1fd30:	00068463          	beqz	a3,1fd38 <__letf2+0x88>
   1fd34:	00068593          	mv	a1,a3
   1fd38:	00058513          	mv	a0,a1
   1fd3c:	00008067          	ret
   1fd40:	ff0740e3          	blt	a4,a6,1fd20 <__letf2+0x70>
   1fd44:	00e85663          	bge	a6,a4,1fd50 <__letf2+0xa0>
   1fd48:	fe0598e3          	bnez	a1,1fd38 <__letf2+0x88>
   1fd4c:	fd9ff06f          	j	1fd24 <__letf2+0x74>
   1fd50:	fc67e8e3          	bltu	a5,t1,1fd20 <__letf2+0x70>
   1fd54:	02f31263          	bne	t1,a5,1fd78 <__letf2+0xc8>
   1fd58:	fca664e3          	bltu	a2,a0,1fd20 <__letf2+0x70>
   1fd5c:	fec566e3          	bltu	a0,a2,1fd48 <__letf2+0x98>
   1fd60:	00000593          	li	a1,0
   1fd64:	fd5ff06f          	j	1fd38 <__letf2+0x88>
   1fd68:	00100593          	li	a1,1
   1fd6c:	fcdff06f          	j	1fd38 <__letf2+0x88>
   1fd70:	fe0898e3          	bnez	a7,1fd60 <__letf2+0xb0>
   1fd74:	fadff06f          	j	1fd20 <__letf2+0x70>
   1fd78:	fcf368e3          	bltu	t1,a5,1fd48 <__letf2+0x98>
   1fd7c:	fe5ff06f          	j	1fd60 <__letf2+0xb0>
   1fd80:	f7070ce3          	beq	a4,a6,1fcf8 <__letf2+0x48>
   1fd84:	f8071ce3          	bnez	a4,1fd1c <__letf2+0x6c>
   1fd88:	00000893          	li	a7,0
   1fd8c:	f85ff06f          	j	1fd10 <__letf2+0x60>

000000000001fd90 <__multf3>:
   1fd90:	fa010113          	addi	sp,sp,-96
   1fd94:	00008737          	lui	a4,0x8
   1fd98:	03313c23          	sd	s3,56(sp)
   1fd9c:	fff70713          	addi	a4,a4,-1 # 7fff <register_fini-0x80b1>
   1fda0:	0305d993          	srli	s3,a1,0x30
   1fda4:	04813823          	sd	s0,80(sp)
   1fda8:	04913423          	sd	s1,72(sp)
   1fdac:	03413823          	sd	s4,48(sp)
   1fdb0:	03513423          	sd	s5,40(sp)
   1fdb4:	03613023          	sd	s6,32(sp)
   1fdb8:	01059493          	slli	s1,a1,0x10
   1fdbc:	04113c23          	sd	ra,88(sp)
   1fdc0:	05213023          	sd	s2,64(sp)
   1fdc4:	01713c23          	sd	s7,24(sp)
   1fdc8:	01813823          	sd	s8,16(sp)
   1fdcc:	01913423          	sd	s9,8(sp)
   1fdd0:	00e9f7b3          	and	a5,s3,a4
   1fdd4:	00050413          	mv	s0,a0
   1fdd8:	00060b13          	mv	s6,a2
   1fddc:	00068a13          	mv	s4,a3
   1fde0:	0104d493          	srli	s1,s1,0x10
   1fde4:	03f5da93          	srli	s5,a1,0x3f
   1fde8:	0c078463          	beqz	a5,1feb0 <__multf3+0x120>
   1fdec:	0007899b          	sext.w	s3,a5
   1fdf0:	12e98a63          	beq	s3,a4,1ff24 <__multf3+0x194>
   1fdf4:	00349493          	slli	s1,s1,0x3
   1fdf8:	03d55713          	srli	a4,a0,0x3d
   1fdfc:	00976733          	or	a4,a4,s1
   1fe00:	ffffc9b7          	lui	s3,0xffffc
   1fe04:	00100493          	li	s1,1
   1fe08:	03349493          	slli	s1,s1,0x33
   1fe0c:	00198993          	addi	s3,s3,1 # ffffffffffffc001 <__BSS_END__+0xfffffffffffd8df9>
   1fe10:	009764b3          	or	s1,a4,s1
   1fe14:	00351913          	slli	s2,a0,0x3
   1fe18:	013789b3          	add	s3,a5,s3
   1fe1c:	00000b93          	li	s7,0
   1fe20:	000087b7          	lui	a5,0x8
   1fe24:	030a5513          	srli	a0,s4,0x30
   1fe28:	fff78793          	addi	a5,a5,-1 # 7fff <register_fini-0x80b1>
   1fe2c:	010a1413          	slli	s0,s4,0x10
   1fe30:	00f57733          	and	a4,a0,a5
   1fe34:	01045413          	srli	s0,s0,0x10
   1fe38:	03fa5a13          	srli	s4,s4,0x3f
   1fe3c:	10070c63          	beqz	a4,1ff54 <__multf3+0x1c4>
   1fe40:	0007051b          	sext.w	a0,a4
   1fe44:	18f50463          	beq	a0,a5,1ffcc <__multf3+0x23c>
   1fe48:	00341413          	slli	s0,s0,0x3
   1fe4c:	03db5593          	srli	a1,s6,0x3d
   1fe50:	0085e5b3          	or	a1,a1,s0
   1fe54:	ffffc537          	lui	a0,0xffffc
   1fe58:	00100413          	li	s0,1
   1fe5c:	03341413          	slli	s0,s0,0x33
   1fe60:	00150513          	addi	a0,a0,1 # ffffffffffffc001 <__BSS_END__+0xfffffffffffd8df9>
   1fe64:	0085e433          	or	s0,a1,s0
   1fe68:	003b1793          	slli	a5,s6,0x3
   1fe6c:	00a70533          	add	a0,a4,a0
   1fe70:	00000713          	li	a4,0
   1fe74:	002b9693          	slli	a3,s7,0x2
   1fe78:	00e6e6b3          	or	a3,a3,a4
   1fe7c:	013509b3          	add	s3,a0,s3
   1fe80:	fff68693          	addi	a3,a3,-1
   1fe84:	00e00613          	li	a2,14
   1fe88:	014ac833          	xor	a6,s5,s4
   1fe8c:	00198893          	addi	a7,s3,1
   1fe90:	16d66663          	bltu	a2,a3,1fffc <__multf3+0x26c>
   1fe94:	00002617          	auipc	a2,0x2
   1fe98:	f5c60613          	addi	a2,a2,-164 # 21df0 <zeroes.4501+0x88>
   1fe9c:	00269693          	slli	a3,a3,0x2
   1fea0:	00c686b3          	add	a3,a3,a2
   1fea4:	0006a683          	lw	a3,0(a3)
   1fea8:	00c686b3          	add	a3,a3,a2
   1feac:	00068067          	jr	a3
   1feb0:	00956933          	or	s2,a0,s1
   1feb4:	08090263          	beqz	s2,1ff38 <__multf3+0x1a8>
   1feb8:	04048663          	beqz	s1,1ff04 <__multf3+0x174>
   1febc:	00048513          	mv	a0,s1
   1fec0:	288010ef          	jal	ra,21148 <__clzdi2>
   1fec4:	0005051b          	sext.w	a0,a0
   1fec8:	ff150713          	addi	a4,a0,-15
   1fecc:	03c00693          	li	a3,60
   1fed0:	0007079b          	sext.w	a5,a4
   1fed4:	04e6c063          	blt	a3,a4,1ff14 <__multf3+0x184>
   1fed8:	03d00713          	li	a4,61
   1fedc:	0037891b          	addiw	s2,a5,3
   1fee0:	40f707bb          	subw	a5,a4,a5
   1fee4:	012494b3          	sll	s1,s1,s2
   1fee8:	00f457b3          	srl	a5,s0,a5
   1feec:	0097e4b3          	or	s1,a5,s1
   1fef0:	01241933          	sll	s2,s0,s2
   1fef4:	ffffc9b7          	lui	s3,0xffffc
   1fef8:	01198993          	addi	s3,s3,17 # ffffffffffffc011 <__BSS_END__+0xfffffffffffd8e09>
   1fefc:	40a989b3          	sub	s3,s3,a0
   1ff00:	f1dff06f          	j	1fe1c <__multf3+0x8c>
   1ff04:	244010ef          	jal	ra,21148 <__clzdi2>
   1ff08:	0005051b          	sext.w	a0,a0
   1ff0c:	04050513          	addi	a0,a0,64
   1ff10:	fb9ff06f          	j	1fec8 <__multf3+0x138>
   1ff14:	fc37849b          	addiw	s1,a5,-61
   1ff18:	009414b3          	sll	s1,s0,s1
   1ff1c:	00000913          	li	s2,0
   1ff20:	fd5ff06f          	j	1fef4 <__multf3+0x164>
   1ff24:	00956933          	or	s2,a0,s1
   1ff28:	02090063          	beqz	s2,1ff48 <__multf3+0x1b8>
   1ff2c:	00050913          	mv	s2,a0
   1ff30:	00300b93          	li	s7,3
   1ff34:	eedff06f          	j	1fe20 <__multf3+0x90>
   1ff38:	00000493          	li	s1,0
   1ff3c:	00000993          	li	s3,0
   1ff40:	00100b93          	li	s7,1
   1ff44:	eddff06f          	j	1fe20 <__multf3+0x90>
   1ff48:	00000493          	li	s1,0
   1ff4c:	00200b93          	li	s7,2
   1ff50:	ed1ff06f          	j	1fe20 <__multf3+0x90>
   1ff54:	008b67b3          	or	a5,s6,s0
   1ff58:	08078463          	beqz	a5,1ffe0 <__multf3+0x250>
   1ff5c:	04040663          	beqz	s0,1ffa8 <__multf3+0x218>
   1ff60:	00040513          	mv	a0,s0
   1ff64:	1e4010ef          	jal	ra,21148 <__clzdi2>
   1ff68:	0005051b          	sext.w	a0,a0
   1ff6c:	ff150793          	addi	a5,a0,-15
   1ff70:	03c00693          	li	a3,60
   1ff74:	0007871b          	sext.w	a4,a5
   1ff78:	04f6c263          	blt	a3,a5,1ffbc <__multf3+0x22c>
   1ff7c:	03d00693          	li	a3,61
   1ff80:	0037079b          	addiw	a5,a4,3
   1ff84:	40e6873b          	subw	a4,a3,a4
   1ff88:	00f41433          	sll	s0,s0,a5
   1ff8c:	00eb5733          	srl	a4,s6,a4
   1ff90:	00876433          	or	s0,a4,s0
   1ff94:	00fb17b3          	sll	a5,s6,a5
   1ff98:	ffffc737          	lui	a4,0xffffc
   1ff9c:	01170713          	addi	a4,a4,17 # ffffffffffffc011 <__BSS_END__+0xfffffffffffd8e09>
   1ffa0:	40a70533          	sub	a0,a4,a0
   1ffa4:	ecdff06f          	j	1fe70 <__multf3+0xe0>
   1ffa8:	000b0513          	mv	a0,s6
   1ffac:	19c010ef          	jal	ra,21148 <__clzdi2>
   1ffb0:	0005051b          	sext.w	a0,a0
   1ffb4:	04050513          	addi	a0,a0,64
   1ffb8:	fb5ff06f          	j	1ff6c <__multf3+0x1dc>
   1ffbc:	fc37041b          	addiw	s0,a4,-61
   1ffc0:	008b1433          	sll	s0,s6,s0
   1ffc4:	00000793          	li	a5,0
   1ffc8:	fd1ff06f          	j	1ff98 <__multf3+0x208>
   1ffcc:	008b67b3          	or	a5,s6,s0
   1ffd0:	02078063          	beqz	a5,1fff0 <__multf3+0x260>
   1ffd4:	000b0793          	mv	a5,s6
   1ffd8:	00300713          	li	a4,3
   1ffdc:	e99ff06f          	j	1fe74 <__multf3+0xe4>
   1ffe0:	00000413          	li	s0,0
   1ffe4:	00000513          	li	a0,0
   1ffe8:	00100713          	li	a4,1
   1ffec:	e89ff06f          	j	1fe74 <__multf3+0xe4>
   1fff0:	00000413          	li	s0,0
   1fff4:	00200713          	li	a4,2
   1fff8:	e7dff06f          	j	1fe74 <__multf3+0xe4>
   1fffc:	fff00713          	li	a4,-1
   20000:	01248ab3          	add	s5,s1,s2
   20004:	00878a33          	add	s4,a5,s0
   20008:	02075713          	srli	a4,a4,0x20
   2000c:	012ab2b3          	sltu	t0,s5,s2
   20010:	00fa33b3          	sltu	t2,s4,a5
   20014:	02095b13          	srli	s6,s2,0x20
   20018:	0207df93          	srli	t6,a5,0x20
   2001c:	00e97933          	and	s2,s2,a4
   20020:	00e7f7b3          	and	a5,a5,a4
   20024:	00028f1b          	sext.w	t5,t0
   20028:	00038e1b          	sext.w	t3,t2
   2002c:	00090513          	mv	a0,s2
   20030:	00078593          	mv	a1,a5
   20034:	7f1000ef          	jal	ra,21024 <__muldi3>
   20038:	00050e93          	mv	t4,a0
   2003c:	000f8593          	mv	a1,t6
   20040:	00090513          	mv	a0,s2
   20044:	7e1000ef          	jal	ra,21024 <__muldi3>
   20048:	00050313          	mv	t1,a0
   2004c:	00078593          	mv	a1,a5
   20050:	000b0513          	mv	a0,s6
   20054:	7d1000ef          	jal	ra,21024 <__muldi3>
   20058:	00050713          	mv	a4,a0
   2005c:	000f8593          	mv	a1,t6
   20060:	000b0513          	mv	a0,s6
   20064:	7c1000ef          	jal	ra,21024 <__muldi3>
   20068:	020ed793          	srli	a5,t4,0x20
   2006c:	00e30333          	add	t1,t1,a4
   20070:	006787b3          	add	a5,a5,t1
   20074:	00e7f863          	bgeu	a5,a4,20084 <__multf3+0x2f4>
   20078:	00100713          	li	a4,1
   2007c:	02071713          	slli	a4,a4,0x20
   20080:	00e50533          	add	a0,a0,a4
   20084:	fff00713          	li	a4,-1
   20088:	02075713          	srli	a4,a4,0x20
   2008c:	00e7f333          	and	t1,a5,a4
   20090:	00eefeb3          	and	t4,t4,a4
   20094:	00eafb33          	and	s6,s5,a4
   20098:	0207df93          	srli	t6,a5,0x20
   2009c:	00ea7733          	and	a4,s4,a4
   200a0:	02031313          	slli	t1,t1,0x20
   200a4:	00af8fb3          	add	t6,t6,a0
   200a8:	01d30333          	add	t1,t1,t4
   200ac:	020ad913          	srli	s2,s5,0x20
   200b0:	020a5793          	srli	a5,s4,0x20
   200b4:	000b0513          	mv	a0,s6
   200b8:	00070593          	mv	a1,a4
   200bc:	769000ef          	jal	ra,21024 <__muldi3>
   200c0:	00050e93          	mv	t4,a0
   200c4:	00078593          	mv	a1,a5
   200c8:	000b0513          	mv	a0,s6
   200cc:	759000ef          	jal	ra,21024 <__muldi3>
   200d0:	00050b93          	mv	s7,a0
   200d4:	00070593          	mv	a1,a4
   200d8:	00090513          	mv	a0,s2
   200dc:	749000ef          	jal	ra,21024 <__muldi3>
   200e0:	00050713          	mv	a4,a0
   200e4:	00078593          	mv	a1,a5
   200e8:	00090513          	mv	a0,s2
   200ec:	739000ef          	jal	ra,21024 <__muldi3>
   200f0:	020ed693          	srli	a3,t4,0x20
   200f4:	00eb8bb3          	add	s7,s7,a4
   200f8:	017686b3          	add	a3,a3,s7
   200fc:	00050b13          	mv	s6,a0
   20100:	00e6f863          	bgeu	a3,a4,20110 <__multf3+0x380>
   20104:	00100793          	li	a5,1
   20108:	02079793          	slli	a5,a5,0x20
   2010c:	00f50b33          	add	s6,a0,a5
   20110:	fff00593          	li	a1,-1
   20114:	0205d593          	srli	a1,a1,0x20
   20118:	0206d913          	srli	s2,a3,0x20
   2011c:	00b6f6b3          	and	a3,a3,a1
   20120:	02069693          	slli	a3,a3,0x20
   20124:	00befeb3          	and	t4,t4,a1
   20128:	0204dc93          	srli	s9,s1,0x20
   2012c:	02045c13          	srli	s8,s0,0x20
   20130:	00b4f4b3          	and	s1,s1,a1
   20134:	00b47433          	and	s0,s0,a1
   20138:	01d68eb3          	add	t4,a3,t4
   2013c:	00048513          	mv	a0,s1
   20140:	00040593          	mv	a1,s0
   20144:	6e1000ef          	jal	ra,21024 <__muldi3>
   20148:	00050b93          	mv	s7,a0
   2014c:	000c0593          	mv	a1,s8
   20150:	00048513          	mv	a0,s1
   20154:	6d1000ef          	jal	ra,21024 <__muldi3>
   20158:	00050713          	mv	a4,a0
   2015c:	00040593          	mv	a1,s0
   20160:	000c8513          	mv	a0,s9
   20164:	6c1000ef          	jal	ra,21024 <__muldi3>
   20168:	00050793          	mv	a5,a0
   2016c:	000c0593          	mv	a1,s8
   20170:	000c8513          	mv	a0,s9
   20174:	6b1000ef          	jal	ra,21024 <__muldi3>
   20178:	020bd613          	srli	a2,s7,0x20
   2017c:	00f70733          	add	a4,a4,a5
   20180:	00e60633          	add	a2,a2,a4
   20184:	00f67863          	bgeu	a2,a5,20194 <__multf3+0x404>
   20188:	00100793          	li	a5,1
   2018c:	02079793          	slli	a5,a5,0x20
   20190:	00f50533          	add	a0,a0,a5
   20194:	02065693          	srli	a3,a2,0x20
   20198:	00a687b3          	add	a5,a3,a0
   2019c:	fff00693          	li	a3,-1
   201a0:	0206d693          	srli	a3,a3,0x20
   201a4:	00d67733          	and	a4,a2,a3
   201a8:	00dbfbb3          	and	s7,s7,a3
   201ac:	01fe86b3          	add	a3,t4,t6
   201b0:	01f6b633          	sltu	a2,a3,t6
   201b4:	00c90533          	add	a0,s2,a2
   201b8:	41c005b3          	neg	a1,t3
   201bc:	01650533          	add	a0,a0,s6
   201c0:	0155f5b3          	and	a1,a1,s5
   201c4:	41e00e33          	neg	t3,t5
   201c8:	00a585b3          	add	a1,a1,a0
   201cc:	00c53633          	sltu	a2,a0,a2
   201d0:	014e7e33          	and	t3,t3,s4
   201d4:	0072f433          	and	s0,t0,t2
   201d8:	00be0e33          	add	t3,t3,a1
   201dc:	00a5b533          	sltu	a0,a1,a0
   201e0:	00860433          	add	s0,a2,s0
   201e4:	40668eb3          	sub	t4,a3,t1
   201e8:	00a40433          	add	s0,s0,a0
   201ec:	00be35b3          	sltu	a1,t3,a1
   201f0:	41fe0633          	sub	a2,t3,t6
   201f4:	01d6b533          	sltu	a0,a3,t4
   201f8:	02071713          	slli	a4,a4,0x20
   201fc:	00b40433          	add	s0,s0,a1
   20200:	01770733          	add	a4,a4,s7
   20204:	00ce35b3          	sltu	a1,t3,a2
   20208:	40a60633          	sub	a2,a2,a0
   2020c:	00000513          	li	a0,0
   20210:	01d6f663          	bgeu	a3,t4,2021c <__multf3+0x48c>
   20214:	41cf8e33          	sub	t3,t6,t3
   20218:	001e3513          	seqz	a0,t3
   2021c:	00b56e33          	or	t3,a0,a1
   20220:	40ee85b3          	sub	a1,t4,a4
   20224:	40f606b3          	sub	a3,a2,a5
   20228:	00f40433          	add	s0,s0,a5
   2022c:	00beb7b3          	sltu	a5,t4,a1
   20230:	00d63633          	sltu	a2,a2,a3
   20234:	40f707b3          	sub	a5,a4,a5
   20238:	00000513          	li	a0,0
   2023c:	00bef463          	bgeu	t4,a1,20244 <__multf3+0x4b4>
   20240:	0016b513          	seqz	a0,a3
   20244:	00f686b3          	add	a3,a3,a5
   20248:	00e6b733          	sltu	a4,a3,a4
   2024c:	00870433          	add	s0,a4,s0
   20250:	41c40433          	sub	s0,s0,t3
   20254:	00c56633          	or	a2,a0,a2
   20258:	40c40433          	sub	s0,s0,a2
   2025c:	0336d793          	srli	a5,a3,0x33
   20260:	00d41413          	slli	s0,s0,0xd
   20264:	00f46433          	or	s0,s0,a5
   20268:	00d59793          	slli	a5,a1,0xd
   2026c:	0067e7b3          	or	a5,a5,t1
   20270:	00f037b3          	snez	a5,a5
   20274:	0335d593          	srli	a1,a1,0x33
   20278:	00b7e7b3          	or	a5,a5,a1
   2027c:	00d69693          	slli	a3,a3,0xd
   20280:	00b41713          	slli	a4,s0,0xb
   20284:	00d7e7b3          	or	a5,a5,a3
   20288:	10075c63          	bgez	a4,203a0 <__multf3+0x610>
   2028c:	0017d713          	srli	a4,a5,0x1
   20290:	0017f793          	andi	a5,a5,1
   20294:	03f41513          	slli	a0,s0,0x3f
   20298:	00f767b3          	or	a5,a4,a5
   2029c:	00a7e7b3          	or	a5,a5,a0
   202a0:	00145413          	srli	s0,s0,0x1
   202a4:	00004737          	lui	a4,0x4
   202a8:	fff70713          	addi	a4,a4,-1 # 3fff <register_fini-0xc0b1>
   202ac:	00e88733          	add	a4,a7,a4
   202b0:	0ee05c63          	blez	a4,203a8 <__multf3+0x618>
   202b4:	0077f693          	andi	a3,a5,7
   202b8:	02068063          	beqz	a3,202d8 <__multf3+0x548>
   202bc:	00f7f693          	andi	a3,a5,15
   202c0:	00400613          	li	a2,4
   202c4:	00c68a63          	beq	a3,a2,202d8 <__multf3+0x548>
   202c8:	00478693          	addi	a3,a5,4
   202cc:	00f6b7b3          	sltu	a5,a3,a5
   202d0:	00f40433          	add	s0,s0,a5
   202d4:	00068793          	mv	a5,a3
   202d8:	00b41693          	slli	a3,s0,0xb
   202dc:	0006de63          	bgez	a3,202f8 <__multf3+0x568>
   202e0:	fff00713          	li	a4,-1
   202e4:	03471713          	slli	a4,a4,0x34
   202e8:	fff70713          	addi	a4,a4,-1
   202ec:	00e47433          	and	s0,s0,a4
   202f0:	00004737          	lui	a4,0x4
   202f4:	00e88733          	add	a4,a7,a4
   202f8:	000086b7          	lui	a3,0x8
   202fc:	ffe68613          	addi	a2,a3,-2 # 7ffe <register_fini-0x80b2>
   20300:	18e64863          	blt	a2,a4,20490 <__multf3+0x700>
   20304:	03d41513          	slli	a0,s0,0x3d
   20308:	0037d793          	srli	a5,a5,0x3
   2030c:	00f56533          	or	a0,a0,a5
   20310:	00345413          	srli	s0,s0,0x3
   20314:	01041413          	slli	s0,s0,0x10
   20318:	03171713          	slli	a4,a4,0x31
   2031c:	00175713          	srli	a4,a4,0x1
   20320:	01045413          	srli	s0,s0,0x10
   20324:	00e46433          	or	s0,s0,a4
   20328:	03f81593          	slli	a1,a6,0x3f
   2032c:	00b465b3          	or	a1,s0,a1
   20330:	05813083          	ld	ra,88(sp)
   20334:	05013403          	ld	s0,80(sp)
   20338:	04813483          	ld	s1,72(sp)
   2033c:	04013903          	ld	s2,64(sp)
   20340:	03813983          	ld	s3,56(sp)
   20344:	03013a03          	ld	s4,48(sp)
   20348:	02813a83          	ld	s5,40(sp)
   2034c:	02013b03          	ld	s6,32(sp)
   20350:	01813b83          	ld	s7,24(sp)
   20354:	01013c03          	ld	s8,16(sp)
   20358:	00813c83          	ld	s9,8(sp)
   2035c:	06010113          	addi	sp,sp,96
   20360:	00008067          	ret
   20364:	000a8813          	mv	a6,s5
   20368:	00048413          	mv	s0,s1
   2036c:	00090793          	mv	a5,s2
   20370:	000b8713          	mv	a4,s7
   20374:	00200693          	li	a3,2
   20378:	0ed70463          	beq	a4,a3,20460 <__multf3+0x6d0>
   2037c:	00300693          	li	a3,3
   20380:	0ed70a63          	beq	a4,a3,20474 <__multf3+0x6e4>
   20384:	00100693          	li	a3,1
   20388:	f0d71ee3          	bne	a4,a3,202a4 <__multf3+0x514>
   2038c:	00000413          	li	s0,0
   20390:	00000513          	li	a0,0
   20394:	0900006f          	j	20424 <__multf3+0x694>
   20398:	000a0813          	mv	a6,s4
   2039c:	fd9ff06f          	j	20374 <__multf3+0x5e4>
   203a0:	00098893          	mv	a7,s3
   203a4:	f01ff06f          	j	202a4 <__multf3+0x514>
   203a8:	00100693          	li	a3,1
   203ac:	40e68733          	sub	a4,a3,a4
   203b0:	07400693          	li	a3,116
   203b4:	fce6cce3          	blt	a3,a4,2038c <__multf3+0x5fc>
   203b8:	03f00693          	li	a3,63
   203bc:	0007059b          	sext.w	a1,a4
   203c0:	06e6c663          	blt	a3,a4,2042c <__multf3+0x69c>
   203c4:	04000713          	li	a4,64
   203c8:	40b7073b          	subw	a4,a4,a1
   203cc:	00e41533          	sll	a0,s0,a4
   203d0:	00b7d6b3          	srl	a3,a5,a1
   203d4:	00e797b3          	sll	a5,a5,a4
   203d8:	00d56533          	or	a0,a0,a3
   203dc:	00f037b3          	snez	a5,a5
   203e0:	00f567b3          	or	a5,a0,a5
   203e4:	00b45433          	srl	s0,s0,a1
   203e8:	0077f713          	andi	a4,a5,7
   203ec:	02070063          	beqz	a4,2040c <__multf3+0x67c>
   203f0:	00f7f713          	andi	a4,a5,15
   203f4:	00400693          	li	a3,4
   203f8:	00d70a63          	beq	a4,a3,2040c <__multf3+0x67c>
   203fc:	00478713          	addi	a4,a5,4
   20400:	00f737b3          	sltu	a5,a4,a5
   20404:	00f40433          	add	s0,s0,a5
   20408:	00070793          	mv	a5,a4
   2040c:	00c41713          	slli	a4,s0,0xc
   20410:	08074863          	bltz	a4,204a0 <__multf3+0x710>
   20414:	03d41513          	slli	a0,s0,0x3d
   20418:	0037d793          	srli	a5,a5,0x3
   2041c:	00f56533          	or	a0,a0,a5
   20420:	00345413          	srli	s0,s0,0x3
   20424:	00000713          	li	a4,0
   20428:	eedff06f          	j	20314 <__multf3+0x584>
   2042c:	fc05851b          	addiw	a0,a1,-64
   20430:	04000613          	li	a2,64
   20434:	00a45533          	srl	a0,s0,a0
   20438:	00000693          	li	a3,0
   2043c:	00c70863          	beq	a4,a2,2044c <__multf3+0x6bc>
   20440:	08000693          	li	a3,128
   20444:	40b686bb          	subw	a3,a3,a1
   20448:	00d416b3          	sll	a3,s0,a3
   2044c:	00f6e7b3          	or	a5,a3,a5
   20450:	00f037b3          	snez	a5,a5
   20454:	00f567b3          	or	a5,a0,a5
   20458:	00000413          	li	s0,0
   2045c:	f8dff06f          	j	203e8 <__multf3+0x658>
   20460:	00008737          	lui	a4,0x8
   20464:	00000413          	li	s0,0
   20468:	00000513          	li	a0,0
   2046c:	fff70713          	addi	a4,a4,-1 # 7fff <register_fini-0x80b1>
   20470:	ea5ff06f          	j	20314 <__multf3+0x584>
   20474:	00100413          	li	s0,1
   20478:	00008737          	lui	a4,0x8
   2047c:	02f41413          	slli	s0,s0,0x2f
   20480:	00000513          	li	a0,0
   20484:	fff70713          	addi	a4,a4,-1 # 7fff <register_fini-0x80b1>
   20488:	00000813          	li	a6,0
   2048c:	e89ff06f          	j	20314 <__multf3+0x584>
   20490:	00000413          	li	s0,0
   20494:	00000513          	li	a0,0
   20498:	fff68713          	addi	a4,a3,-1
   2049c:	e79ff06f          	j	20314 <__multf3+0x584>
   204a0:	00000413          	li	s0,0
   204a4:	00000513          	li	a0,0
   204a8:	00100713          	li	a4,1
   204ac:	e69ff06f          	j	20314 <__multf3+0x584>

00000000000204b0 <__subtf3>:
   204b0:	fff00313          	li	t1,-1
   204b4:	fd010113          	addi	sp,sp,-48
   204b8:	01035313          	srli	t1,t1,0x10
   204bc:	00008837          	lui	a6,0x8
   204c0:	0305de93          	srli	t4,a1,0x30
   204c4:	fff80813          	addi	a6,a6,-1 # 7fff <register_fini-0x80b1>
   204c8:	0306d893          	srli	a7,a3,0x30
   204cc:	00913c23          	sd	s1,24(sp)
   204d0:	03f6de13          	srli	t3,a3,0x3f
   204d4:	03f5d493          	srli	s1,a1,0x3f
   204d8:	0066f6b3          	and	a3,a3,t1
   204dc:	0065f5b3          	and	a1,a1,t1
   204e0:	03d55793          	srli	a5,a0,0x3d
   204e4:	03d65713          	srli	a4,a2,0x3d
   204e8:	02813023          	sd	s0,32(sp)
   204ec:	010efeb3          	and	t4,t4,a6
   204f0:	00359593          	slli	a1,a1,0x3
   204f4:	00369693          	slli	a3,a3,0x3
   204f8:	02113423          	sd	ra,40(sp)
   204fc:	01213823          	sd	s2,16(sp)
   20500:	01313423          	sd	s3,8(sp)
   20504:	0108f8b3          	and	a7,a7,a6
   20508:	000e8413          	mv	s0,t4
   2050c:	00b7e7b3          	or	a5,a5,a1
   20510:	00351513          	slli	a0,a0,0x3
   20514:	00d766b3          	or	a3,a4,a3
   20518:	00361613          	slli	a2,a2,0x3
   2051c:	01089663          	bne	a7,a6,20528 <__subtf3+0x78>
   20520:	00c6e733          	or	a4,a3,a2
   20524:	00071463          	bnez	a4,2052c <__subtf3+0x7c>
   20528:	001e4e13          	xori	t3,t3,1
   2052c:	411e873b          	subw	a4,t4,a7
   20530:	000085b7          	lui	a1,0x8
   20534:	0007081b          	sext.w	a6,a4
   20538:	fff58313          	addi	t1,a1,-1 # 7fff <register_fini-0x80b1>
   2053c:	2a9e1a63          	bne	t3,s1,207f0 <__subtf3+0x340>
   20540:	13005a63          	blez	a6,20674 <__subtf3+0x1c4>
   20544:	08089c63          	bnez	a7,205dc <__subtf3+0x12c>
   20548:	00c6e5b3          	or	a1,a3,a2
   2054c:	06058463          	beqz	a1,205b4 <__subtf3+0x104>
   20550:	fff7081b          	addiw	a6,a4,-1
   20554:	04081e63          	bnez	a6,205b0 <__subtf3+0x100>
   20558:	00c50633          	add	a2,a0,a2
   2055c:	00d787b3          	add	a5,a5,a3
   20560:	00a63533          	sltu	a0,a2,a0
   20564:	00a787b3          	add	a5,a5,a0
   20568:	00060513          	mv	a0,a2
   2056c:	00c79713          	slli	a4,a5,0xc
   20570:	04075263          	bgez	a4,205b4 <__subtf3+0x104>
   20574:	00008737          	lui	a4,0x8
   20578:	00140413          	addi	s0,s0,1
   2057c:	fff70713          	addi	a4,a4,-1 # 7fff <register_fini-0x80b1>
   20580:	60e40c63          	beq	s0,a4,20b98 <__subtf3+0x6e8>
   20584:	fff00593          	li	a1,-1
   20588:	03359593          	slli	a1,a1,0x33
   2058c:	fff58593          	addi	a1,a1,-1
   20590:	00b7f5b3          	and	a1,a5,a1
   20594:	00155813          	srli	a6,a0,0x1
   20598:	00157513          	andi	a0,a0,1
   2059c:	03f59793          	slli	a5,a1,0x3f
   205a0:	00a86533          	or	a0,a6,a0
   205a4:	00a7e533          	or	a0,a5,a0
   205a8:	0015d793          	srli	a5,a1,0x1
   205ac:	0080006f          	j	205b4 <__subtf3+0x104>
   205b0:	026e9e63          	bne	t4,t1,205ec <__subtf3+0x13c>
   205b4:	00757713          	andi	a4,a0,7
   205b8:	5e070463          	beqz	a4,20ba0 <__subtf3+0x6f0>
   205bc:	00f57713          	andi	a4,a0,15
   205c0:	00400693          	li	a3,4
   205c4:	5cd70e63          	beq	a4,a3,20ba0 <__subtf3+0x6f0>
   205c8:	00450593          	addi	a1,a0,4
   205cc:	00a5b533          	sltu	a0,a1,a0
   205d0:	00a787b3          	add	a5,a5,a0
   205d4:	00058513          	mv	a0,a1
   205d8:	5c80006f          	j	20ba0 <__subtf3+0x6f0>
   205dc:	fc6e8ce3          	beq	t4,t1,205b4 <__subtf3+0x104>
   205e0:	00100713          	li	a4,1
   205e4:	03371713          	slli	a4,a4,0x33
   205e8:	00e6e6b3          	or	a3,a3,a4
   205ec:	07400713          	li	a4,116
   205f0:	07074c63          	blt	a4,a6,20668 <__subtf3+0x1b8>
   205f4:	03f00713          	li	a4,63
   205f8:	03074e63          	blt	a4,a6,20634 <__subtf3+0x184>
   205fc:	04000593          	li	a1,64
   20600:	410585bb          	subw	a1,a1,a6
   20604:	00b69733          	sll	a4,a3,a1
   20608:	010658b3          	srl	a7,a2,a6
   2060c:	00b61633          	sll	a2,a2,a1
   20610:	01176733          	or	a4,a4,a7
   20614:	00c03633          	snez	a2,a2
   20618:	00c76633          	or	a2,a4,a2
   2061c:	0106d6b3          	srl	a3,a3,a6
   20620:	00a60633          	add	a2,a2,a0
   20624:	00f686b3          	add	a3,a3,a5
   20628:	00a637b3          	sltu	a5,a2,a0
   2062c:	00f687b3          	add	a5,a3,a5
   20630:	f39ff06f          	j	20568 <__subtf3+0xb8>
   20634:	fc08071b          	addiw	a4,a6,-64
   20638:	04000893          	li	a7,64
   2063c:	00e6d733          	srl	a4,a3,a4
   20640:	00000593          	li	a1,0
   20644:	01180863          	beq	a6,a7,20654 <__subtf3+0x1a4>
   20648:	08000593          	li	a1,128
   2064c:	4105883b          	subw	a6,a1,a6
   20650:	010695b3          	sll	a1,a3,a6
   20654:	00c5e633          	or	a2,a1,a2
   20658:	00c03633          	snez	a2,a2
   2065c:	00c76633          	or	a2,a4,a2
   20660:	00000693          	li	a3,0
   20664:	fbdff06f          	j	20620 <__subtf3+0x170>
   20668:	00c6e633          	or	a2,a3,a2
   2066c:	00c03633          	snez	a2,a2
   20670:	ff1ff06f          	j	20660 <__subtf3+0x1b0>
   20674:	0c080a63          	beqz	a6,20748 <__subtf3+0x298>
   20678:	060e9c63          	bnez	t4,206f0 <__subtf3+0x240>
   2067c:	00a7e5b3          	or	a1,a5,a0
   20680:	4e058663          	beqz	a1,20b6c <__subtf3+0x6bc>
   20684:	fff00593          	li	a1,-1
   20688:	00b81e63          	bne	a6,a1,206a4 <__subtf3+0x1f4>
   2068c:	00c50533          	add	a0,a0,a2
   20690:	00d787b3          	add	a5,a5,a3
   20694:	00c53633          	sltu	a2,a0,a2
   20698:	00c787b3          	add	a5,a5,a2
   2069c:	00088413          	mv	s0,a7
   206a0:	ecdff06f          	j	2056c <__subtf3+0xbc>
   206a4:	4c688463          	beq	a7,t1,20b6c <__subtf3+0x6bc>
   206a8:	fff74713          	not	a4,a4
   206ac:	0007071b          	sext.w	a4,a4
   206b0:	07400593          	li	a1,116
   206b4:	08e5c463          	blt	a1,a4,2073c <__subtf3+0x28c>
   206b8:	03f00593          	li	a1,63
   206bc:	04e5c663          	blt	a1,a4,20708 <__subtf3+0x258>
   206c0:	04000813          	li	a6,64
   206c4:	40e8083b          	subw	a6,a6,a4
   206c8:	00e55333          	srl	t1,a0,a4
   206cc:	010795b3          	sll	a1,a5,a6
   206d0:	01051533          	sll	a0,a0,a6
   206d4:	0065e5b3          	or	a1,a1,t1
   206d8:	00a03533          	snez	a0,a0
   206dc:	00a5e533          	or	a0,a1,a0
   206e0:	00e7d733          	srl	a4,a5,a4
   206e4:	00c50533          	add	a0,a0,a2
   206e8:	00d707b3          	add	a5,a4,a3
   206ec:	fa9ff06f          	j	20694 <__subtf3+0x1e4>
   206f0:	46688e63          	beq	a7,t1,20b6c <__subtf3+0x6bc>
   206f4:	00100593          	li	a1,1
   206f8:	03359593          	slli	a1,a1,0x33
   206fc:	40e0073b          	negw	a4,a4
   20700:	00b7e7b3          	or	a5,a5,a1
   20704:	fadff06f          	j	206b0 <__subtf3+0x200>
   20708:	fc07059b          	addiw	a1,a4,-64
   2070c:	04000313          	li	t1,64
   20710:	00b7d5b3          	srl	a1,a5,a1
   20714:	00000813          	li	a6,0
   20718:	00670863          	beq	a4,t1,20728 <__subtf3+0x278>
   2071c:	08000813          	li	a6,128
   20720:	40e8073b          	subw	a4,a6,a4
   20724:	00e79833          	sll	a6,a5,a4
   20728:	00a86533          	or	a0,a6,a0
   2072c:	00a03533          	snez	a0,a0
   20730:	00a5e533          	or	a0,a1,a0
   20734:	00000713          	li	a4,0
   20738:	fadff06f          	j	206e4 <__subtf3+0x234>
   2073c:	00a7e533          	or	a0,a5,a0
   20740:	00a03533          	snez	a0,a0
   20744:	ff1ff06f          	j	20734 <__subtf3+0x284>
   20748:	001e8813          	addi	a6,t4,1
   2074c:	ffe58593          	addi	a1,a1,-2
   20750:	00b875b3          	and	a1,a6,a1
   20754:	06059863          	bnez	a1,207c4 <__subtf3+0x314>
   20758:	00a7e733          	or	a4,a5,a0
   2075c:	040e9263          	bnez	t4,207a0 <__subtf3+0x2f0>
   20760:	40070e63          	beqz	a4,20b7c <__subtf3+0x6cc>
   20764:	00c6e733          	or	a4,a3,a2
   20768:	e40706e3          	beqz	a4,205b4 <__subtf3+0x104>
   2076c:	00c50633          	add	a2,a0,a2
   20770:	00a63533          	sltu	a0,a2,a0
   20774:	00d787b3          	add	a5,a5,a3
   20778:	00a787b3          	add	a5,a5,a0
   2077c:	00c79713          	slli	a4,a5,0xc
   20780:	00060513          	mv	a0,a2
   20784:	e20758e3          	bgez	a4,205b4 <__subtf3+0x104>
   20788:	fff00713          	li	a4,-1
   2078c:	03371713          	slli	a4,a4,0x33
   20790:	fff70713          	addi	a4,a4,-1
   20794:	00e7f7b3          	and	a5,a5,a4
   20798:	00100413          	li	s0,1
   2079c:	e19ff06f          	j	205b4 <__subtf3+0x104>
   207a0:	3e070463          	beqz	a4,20b88 <__subtf3+0x6d8>
   207a4:	00c6e633          	or	a2,a3,a2
   207a8:	28060863          	beqz	a2,20a38 <__subtf3+0x588>
   207ac:	00100793          	li	a5,1
   207b0:	00000493          	li	s1,0
   207b4:	03279793          	slli	a5,a5,0x32
   207b8:	00000513          	li	a0,0
   207bc:	00030413          	mv	s0,t1
   207c0:	3e00006f          	j	20ba0 <__subtf3+0x6f0>
   207c4:	3c680863          	beq	a6,t1,20b94 <__subtf3+0x6e4>
   207c8:	00c50633          	add	a2,a0,a2
   207cc:	00d786b3          	add	a3,a5,a3
   207d0:	00a637b3          	sltu	a5,a2,a0
   207d4:	00f686b3          	add	a3,a3,a5
   207d8:	03f69513          	slli	a0,a3,0x3f
   207dc:	00165613          	srli	a2,a2,0x1
   207e0:	00c56533          	or	a0,a0,a2
   207e4:	0016d793          	srli	a5,a3,0x1
   207e8:	00080413          	mv	s0,a6
   207ec:	dc9ff06f          	j	205b4 <__subtf3+0x104>
   207f0:	0f005263          	blez	a6,208d4 <__subtf3+0x424>
   207f4:	08089663          	bnez	a7,20880 <__subtf3+0x3d0>
   207f8:	00c6e5b3          	or	a1,a3,a2
   207fc:	da058ce3          	beqz	a1,205b4 <__subtf3+0x104>
   20800:	fff7081b          	addiw	a6,a4,-1
   20804:	02081863          	bnez	a6,20834 <__subtf3+0x384>
   20808:	40c50633          	sub	a2,a0,a2
   2080c:	40d787b3          	sub	a5,a5,a3
   20810:	00c53533          	sltu	a0,a0,a2
   20814:	40a787b3          	sub	a5,a5,a0
   20818:	00060513          	mv	a0,a2
   2081c:	00c79713          	slli	a4,a5,0xc
   20820:	d8075ae3          	bgez	a4,205b4 <__subtf3+0x104>
   20824:	00d79913          	slli	s2,a5,0xd
   20828:	00d95913          	srli	s2,s2,0xd
   2082c:	00050993          	mv	s3,a0
   20830:	2440006f          	j	20a74 <__subtf3+0x5c4>
   20834:	d86e80e3          	beq	t4,t1,205b4 <__subtf3+0x104>
   20838:	07400713          	li	a4,116
   2083c:	09074663          	blt	a4,a6,208c8 <__subtf3+0x418>
   20840:	03f00713          	li	a4,63
   20844:	05074863          	blt	a4,a6,20894 <__subtf3+0x3e4>
   20848:	04000593          	li	a1,64
   2084c:	410585bb          	subw	a1,a1,a6
   20850:	00b69733          	sll	a4,a3,a1
   20854:	010658b3          	srl	a7,a2,a6
   20858:	00b61633          	sll	a2,a2,a1
   2085c:	01176733          	or	a4,a4,a7
   20860:	00c03633          	snez	a2,a2
   20864:	00c76633          	or	a2,a4,a2
   20868:	0106d6b3          	srl	a3,a3,a6
   2086c:	40c50633          	sub	a2,a0,a2
   20870:	40d786b3          	sub	a3,a5,a3
   20874:	00c537b3          	sltu	a5,a0,a2
   20878:	40f687b3          	sub	a5,a3,a5
   2087c:	f9dff06f          	j	20818 <__subtf3+0x368>
   20880:	d26e8ae3          	beq	t4,t1,205b4 <__subtf3+0x104>
   20884:	00100713          	li	a4,1
   20888:	03371713          	slli	a4,a4,0x33
   2088c:	00e6e6b3          	or	a3,a3,a4
   20890:	fa9ff06f          	j	20838 <__subtf3+0x388>
   20894:	fc08071b          	addiw	a4,a6,-64
   20898:	04000893          	li	a7,64
   2089c:	00e6d733          	srl	a4,a3,a4
   208a0:	00000593          	li	a1,0
   208a4:	01180863          	beq	a6,a7,208b4 <__subtf3+0x404>
   208a8:	08000593          	li	a1,128
   208ac:	4105883b          	subw	a6,a1,a6
   208b0:	010695b3          	sll	a1,a3,a6
   208b4:	00c5e633          	or	a2,a1,a2
   208b8:	00c03633          	snez	a2,a2
   208bc:	00c76633          	or	a2,a4,a2
   208c0:	00000693          	li	a3,0
   208c4:	fa9ff06f          	j	2086c <__subtf3+0x3bc>
   208c8:	00c6e633          	or	a2,a3,a2
   208cc:	00c03633          	snez	a2,a2
   208d0:	ff1ff06f          	j	208c0 <__subtf3+0x410>
   208d4:	0c080c63          	beqz	a6,209ac <__subtf3+0x4fc>
   208d8:	060e9e63          	bnez	t4,20954 <__subtf3+0x4a4>
   208dc:	00a7e5b3          	or	a1,a5,a0
   208e0:	34058c63          	beqz	a1,20c38 <__subtf3+0x788>
   208e4:	fff00593          	li	a1,-1
   208e8:	02b81063          	bne	a6,a1,20908 <__subtf3+0x458>
   208ec:	40a60533          	sub	a0,a2,a0
   208f0:	40f687b3          	sub	a5,a3,a5
   208f4:	00a63633          	sltu	a2,a2,a0
   208f8:	40c787b3          	sub	a5,a5,a2
   208fc:	00088413          	mv	s0,a7
   20900:	000e0493          	mv	s1,t3
   20904:	f19ff06f          	j	2081c <__subtf3+0x36c>
   20908:	32688863          	beq	a7,t1,20c38 <__subtf3+0x788>
   2090c:	fff74713          	not	a4,a4
   20910:	0007071b          	sext.w	a4,a4
   20914:	07400593          	li	a1,116
   20918:	08e5c463          	blt	a1,a4,209a0 <__subtf3+0x4f0>
   2091c:	03f00593          	li	a1,63
   20920:	04e5c663          	blt	a1,a4,2096c <__subtf3+0x4bc>
   20924:	04000813          	li	a6,64
   20928:	40e8083b          	subw	a6,a6,a4
   2092c:	00e55333          	srl	t1,a0,a4
   20930:	010795b3          	sll	a1,a5,a6
   20934:	01051533          	sll	a0,a0,a6
   20938:	0065e5b3          	or	a1,a1,t1
   2093c:	00a03533          	snez	a0,a0
   20940:	00a5e533          	or	a0,a1,a0
   20944:	00e7d733          	srl	a4,a5,a4
   20948:	40a60533          	sub	a0,a2,a0
   2094c:	40e687b3          	sub	a5,a3,a4
   20950:	fa5ff06f          	j	208f4 <__subtf3+0x444>
   20954:	2e688263          	beq	a7,t1,20c38 <__subtf3+0x788>
   20958:	00100593          	li	a1,1
   2095c:	03359593          	slli	a1,a1,0x33
   20960:	40e0073b          	negw	a4,a4
   20964:	00b7e7b3          	or	a5,a5,a1
   20968:	fadff06f          	j	20914 <__subtf3+0x464>
   2096c:	fc07059b          	addiw	a1,a4,-64
   20970:	04000313          	li	t1,64
   20974:	00b7d5b3          	srl	a1,a5,a1
   20978:	00000813          	li	a6,0
   2097c:	00670863          	beq	a4,t1,2098c <__subtf3+0x4dc>
   20980:	08000813          	li	a6,128
   20984:	40e8073b          	subw	a4,a6,a4
   20988:	00e79833          	sll	a6,a5,a4
   2098c:	00a86533          	or	a0,a6,a0
   20990:	00a03533          	snez	a0,a0
   20994:	00a5e533          	or	a0,a1,a0
   20998:	00000713          	li	a4,0
   2099c:	fadff06f          	j	20948 <__subtf3+0x498>
   209a0:	00a7e533          	or	a0,a5,a0
   209a4:	00a03533          	snez	a0,a0
   209a8:	ff1ff06f          	j	20998 <__subtf3+0x4e8>
   209ac:	001e8713          	addi	a4,t4,1
   209b0:	ffe58593          	addi	a1,a1,-2
   209b4:	00b775b3          	and	a1,a4,a1
   209b8:	08059863          	bnez	a1,20a48 <__subtf3+0x598>
   209bc:	00a7e5b3          	or	a1,a5,a0
   209c0:	00c6e733          	or	a4,a3,a2
   209c4:	060e9063          	bnez	t4,20a24 <__subtf3+0x574>
   209c8:	00059c63          	bnez	a1,209e0 <__subtf3+0x530>
   209cc:	26070e63          	beqz	a4,20c48 <__subtf3+0x798>
   209d0:	00068793          	mv	a5,a3
   209d4:	00060513          	mv	a0,a2
   209d8:	000e0493          	mv	s1,t3
   209dc:	bd9ff06f          	j	205b4 <__subtf3+0x104>
   209e0:	bc070ae3          	beqz	a4,205b4 <__subtf3+0x104>
   209e4:	40c505b3          	sub	a1,a0,a2
   209e8:	00b53833          	sltu	a6,a0,a1
   209ec:	40d78733          	sub	a4,a5,a3
   209f0:	41070733          	sub	a4,a4,a6
   209f4:	00c71813          	slli	a6,a4,0xc
   209f8:	00085c63          	bgez	a6,20a10 <__subtf3+0x560>
   209fc:	40a60533          	sub	a0,a2,a0
   20a00:	40f687b3          	sub	a5,a3,a5
   20a04:	00a63633          	sltu	a2,a2,a0
   20a08:	40c787b3          	sub	a5,a5,a2
   20a0c:	fcdff06f          	j	209d8 <__subtf3+0x528>
   20a10:	00e5e533          	or	a0,a1,a4
   20a14:	24050263          	beqz	a0,20c58 <__subtf3+0x7a8>
   20a18:	00070793          	mv	a5,a4
   20a1c:	00058513          	mv	a0,a1
   20a20:	b95ff06f          	j	205b4 <__subtf3+0x104>
   20a24:	00059e63          	bnez	a1,20a40 <__subtf3+0x590>
   20a28:	22070c63          	beqz	a4,20c60 <__subtf3+0x7b0>
   20a2c:	00068793          	mv	a5,a3
   20a30:	00060513          	mv	a0,a2
   20a34:	000e0493          	mv	s1,t3
   20a38:	00030413          	mv	s0,t1
   20a3c:	b79ff06f          	j	205b4 <__subtf3+0x104>
   20a40:	fe070ce3          	beqz	a4,20a38 <__subtf3+0x588>
   20a44:	d69ff06f          	j	207ac <__subtf3+0x2fc>
   20a48:	40c509b3          	sub	s3,a0,a2
   20a4c:	01353733          	sltu	a4,a0,s3
   20a50:	40d78933          	sub	s2,a5,a3
   20a54:	40e90933          	sub	s2,s2,a4
   20a58:	00c91713          	slli	a4,s2,0xc
   20a5c:	08075863          	bgez	a4,20aec <__subtf3+0x63c>
   20a60:	40a609b3          	sub	s3,a2,a0
   20a64:	40f687b3          	sub	a5,a3,a5
   20a68:	01363633          	sltu	a2,a2,s3
   20a6c:	40c78933          	sub	s2,a5,a2
   20a70:	000e0493          	mv	s1,t3
   20a74:	08090663          	beqz	s2,20b00 <__subtf3+0x650>
   20a78:	00090513          	mv	a0,s2
   20a7c:	6cc000ef          	jal	ra,21148 <__clzdi2>
   20a80:	0005051b          	sext.w	a0,a0
   20a84:	ff45069b          	addiw	a3,a0,-12
   20a88:	03f00793          	li	a5,63
   20a8c:	00068713          	mv	a4,a3
   20a90:	08d7c063          	blt	a5,a3,20b10 <__subtf3+0x660>
   20a94:	04000613          	li	a2,64
   20a98:	40d6063b          	subw	a2,a2,a3
   20a9c:	00d917b3          	sll	a5,s2,a3
   20aa0:	00c9d633          	srl	a2,s3,a2
   20aa4:	00f66633          	or	a2,a2,a5
   20aa8:	00d99533          	sll	a0,s3,a3
   20aac:	0a86c463          	blt	a3,s0,20b54 <__subtf3+0x6a4>
   20ab0:	4087073b          	subw	a4,a4,s0
   20ab4:	0017079b          	addiw	a5,a4,1
   20ab8:	03f00693          	li	a3,63
   20abc:	06f6c263          	blt	a3,a5,20b20 <__subtf3+0x670>
   20ac0:	04000693          	li	a3,64
   20ac4:	40f686bb          	subw	a3,a3,a5
   20ac8:	00f555b3          	srl	a1,a0,a5
   20acc:	00d61733          	sll	a4,a2,a3
   20ad0:	00d51533          	sll	a0,a0,a3
   20ad4:	00b76733          	or	a4,a4,a1
   20ad8:	00a03533          	snez	a0,a0
   20adc:	00a76533          	or	a0,a4,a0
   20ae0:	00f657b3          	srl	a5,a2,a5
   20ae4:	00000413          	li	s0,0
   20ae8:	acdff06f          	j	205b4 <__subtf3+0x104>
   20aec:	0129e533          	or	a0,s3,s2
   20af0:	f80512e3          	bnez	a0,20a74 <__subtf3+0x5c4>
   20af4:	00000793          	li	a5,0
   20af8:	00000413          	li	s0,0
   20afc:	1540006f          	j	20c50 <__subtf3+0x7a0>
   20b00:	00098513          	mv	a0,s3
   20b04:	644000ef          	jal	ra,21148 <__clzdi2>
   20b08:	0405051b          	addiw	a0,a0,64
   20b0c:	f79ff06f          	j	20a84 <__subtf3+0x5d4>
   20b10:	fb45051b          	addiw	a0,a0,-76
   20b14:	00a99633          	sll	a2,s3,a0
   20b18:	00000513          	li	a0,0
   20b1c:	f91ff06f          	j	20aac <__subtf3+0x5fc>
   20b20:	fc17071b          	addiw	a4,a4,-63
   20b24:	04000813          	li	a6,64
   20b28:	00e65733          	srl	a4,a2,a4
   20b2c:	00000693          	li	a3,0
   20b30:	01078863          	beq	a5,a6,20b40 <__subtf3+0x690>
   20b34:	08000693          	li	a3,128
   20b38:	40f686bb          	subw	a3,a3,a5
   20b3c:	00d616b3          	sll	a3,a2,a3
   20b40:	00d56533          	or	a0,a0,a3
   20b44:	00a03533          	snez	a0,a0
   20b48:	00a76533          	or	a0,a4,a0
   20b4c:	00000793          	li	a5,0
   20b50:	f95ff06f          	j	20ae4 <__subtf3+0x634>
   20b54:	fff00793          	li	a5,-1
   20b58:	03379793          	slli	a5,a5,0x33
   20b5c:	fff78793          	addi	a5,a5,-1
   20b60:	40d40433          	sub	s0,s0,a3
   20b64:	00f677b3          	and	a5,a2,a5
   20b68:	a4dff06f          	j	205b4 <__subtf3+0x104>
   20b6c:	00068793          	mv	a5,a3
   20b70:	00060513          	mv	a0,a2
   20b74:	00088413          	mv	s0,a7
   20b78:	a3dff06f          	j	205b4 <__subtf3+0x104>
   20b7c:	00068793          	mv	a5,a3
   20b80:	00060513          	mv	a0,a2
   20b84:	a31ff06f          	j	205b4 <__subtf3+0x104>
   20b88:	00068793          	mv	a5,a3
   20b8c:	00060513          	mv	a0,a2
   20b90:	ea9ff06f          	j	20a38 <__subtf3+0x588>
   20b94:	00080413          	mv	s0,a6
   20b98:	00000793          	li	a5,0
   20b9c:	00000513          	li	a0,0
   20ba0:	00c79713          	slli	a4,a5,0xc
   20ba4:	02075263          	bgez	a4,20bc8 <__subtf3+0x718>
   20ba8:	00008737          	lui	a4,0x8
   20bac:	00140413          	addi	s0,s0,1
   20bb0:	fff70713          	addi	a4,a4,-1 # 7fff <register_fini-0x80b1>
   20bb4:	0ce40063          	beq	s0,a4,20c74 <__subtf3+0x7c4>
   20bb8:	fff00713          	li	a4,-1
   20bbc:	03371713          	slli	a4,a4,0x33
   20bc0:	fff70713          	addi	a4,a4,-1
   20bc4:	00e7f7b3          	and	a5,a5,a4
   20bc8:	03d79713          	slli	a4,a5,0x3d
   20bcc:	00355513          	srli	a0,a0,0x3
   20bd0:	00a76533          	or	a0,a4,a0
   20bd4:	00008737          	lui	a4,0x8
   20bd8:	fff70713          	addi	a4,a4,-1 # 7fff <register_fini-0x80b1>
   20bdc:	0037d793          	srli	a5,a5,0x3
   20be0:	02e41063          	bne	s0,a4,20c00 <__subtf3+0x750>
   20be4:	00f56533          	or	a0,a0,a5
   20be8:	00000793          	li	a5,0
   20bec:	00050a63          	beqz	a0,20c00 <__subtf3+0x750>
   20bf0:	00100793          	li	a5,1
   20bf4:	02f79793          	slli	a5,a5,0x2f
   20bf8:	00000513          	li	a0,0
   20bfc:	00000493          	li	s1,0
   20c00:	03141713          	slli	a4,s0,0x31
   20c04:	02813083          	ld	ra,40(sp)
   20c08:	02013403          	ld	s0,32(sp)
   20c0c:	01079793          	slli	a5,a5,0x10
   20c10:	00175713          	srli	a4,a4,0x1
   20c14:	0107d793          	srli	a5,a5,0x10
   20c18:	03f49593          	slli	a1,s1,0x3f
   20c1c:	00e7e7b3          	or	a5,a5,a4
   20c20:	01813483          	ld	s1,24(sp)
   20c24:	01013903          	ld	s2,16(sp)
   20c28:	00813983          	ld	s3,8(sp)
   20c2c:	00b7e5b3          	or	a1,a5,a1
   20c30:	03010113          	addi	sp,sp,48
   20c34:	00008067          	ret
   20c38:	00068793          	mv	a5,a3
   20c3c:	00060513          	mv	a0,a2
   20c40:	00088413          	mv	s0,a7
   20c44:	d95ff06f          	j	209d8 <__subtf3+0x528>
   20c48:	00000793          	li	a5,0
   20c4c:	00000513          	li	a0,0
   20c50:	00000493          	li	s1,0
   20c54:	f4dff06f          	j	20ba0 <__subtf3+0x6f0>
   20c58:	00000793          	li	a5,0
   20c5c:	ff5ff06f          	j	20c50 <__subtf3+0x7a0>
   20c60:	00100793          	li	a5,1
   20c64:	00000513          	li	a0,0
   20c68:	00000493          	li	s1,0
   20c6c:	03279793          	slli	a5,a5,0x32
   20c70:	b4dff06f          	j	207bc <__subtf3+0x30c>
   20c74:	00000793          	li	a5,0
   20c78:	00000513          	li	a0,0
   20c7c:	f4dff06f          	j	20bc8 <__subtf3+0x718>

0000000000020c80 <__fixtfsi>:
   20c80:	00159513          	slli	a0,a1,0x1
   20c84:	00004737          	lui	a4,0x4
   20c88:	03155793          	srli	a5,a0,0x31
   20c8c:	ffe70613          	addi	a2,a4,-2 # 3ffe <register_fini-0xc0b2>
   20c90:	03f5d693          	srli	a3,a1,0x3f
   20c94:	00000513          	li	a0,0
   20c98:	04f65663          	bge	a2,a5,20ce4 <__fixtfsi+0x64>
   20c9c:	01d70713          	addi	a4,a4,29
   20ca0:	00f75a63          	bge	a4,a5,20cb4 <__fixtfsi+0x34>
   20ca4:	800005b7          	lui	a1,0x80000
   20ca8:	fff5c593          	not	a1,a1
   20cac:	00d5853b          	addw	a0,a1,a3
   20cb0:	00008067          	ret
   20cb4:	01059593          	slli	a1,a1,0x10
   20cb8:	00100513          	li	a0,1
   20cbc:	03051513          	slli	a0,a0,0x30
   20cc0:	0105d593          	srli	a1,a1,0x10
   20cc4:	00a5e5b3          	or	a1,a1,a0
   20cc8:	00004537          	lui	a0,0x4
   20ccc:	02f5051b          	addiw	a0,a0,47
   20cd0:	40f5053b          	subw	a0,a0,a5
   20cd4:	00a5d5b3          	srl	a1,a1,a0
   20cd8:	0005851b          	sext.w	a0,a1
   20cdc:	00068463          	beqz	a3,20ce4 <__fixtfsi+0x64>
   20ce0:	40a0053b          	negw	a0,a0
   20ce4:	00008067          	ret

0000000000020ce8 <__floatsitf>:
   20ce8:	fe010113          	addi	sp,sp,-32
   20cec:	00113c23          	sd	ra,24(sp)
   20cf0:	00813823          	sd	s0,16(sp)
   20cf4:	00913423          	sd	s1,8(sp)
   20cf8:	06050863          	beqz	a0,20d68 <__floatsitf+0x80>
   20cfc:	0005079b          	sext.w	a5,a0
   20d00:	03f55493          	srli	s1,a0,0x3f
   20d04:	00055463          	bgez	a0,20d0c <__floatsitf+0x24>
   20d08:	40f007bb          	negw	a5,a5
   20d0c:	02079413          	slli	s0,a5,0x20
   20d10:	02045413          	srli	s0,s0,0x20
   20d14:	00040513          	mv	a0,s0
   20d18:	430000ef          	jal	ra,21148 <__clzdi2>
   20d1c:	00004737          	lui	a4,0x4
   20d20:	03e7079b          	addiw	a5,a4,62
   20d24:	40a785bb          	subw	a1,a5,a0
   20d28:	02f7071b          	addiw	a4,a4,47
   20d2c:	40b7053b          	subw	a0,a4,a1
   20d30:	00a41533          	sll	a0,s0,a0
   20d34:	01813083          	ld	ra,24(sp)
   20d38:	01013403          	ld	s0,16(sp)
   20d3c:	01051513          	slli	a0,a0,0x10
   20d40:	03159593          	slli	a1,a1,0x31
   20d44:	01055513          	srli	a0,a0,0x10
   20d48:	0015d593          	srli	a1,a1,0x1
   20d4c:	03f49493          	slli	s1,s1,0x3f
   20d50:	00b565b3          	or	a1,a0,a1
   20d54:	0095e5b3          	or	a1,a1,s1
   20d58:	00000513          	li	a0,0
   20d5c:	00813483          	ld	s1,8(sp)
   20d60:	02010113          	addi	sp,sp,32
   20d64:	00008067          	ret
   20d68:	00000513          	li	a0,0
   20d6c:	00000593          	li	a1,0
   20d70:	00000493          	li	s1,0
   20d74:	fc1ff06f          	j	20d34 <__floatsitf+0x4c>

0000000000020d78 <__extenddftf2>:
   20d78:	03455793          	srli	a5,a0,0x34
   20d7c:	7ff7f793          	andi	a5,a5,2047
   20d80:	fe010113          	addi	sp,sp,-32
   20d84:	00178713          	addi	a4,a5,1
   20d88:	00813823          	sd	s0,16(sp)
   20d8c:	00913423          	sd	s1,8(sp)
   20d90:	00c51413          	slli	s0,a0,0xc
   20d94:	00113c23          	sd	ra,24(sp)
   20d98:	7fe77713          	andi	a4,a4,2046
   20d9c:	00c45413          	srli	s0,s0,0xc
   20da0:	03f55493          	srli	s1,a0,0x3f
   20da4:	04070663          	beqz	a4,20df0 <__extenddftf2+0x78>
   20da8:	00004737          	lui	a4,0x4
   20dac:	c0070713          	addi	a4,a4,-1024 # 3c00 <register_fini-0xc4b0>
   20db0:	00e787b3          	add	a5,a5,a4
   20db4:	00445713          	srli	a4,s0,0x4
   20db8:	03c41413          	slli	s0,s0,0x3c
   20dbc:	00040513          	mv	a0,s0
   20dc0:	01813083          	ld	ra,24(sp)
   20dc4:	01013403          	ld	s0,16(sp)
   20dc8:	01071713          	slli	a4,a4,0x10
   20dcc:	03179793          	slli	a5,a5,0x31
   20dd0:	0017d793          	srli	a5,a5,0x1
   20dd4:	01075713          	srli	a4,a4,0x10
   20dd8:	03f49593          	slli	a1,s1,0x3f
   20ddc:	00f767b3          	or	a5,a4,a5
   20de0:	00813483          	ld	s1,8(sp)
   20de4:	00b7e5b3          	or	a1,a5,a1
   20de8:	02010113          	addi	sp,sp,32
   20dec:	00008067          	ret
   20df0:	04079a63          	bnez	a5,20e44 <__extenddftf2+0xcc>
   20df4:	00000713          	li	a4,0
   20df8:	fc0402e3          	beqz	s0,20dbc <__extenddftf2+0x44>
   20dfc:	00040513          	mv	a0,s0
   20e00:	348000ef          	jal	ra,21148 <__clzdi2>
   20e04:	0005071b          	sext.w	a4,a0
   20e08:	00e00793          	li	a5,14
   20e0c:	02e7c463          	blt	a5,a4,20e34 <__extenddftf2+0xbc>
   20e10:	00f00713          	li	a4,15
   20e14:	40a7073b          	subw	a4,a4,a0
   20e18:	0315079b          	addiw	a5,a0,49
   20e1c:	00e45733          	srl	a4,s0,a4
   20e20:	00f41433          	sll	s0,s0,a5
   20e24:	000047b7          	lui	a5,0x4
   20e28:	c0c7879b          	addiw	a5,a5,-1012
   20e2c:	40a787bb          	subw	a5,a5,a0
   20e30:	f8dff06f          	j	20dbc <__extenddftf2+0x44>
   20e34:	ff15071b          	addiw	a4,a0,-15
   20e38:	00e41733          	sll	a4,s0,a4
   20e3c:	00000413          	li	s0,0
   20e40:	fe5ff06f          	j	20e24 <__extenddftf2+0xac>
   20e44:	00000713          	li	a4,0
   20e48:	00040c63          	beqz	s0,20e60 <__extenddftf2+0xe8>
   20e4c:	00100793          	li	a5,1
   20e50:	00445713          	srli	a4,s0,0x4
   20e54:	02f79793          	slli	a5,a5,0x2f
   20e58:	00f76733          	or	a4,a4,a5
   20e5c:	03c41413          	slli	s0,s0,0x3c
   20e60:	000087b7          	lui	a5,0x8
   20e64:	fff78793          	addi	a5,a5,-1 # 7fff <register_fini-0x80b1>
   20e68:	f55ff06f          	j	20dbc <__extenddftf2+0x44>

0000000000020e6c <__trunctfdf2>:
   20e6c:	00008837          	lui	a6,0x8
   20e70:	fff80793          	addi	a5,a6,-1 # 7fff <register_fini-0x80b1>
   20e74:	0305d713          	srli	a4,a1,0x30
   20e78:	03f5d693          	srli	a3,a1,0x3f
   20e7c:	01059593          	slli	a1,a1,0x10
   20e80:	00f77733          	and	a4,a4,a5
   20e84:	00d5d793          	srli	a5,a1,0xd
   20e88:	03d55593          	srli	a1,a0,0x3d
   20e8c:	00f5e5b3          	or	a1,a1,a5
   20e90:	ffe80813          	addi	a6,a6,-2
   20e94:	00170793          	addi	a5,a4,1
   20e98:	0107f833          	and	a6,a5,a6
   20e9c:	00351613          	slli	a2,a0,0x3
   20ea0:	0c080263          	beqz	a6,20f64 <__trunctfdf2+0xf8>
   20ea4:	ffffc7b7          	lui	a5,0xffffc
   20ea8:	40078793          	addi	a5,a5,1024 # ffffffffffffc400 <__BSS_END__+0xfffffffffffd91f8>
   20eac:	00f70733          	add	a4,a4,a5
   20eb0:	7fe00793          	li	a5,2046
   20eb4:	0ee7c263          	blt	a5,a4,20f98 <__trunctfdf2+0x12c>
   20eb8:	08e04863          	bgtz	a4,20f48 <__trunctfdf2+0xdc>
   20ebc:	fcc00793          	li	a5,-52
   20ec0:	14f74063          	blt	a4,a5,21000 <__trunctfdf2+0x194>
   20ec4:	00100793          	li	a5,1
   20ec8:	03379793          	slli	a5,a5,0x33
   20ecc:	00f5e5b3          	or	a1,a1,a5
   20ed0:	03d00793          	li	a5,61
   20ed4:	40e787b3          	sub	a5,a5,a4
   20ed8:	0007051b          	sext.w	a0,a4
   20edc:	03f00713          	li	a4,63
   20ee0:	02f74c63          	blt	a4,a5,20f18 <__trunctfdf2+0xac>
   20ee4:	03d00793          	li	a5,61
   20ee8:	0035071b          	addiw	a4,a0,3
   20eec:	40a787bb          	subw	a5,a5,a0
   20ef0:	00f657b3          	srl	a5,a2,a5
   20ef4:	00e61633          	sll	a2,a2,a4
   20ef8:	00c03633          	snez	a2,a2
   20efc:	00c7e7b3          	or	a5,a5,a2
   20f00:	00e595b3          	sll	a1,a1,a4
   20f04:	00f5e7b3          	or	a5,a1,a5
   20f08:	00000713          	li	a4,0
   20f0c:	0077f613          	andi	a2,a5,7
   20f10:	08060863          	beqz	a2,20fa0 <__trunctfdf2+0x134>
   20f14:	0f40006f          	j	21008 <__trunctfdf2+0x19c>
   20f18:	ffd00713          	li	a4,-3
   20f1c:	40a7073b          	subw	a4,a4,a0
   20f20:	04000893          	li	a7,64
   20f24:	00e5d733          	srl	a4,a1,a4
   20f28:	00000813          	li	a6,0
   20f2c:	01178663          	beq	a5,a7,20f38 <__trunctfdf2+0xcc>
   20f30:	0435079b          	addiw	a5,a0,67
   20f34:	00f59833          	sll	a6,a1,a5
   20f38:	00c867b3          	or	a5,a6,a2
   20f3c:	00f037b3          	snez	a5,a5
   20f40:	00f767b3          	or	a5,a4,a5
   20f44:	fc5ff06f          	j	20f08 <__trunctfdf2+0x9c>
   20f48:	00751793          	slli	a5,a0,0x7
   20f4c:	00f037b3          	snez	a5,a5
   20f50:	03c65613          	srli	a2,a2,0x3c
   20f54:	00c7e7b3          	or	a5,a5,a2
   20f58:	00459593          	slli	a1,a1,0x4
   20f5c:	00f5e7b3          	or	a5,a1,a5
   20f60:	fadff06f          	j	20f0c <__trunctfdf2+0xa0>
   20f64:	00c5e7b3          	or	a5,a1,a2
   20f68:	00071663          	bnez	a4,20f74 <__trunctfdf2+0x108>
   20f6c:	00f037b3          	snez	a5,a5
   20f70:	f9dff06f          	j	20f0c <__trunctfdf2+0xa0>
   20f74:	7ff00713          	li	a4,2047
   20f78:	02078463          	beqz	a5,20fa0 <__trunctfdf2+0x134>
   20f7c:	03c65613          	srli	a2,a2,0x3c
   20f80:	00459593          	slli	a1,a1,0x4
   20f84:	00c5e5b3          	or	a1,a1,a2
   20f88:	00100793          	li	a5,1
   20f8c:	ff85f593          	andi	a1,a1,-8
   20f90:	03679793          	slli	a5,a5,0x36
   20f94:	fc9ff06f          	j	20f5c <__trunctfdf2+0xf0>
   20f98:	00000793          	li	a5,0
   20f9c:	7ff00713          	li	a4,2047
   20fa0:	00879613          	slli	a2,a5,0x8
   20fa4:	02065063          	bgez	a2,20fc4 <__trunctfdf2+0x158>
   20fa8:	00170713          	addi	a4,a4,1
   20fac:	7ff00613          	li	a2,2047
   20fb0:	06c70663          	beq	a4,a2,2101c <__trunctfdf2+0x1b0>
   20fb4:	fff00613          	li	a2,-1
   20fb8:	03761613          	slli	a2,a2,0x37
   20fbc:	fff60613          	addi	a2,a2,-1
   20fc0:	00c7f7b3          	and	a5,a5,a2
   20fc4:	7ff00613          	li	a2,2047
   20fc8:	0037d793          	srli	a5,a5,0x3
   20fcc:	00c71a63          	bne	a4,a2,20fe0 <__trunctfdf2+0x174>
   20fd0:	00078863          	beqz	a5,20fe0 <__trunctfdf2+0x174>
   20fd4:	00100793          	li	a5,1
   20fd8:	03379793          	slli	a5,a5,0x33
   20fdc:	00000693          	li	a3,0
   20fe0:	00c79793          	slli	a5,a5,0xc
   20fe4:	7ff77713          	andi	a4,a4,2047
   20fe8:	03471713          	slli	a4,a4,0x34
   20fec:	00c7d793          	srli	a5,a5,0xc
   20ff0:	03f69513          	slli	a0,a3,0x3f
   20ff4:	00e7e7b3          	or	a5,a5,a4
   20ff8:	00a7e533          	or	a0,a5,a0
   20ffc:	00008067          	ret
   21000:	00100793          	li	a5,1
   21004:	00000713          	li	a4,0
   21008:	00f7f613          	andi	a2,a5,15
   2100c:	00400593          	li	a1,4
   21010:	f8b608e3          	beq	a2,a1,20fa0 <__trunctfdf2+0x134>
   21014:	00478793          	addi	a5,a5,4
   21018:	f89ff06f          	j	20fa0 <__trunctfdf2+0x134>
   2101c:	00000793          	li	a5,0
   21020:	fa5ff06f          	j	20fc4 <__trunctfdf2+0x158>

0000000000021024 <__muldi3>:
   21024:	00050613          	mv	a2,a0
   21028:	00000513          	li	a0,0
   2102c:	0015f693          	andi	a3,a1,1
   21030:	00068463          	beqz	a3,21038 <__muldi3+0x14>
   21034:	00c50533          	add	a0,a0,a2
   21038:	0015d593          	srli	a1,a1,0x1
   2103c:	00161613          	slli	a2,a2,0x1
   21040:	fe0596e3          	bnez	a1,2102c <__muldi3+0x8>
   21044:	00008067          	ret

0000000000021048 <__udivsi3>:
   21048:	02051513          	slli	a0,a0,0x20
   2104c:	02059593          	slli	a1,a1,0x20
   21050:	00008293          	mv	t0,ra
   21054:	03c000ef          	jal	ra,21090 <__udivdi3>
   21058:	0005051b          	sext.w	a0,a0
   2105c:	00028067          	jr	t0 # 103ac <memset+0xb4>

0000000000021060 <__umodsi3>:
   21060:	02051513          	slli	a0,a0,0x20
   21064:	02059593          	slli	a1,a1,0x20
   21068:	02055513          	srli	a0,a0,0x20
   2106c:	0205d593          	srli	a1,a1,0x20
   21070:	00008293          	mv	t0,ra
   21074:	01c000ef          	jal	ra,21090 <__udivdi3>
   21078:	0005851b          	sext.w	a0,a1
   2107c:	00028067          	jr	t0

0000000000021080 <__divsi3>:
   21080:	fff00293          	li	t0,-1
   21084:	0a558c63          	beq	a1,t0,2113c <__moddi3+0x30>

0000000000021088 <__divdi3>:
   21088:	06054063          	bltz	a0,210e8 <__umoddi3+0x10>
   2108c:	0605c663          	bltz	a1,210f8 <__umoddi3+0x20>

0000000000021090 <__udivdi3>:
   21090:	00058613          	mv	a2,a1
   21094:	00050593          	mv	a1,a0
   21098:	fff00513          	li	a0,-1
   2109c:	02060c63          	beqz	a2,210d4 <__udivdi3+0x44>
   210a0:	00100693          	li	a3,1
   210a4:	00b67a63          	bgeu	a2,a1,210b8 <__udivdi3+0x28>
   210a8:	00c05863          	blez	a2,210b8 <__udivdi3+0x28>
   210ac:	00161613          	slli	a2,a2,0x1
   210b0:	00169693          	slli	a3,a3,0x1
   210b4:	feb66ae3          	bltu	a2,a1,210a8 <__udivdi3+0x18>
   210b8:	00000513          	li	a0,0
   210bc:	00c5e663          	bltu	a1,a2,210c8 <__udivdi3+0x38>
   210c0:	40c585b3          	sub	a1,a1,a2
   210c4:	00d56533          	or	a0,a0,a3
   210c8:	0016d693          	srli	a3,a3,0x1
   210cc:	00165613          	srli	a2,a2,0x1
   210d0:	fe0696e3          	bnez	a3,210bc <__udivdi3+0x2c>
   210d4:	00008067          	ret

00000000000210d8 <__umoddi3>:
   210d8:	00008293          	mv	t0,ra
   210dc:	fb5ff0ef          	jal	ra,21090 <__udivdi3>
   210e0:	00058513          	mv	a0,a1
   210e4:	00028067          	jr	t0
   210e8:	40a00533          	neg	a0,a0
   210ec:	0005d863          	bgez	a1,210fc <__umoddi3+0x24>
   210f0:	40b005b3          	neg	a1,a1
   210f4:	f9dff06f          	j	21090 <__udivdi3>
   210f8:	40b005b3          	neg	a1,a1
   210fc:	00008293          	mv	t0,ra
   21100:	f91ff0ef          	jal	ra,21090 <__udivdi3>
   21104:	40a00533          	neg	a0,a0
   21108:	00028067          	jr	t0

000000000002110c <__moddi3>:
   2110c:	00008293          	mv	t0,ra
   21110:	0005ca63          	bltz	a1,21124 <__moddi3+0x18>
   21114:	00054c63          	bltz	a0,2112c <__moddi3+0x20>
   21118:	f79ff0ef          	jal	ra,21090 <__udivdi3>
   2111c:	00058513          	mv	a0,a1
   21120:	00028067          	jr	t0
   21124:	40b005b3          	neg	a1,a1
   21128:	fe0558e3          	bgez	a0,21118 <__moddi3+0xc>
   2112c:	40a00533          	neg	a0,a0
   21130:	f61ff0ef          	jal	ra,21090 <__udivdi3>
   21134:	40b00533          	neg	a0,a1
   21138:	00028067          	jr	t0
   2113c:	01f29293          	slli	t0,t0,0x1f
   21140:	f45514e3          	bne	a0,t0,21088 <__divdi3>
   21144:	00008067          	ret

0000000000021148 <__clzdi2>:
   21148:	03800793          	li	a5,56
   2114c:	00f55733          	srl	a4,a0,a5
   21150:	0ff77713          	andi	a4,a4,255
   21154:	00071663          	bnez	a4,21160 <__clzdi2+0x18>
   21158:	ff878793          	addi	a5,a5,-8
   2115c:	fe0798e3          	bnez	a5,2114c <__clzdi2+0x4>
   21160:	04000713          	li	a4,64
   21164:	40f70733          	sub	a4,a4,a5
   21168:	00f557b3          	srl	a5,a0,a5
   2116c:	00001517          	auipc	a0,0x1
   21170:	cc450513          	addi	a0,a0,-828 # 21e30 <__clz_tab>
   21174:	00f507b3          	add	a5,a0,a5
   21178:	0007c503          	lbu	a0,0(a5)
   2117c:	40a7053b          	subw	a0,a4,a0
   21180:	00008067          	ret
